 ResIL

 Timestamp is 5373897d (Wed May 14 17:19:25 2014)

 Preferred load address is 10000000

 Start         Length     Name                   Class
 0001:00000000 0012c24fH .text                   CODE
 0002:00000000 00000160H .idata$5                DATA
 0002:00000160 00000004H .CRT$XCA                DATA
 0002:00000164 00000004H .CRT$XCZ                DATA
 0002:00000168 00000004H .CRT$XIA                DATA
 0002:0000016c 00000014H .CRT$XIC                DATA
 0002:00000180 00000004H .CRT$XIZ                DATA
 0002:00000184 00000004H .CRT$XPA                DATA
 0002:00000188 00000008H .CRT$XPX                DATA
 0002:00000190 00000004H .CRT$XPXA               DATA
 0002:00000194 00000004H .CRT$XPZ                DATA
 0002:00000198 00000004H .CRT$XTA                DATA
 0002:0000019c 00000004H .CRT$XTZ                DATA
 0002:000001a0 00030f88H .rdata                  DATA
 0002:00031128 00000050H .rdata$debug            DATA
 0002:00031180 0000000cH .rdata$sxdata           DATA
 0002:0003118c 00000004H .rtc$IAA                DATA
 0002:00031190 00000004H .rtc$IZZ                DATA
 0002:00031194 00000004H .rtc$TAA                DATA
 0002:00031198 00000004H .rtc$TZZ                DATA
 0002:000311a0 00000664H .xdata$x                DATA
 0002:00031804 00000028H .idata$2                DATA
 0002:0003182c 00000014H .idata$3                DATA
 0002:00031840 00000160H .idata$4                DATA
 0002:000319a0 00000606H .idata$6                DATA
 0002:00031fb0 00000fe3H .edata                  DATA
 0003:00000000 0000b6f0H .data                   DATA
 0003:0000b700 000baf00H .bss                    DATA

  Address         Publics by Value              Rva+Base       Lib:Object

 0000:00000000       __except_list              00000000     <absolute>
 0000:00000003       ___safe_se_handler_count   00000003     <absolute>
 0000:00000000       ___ImageBase               10000000     <linker-defined>
 0001:00000000       _ialloc@4                  10001000 f   il_alloc.obj
 0001:00000060       _ifree@4                   10001060 f   il_alloc.obj
 0001:00000080       _icalloc@8                 10001080 f   il_alloc.obj
 0001:00000130       _ilResetMemory@0           10001130 f   il_alloc.obj
 0001:00000150       _ilSetMemory@8             10001150 f   il_alloc.obj
 0001:00000190       ?bfile@@YAPAUBITFILE@@PAX@Z 10001190 f   il_bits.obj
 0001:000001e0       ?bread@@YAHPAXIIPAUBITFILE@@@Z 100011e0 f   il_bits.obj
 0001:00000250       ?iCheckBmp@@YAEQBUBMPHEAD@@@Z 10001250 f   il_bmp.obj
 0001:000002d0       ?iCheckOS2@@YAEQBUOS2_HEAD@@@Z 100012d0 f   il_bmp.obj
 0001:00000320       _iIsValidBmp               10001320 f   il_bmp.obj
 0001:00000400       ?iGetOS2Bmp@@YAEPAUILimage@@PAUOS2_HEAD@@@Z 10001400 f   il_bmp.obj
 0001:00000790       ?ilReadUncompBmp1@@YAEPAUILimage@@PAUBMPHEAD@@@Z 10001790 f   il_bmp.obj
 0001:000008f0       ?ilReadUncompBmp4@@YAEPAUILimage@@PAUBMPHEAD@@@Z 100018f0 f   il_bmp.obj
 0001:00000a60       ?ilReadUncompBmp8@@YAEPAUILimage@@PAUBMPHEAD@@@Z 10001a60 f   il_bmp.obj
 0001:00000ba0       ?ilReadUncompBmp16@@YAEPAUILimage@@PAUBMPHEAD@@@Z 10001ba0 f   il_bmp.obj
 0001:00000df0       ?ilReadUncompBmp24@@YAEPAUILimage@@PAUBMPHEAD@@@Z 10001df0 f   il_bmp.obj
 0001:00000ed0       ?ilReadUncompBmp32@@YAEPAUILimage@@PAUBMPHEAD@@@Z 10001ed0 f   il_bmp.obj
 0001:00000f80       ?ilReadUncompBmp@@YAEPAUILimage@@PAUBMPHEAD@@@Z 10001f80 f   il_bmp.obj
 0001:00001080       ?ilReadRLE8Bmp@@YAEPAUILimage@@PAUBMPHEAD@@@Z 10002080 f   il_bmp.obj
 0001:00001290       ?ilReadRLE4Bmp@@YAEPAUILimage@@PAUBMPHEAD@@@Z 10002290 f   il_bmp.obj
 0001:000014f0       _iLoadBitmapInternal       100024f0 f   il_bmp.obj
 0001:000016b0       _iSaveBitmapInternal       100026b0 f   il_bmp.obj
 0001:00001c40       ?ilFloatToHalf@@YGGI@Z     10002c40 f i il_convbuff.obj
 0001:00001ce0       ?ilHalfToFloat@@YGIG@Z     10002ce0 f i il_convbuff.obj
 0001:00001ce0       ?halfToFloat@@YAIG@Z       10002ce0 f i il_dds.obj
 0001:00001d80       _ilConvertBuffer@28        10002d80 f   il_convbuff.obj
 0001:00006a30       ?iSwitchTypes@@YGPAXIIIPAX@Z 10007a30 f   il_convbuff.obj
 0001:00007d10       ?iConvertPalette@@YAPAUILimage@@PAU1@I@Z 10008d10 f   il_convert.obj
 0001:00008510       _iConvertImage@12          10009510 f   il_convert.obj
 0001:000087e0       _ilConvertImage@8          100097e0 f   il_convert.obj
 0001:00008950       _ilSwapColours             10009950 f   il_convert.obj
 0001:00008bf0       _ilKeyColour@16            10009bf0 f   il_convert.obj
 0001:00008c00       _ilAddAlphaKey             10009c00 f   il_convert.obj
 0001:00009190       _ilFixCur                  1000a190 f   il_convert.obj
 0001:000092c0       _ilFixImage                1000a2c0 f   il_convert.obj
 0001:00009490       ?readScanLine@@YA_NPAUILimage@@PAEGH@Z 1000a490 f   il_cut.obj
 0001:00009580       _iLoadCutInternal          1000a580 f   il_cut.obj
 0001:00009700       _GetLittleUShort           1000a700 f i il_dcx.obj
 0001:00009720       ?GetCubemapInfo@@YAIPAUILimage@@PAH@Z 1000a720 f   il_dds-save.obj
 0001:000098b0       _iSaveDdsInternal          1000a8b0 f   il_dds-save.obj
 0001:00009a30       ?WriteHeader@@YAEPAUILimage@@II@Z 1000aa30 f   il_dds-save.obj
 0001:00009ed0       _ilGetDXTCData@12          1000aed0 f   il_dds-save.obj
 0001:0000a010       ?As16Bit@@YAGHHH@Z         1000b010 f   il_dds-save.obj
 0001:0000a070       ?CompressTo565@@YAPAGPAUILimage@@@Z 1000b070 f   il_dds-save.obj
 0001:0000a500       ?CompressTo88@@YAPAEPAUILimage@@@Z 1000b500 f   il_dds-save.obj
 0001:0000a830       ?CompressToRXGB@@YAXPAUILimage@@PAPAGPAPAE@Z 1000b830 f   il_dds-save.obj
 0001:0000ad10       ?Compress@@YAIPAUILimage@@I@Z 1000bd10 f   il_dds-save.obj
 0001:0000b860       ?GetBlock@@YAEPAG0PAUILimage@@II@Z 1000c860 f   il_dds-save.obj
 0001:0000b910       ?GetAlphaBlock@@YAEPAE0PAUILimage@@II@Z 1000c910 f   il_dds-save.obj
 0001:0000b9b0       ?Get3DcBlock@@YAEPAE0PAUILimage@@IIH@Z 1000c9b0 f   il_dds-save.obj
 0001:0000ba40       ?GenBitMask@@YAIGGIPAGPAEPAUColor888@@@Z 1000ca40 f   il_dds-save.obj
 0001:0000bca0       ?GenAlphaBitMask@@YAXEEPAE00@Z 1000cca0 f   il_dds-save.obj
 0001:0000bf00       ?ChooseEndpoints@@YAXPAG00@Z 1000cf00 f   il_dds-save.obj
 0001:0000c010       ?ChooseAlphaEndpoints@@YAXPAE00@Z 1000d010 f   il_dds-save.obj
 0001:0000c080       _ilCompressDXT@24          1000d080 f   il_dds-save.obj
 0001:0000c1e0       _GetLittleUInt             1000d1e0 f i il_dds.obj
 0001:0000c200       ?iGetDdsHead@@YAEPAUSIO@@PAUDDSHEAD@@@Z 1000d200 f   il_dds.obj
 0001:0000c440       _iIsValidDds               1000d440 f   il_dds.obj
 0001:0000c4d0       ?Check16BitComponents@@YAXPAUDDSHEAD@@@Z 1000d4d0 f   il_dds.obj
 0001:0000c530       ?iCompFormatToBpp@@YAEI@Z  1000d530 f   il_dds.obj
 0001:0000c580       ?iCompFormatToChannelCount@@YAEI@Z 1000d580 f   il_dds.obj
 0001:0000c5c0       ?iLoadDdsCubemapInternal@@YAEPAUILimage@@I@Z 1000d5c0 f   il_dds.obj
 0001:0000c7f0       ?DecodePixelFormat@@YAIPAI@Z 1000d7f0 f   il_dds.obj
 0001:0000ca60       _iLoadDdsInternal          1000da60 f   il_dds.obj
 0001:0000cc50       ?AdjustVolumeTexture@@YAXPAUDDSHEAD@@I@Z 1000dc50 f   il_dds.obj
 0001:0000cd70       ?ReadData@@YAEXZ           1000dd70 f   il_dds.obj
 0001:0000ced0       ?AllocImage@@YAEPAUILimage@@I@Z 1000ded0 f   il_dds.obj
 0001:0000d200       ?DdsDecompress@@YAEI@Z     1000e200 f   il_dds.obj
 0001:0000d320       ?ReadMipmaps@@YAEI@Z       1000e320 f   il_dds.obj
 0001:0000d8d0       ?DxtcReadColors@@YAXPBEPAUColor8888@@@Z 1000e8d0 f   il_dds.obj
 0001:0000d990       ?DecompressDXT1@@YAEPAUILimage@@PAE@Z 1000e990 f   il_dds.obj
 0001:0000ddd0       ?DecompressDXT3@@YAEPAUILimage@@PAE@Z 1000edd0 f   il_dds.obj
 0001:0000e240       ?DecompressDXT5@@YAEPAUILimage@@PAE@Z 1000f240 f   il_dds.obj
 0001:0000eb10       ?Decompress3Dc@@YAEXZ      1000fb10 f   il_dds.obj
 0001:0000ef90       ?DecompressAti1n@@YAEXZ    1000ff90 f   il_dds.obj
 0001:0000f2f0       ?DecompressRXGB@@YAEXZ     100102f0 f   il_dds.obj
 0001:0000fc60       ?iConvFloat16ToFloat32@@YAEPAIPAGI@Z 10010c60 f   il_dds.obj
 0001:0000fd00       ?iConvG16R16ToFloat32@@YAEPAIPAGI@Z 10010d00 f   il_dds.obj
 0001:0000fdb0       ?iConvR16ToFloat32@@YAEPAIPAGI@Z 10010db0 f   il_dds.obj
 0001:0000fe60       ?DecompressFloat@@YAEI@Z   10010e60 f   il_dds.obj
 0001:0000ffb0       ?CorrectPreMult@@YAXXZ     10010fb0 f   il_dds.obj
 0001:00010020       ?DecompressARGB@@YAEI@Z    10011020 f   il_dds.obj
 0001:00010260       ?DecompressARGB16@@YAEI@Z  10011260 f   il_dds.obj
 0001:00010610       ?GetShiftFromMask@@YAXIQAI0@Z 10011610 f   il_bmp.obj
 0001:00010610       ?GetBitsFromMask@@YAXIPAI0@Z 10011610 f   il_dds.obj
 0001:00010650       ?iDxtcDataToSurface@@YGEPAUILimage@@@Z 10011650 f   il_dds.obj
 0001:000107a0       ?iDxtcDataToImage@@YGEPAUILimage@@@Z 100117a0 f   il_dds.obj
 0001:00010860       ?iSurfaceToDxtcData@@YGEPAUILimage@@I@Z 10011860 f   il_dds.obj
 0001:00010940       _ilImageToDxtcData@4       10011940 f   il_dds.obj
 0001:00010a10       ?ilTexImageDxtc@@YGEPAUILimage@@HHHIPBE@Z 10011a10 f   il_dds.obj
 0001:00010b70       ?iFlipComplexAlphaBlock@@YAXPAE@Z 10011b70 f   il_dds.obj
 0001:00010c50       ?iFlipDxt1@@YAXPAEI@Z      10011c50 f   il_dds.obj
 0001:00010c90       ?iFlipDxt3@@YAXPAEI@Z      10011c90 f   il_dds.obj
 0001:00010cf0       ?iFlipDxt5@@YAXPAEI@Z      10011cf0 f   il_dds.obj
 0001:00010d30       ?iFlip3dc@@YAXPAEI@Z       10011d30 f   il_dds.obj
 0001:00010e40       ?ilFlipSurfaceDxtcData@@YGXPAUILimage@@@Z 10011e40 f   il_dds.obj
 0001:00011010       ?iInvertDxt3Alpha@@YAXPAE@Z 10012010 f   il_dds.obj
 0001:00011060       ?iInvertDxt5Alpha@@YAXPAE@Z 10012060 f   il_dds.obj
 0001:00011130       ?ilInvertSurfaceDxtcDataAlpha@@YGEPAUILimage@@@Z 10012130 f   il_dds.obj
 0001:000111f0       _ilInitImage@32            100121f0 f   il_devil.obj
 0001:00011260       _ilNewImage@20             10012260 f   il_devil.obj
 0001:000112e0       _ilNewImageFull@28         100122e0 f   il_devil.obj
 0001:00011350       _ilTexImage@28             10012350 f   il_devil.obj
 0001:00011380       _ilTexImage_@32            10012380 f   il_devil.obj
 0001:00011550       _ilSetData@4               10012550 f   il_devil.obj
 0001:000115b0       _ilTexSubImage_@8          100125b0 f   il_devil.obj
 0001:00011630       _ilGetData@0               10012630 f   il_devil.obj
 0001:00011680       _ilGetPalette@0            10012680 f   il_devil.obj
 0001:000116d0       _ilClearColour@16          100126d0 f   il_devil.obj
 0001:00011860       _ilGetClear@12             10012860 f   il_devil.obj
 0001:00012580       _ilClearImage@0            10013580 f   il_devil.obj
 0001:000125d0       _ilClearImage_@4           100135d0 f   il_devil.obj
 0001:00012840       _ilOverlayImage@16         10013840 f   il_devil.obj
 0001:000128c0       _ilBlit@40                 100138c0 f   il_devil.obj
 0001:00012e60       _ilCopyImageAttr@8         10013e60 f   il_devil.obj
 0001:00013060       _ilCopyImage@4             10014060 f   il_devil.obj
 0001:00013130       _ilCopyImage_@4            10014130 f   il_devil.obj
 0001:000131d0       _ilCloneCurImage@0         100141d0 f   il_devil.obj
 0001:00013280       _ilResizeImage@24          10014280 f   il_devil.obj
 0001:00013330       _iSwapUInt                 10014330 f i il_dicom.obj
 0001:00013360       ?iGetDicomHead@@YAEPAUSIO@@PAUDICOMHEAD@@@Z 10014360 f   il_dicom.obj
 0001:00013650       ?iCheckDicom@@YAEPAUDICOMHEAD@@@Z 10014650 f   il_dicom.obj
 0001:000136a0       _iIsValidDicom             100146a0 f   il_dicom.obj
 0001:00013760       ?SkipElement@@YAEPAUDICOMHEAD@@GG@Z 10014760 f   il_dicom.obj
 0001:00013820       ?GetShort@@YAIPAUDICOMHEAD@@G@Z 10014820 f   il_dicom.obj
 0001:00013880       ?GetInt@@YAIPAUDICOMHEAD@@G@Z 10014880 f   il_dicom.obj
 0001:000138f0       ?GetFloat@@YAMPAUDICOMHEAD@@G@Z 100148f0 f   il_dicom.obj
 0001:00013930       ?GetNumericValue@@YAEPAUDICOMHEAD@@GPAI@Z 10014930 f   il_dicom.obj
 0001:000139c0       ?GetUID@@YAEPAE@Z          100149c0 f   il_dicom.obj
 0001:00013a50       _iLoadDicomInternal        10014a50 f   il_dicom.obj
 0001:00013cd0       _GetBigUShort              10014cd0 f i il_dpx.obj
 0001:00013cd0       _GetBigShort               10014cd0 f i il_fits.obj
 0001:00013d00       ?DpxGetFileInfo@@YAEPAUDPX_FILE_INFO@@@Z 10014d00 f   il_dpx.obj
 0001:00014030       ?GetImageElement@@YAEPAUDPX_IMAGE_ELEMENT@@@Z 10015030 f   il_dpx.obj
 0001:00014300       ?DpxGetImageInfo@@YAEPAUDPX_IMAGE_INFO@@@Z 10015300 f   il_dpx.obj
 0001:00014430       ?DpxGetImageOrient@@YAEPAUDPX_IMAGE_ORIENT@@@Z 10015430 f   il_dpx.obj
 0001:00014790       _iLoadDpxInternal          10015790 f   il_dpx.obj
 0001:00014c50       _ilSetError@4              10015c50 f   il_error.obj
 0001:00014ca0       _ilGetError@0              10015ca0 f   il_error.obj
 0001:00014cc0       _iFastConvert              10015cc0 f   il_fastconv.obj
 0001:000150d0       ?iDefaultOpenR@@YGPAXPB_W@Z 100160d0 f   il_files.obj
 0001:000150f0       ?iDefaultCloseR@@YGXPAX@Z  100160f0 f   il_files.obj
 0001:000150f0       ?iDefaultCloseW@@YGXPAX@Z  100160f0 f   il_files.obj
 0001:00015110       ?iDefaultEof@@YGEPAX@Z     10016110 f   il_files.obj
 0001:00015190       _iDefaultGetc@4            10016190 f   il_files.obj
 0001:000151d0       ?iDefaultRead@@YGIPAX0II@Z 100161d0 f   il_files.obj
 0001:000151f0       ?iDefaultSeek@@YGHPAX_JI@Z 100161f0 f   il_files.obj
 0001:00015210       ?iDefaultTell@@YGIPAX@Z    10016210 f   il_files.obj
 0001:00015230       ?iDefaultOpenW@@YGPAXPB_W@Z 10016230 f   il_files.obj
 0001:00015250       _iDefaultPutc@8            10016250 f   il_files.obj
 0001:00015270       _iDefaultWrite@16          10016270 f   il_files.obj
 0001:00015290       _ilResetRead@0             10016290 f   il_files.obj
 0001:00015300       _ilResetWrite@0            10016300 f   il_files.obj
 0001:00015360       _ilSetRead@28              10016360 f   il_files.obj
 0001:000153c0       _ilSetWrite@24             100163c0 f   il_files.obj
 0001:00015420       _iSetInputFile             10016420 f   il_files.obj
 0001:00015490       _iSetInputLump             10016490 f   il_files.obj
 0001:00015510       _iSetOutputFile            10016510 f   il_files.obj
 0001:00015570       _iSetOutputLump            10016570 f   il_files.obj
 0001:000155d0       _ilGetLumpPos@0            100165d0 f   il_files.obj
 0001:00015600       _ilprintf                  10016600 f   il_files.obj
 0001:00015670       _ipad                      10016670 f   il_files.obj
 0001:000156a0       ?iEofLump@@YGEPAX@Z        100166a0 f   il_files.obj
 0001:000156e0       ?iGetcLump@@YGHPAX@Z       100166e0 f   il_files.obj
 0001:00015770       ?iReadLump@@YGIPAX0II@Z    10016770 f   il_files.obj
 0001:00015870       ?iSeekLump@@YGHPAX_JI@Z    10016870 f   il_files.obj
 0001:00015980       ?iPutcLump@@YGHEPAX@Z      10016980 f   il_files.obj
 0001:000159e0       ?iWriteLump@@YGHPBXIIPAX@Z 100169e0 f   il_files.obj
 0001:00015ab0       ?iTellLump@@YGIPAX@Z       10016ab0 f   il_files.obj
 0001:00015ac0       _GetBigUInt                10016ac0 f i il_dpx.obj
 0001:00015ac0       _GetBigInt                 10016ac0 f i il_fits.obj
 0001:00015b00       _GetBigFloat               10016b00 f i il_fits.obj
 0001:00015b50       _GetBigDouble              10016b50 f i il_fits.obj
 0001:00015b90       ?iGetFitsHead@@YAEPAUFITSHEAD@@@Z 10016b90 f   il_fits.obj
 0001:00015d30       ?iCheckFits@@YAEPAUFITSHEAD@@@Z 10016d30 f   il_fits.obj
 0001:00015de0       _iLoadFitsInternal         10016de0 f   il_fits.obj
 0001:000161a0       ?GetCardImage@@YAIPAUFITSHEAD@@@Z 100171a0 f   il_fits.obj
 0001:00016440       ?GetCardInt@@YAEPADPAH@Z   10017440 f   il_fits.obj
 0001:00016500       ?setMinSizes@@YAEIIPAUILimage@@@Z 10017500 f   il_gif.obj
 0001:00016650       _iIsValidGif               10017650 f   il_gif.obj
 0001:00016700       ?iGetPalette@@YAEEPAUILpal@@PAUILimage@@@Z 10017700 f   il_gif.obj
 0001:000167b0       ?get_next_code@@YAHPAVGifLoadState@@@Z 100177b0 f   il_gif.obj
 0001:00016920       ?GifGetData@@YAEPAUILimage@@PAEIIIIIIPAUGFXCONTROL@@@Z 10017920 f   il_gif.obj
 0001:00016d70       ?GetImages@@YAEPAUILimage@@PAUILpal@@PAUGIFHEAD@@@Z 10017d70 f   il_gif.obj
 0001:00017200       _iLoadGifInternal          10018200 f   il_gif.obj
 0001:00017360       ?SkipExtensions@@YAEPAUGFXCONTROL@@@Z 10018360 f   il_gif.obj
 0001:00017510       ?RemoveInterlace@@YAEPAUILimage@@@Z 10018510 f   il_gif.obj
 0001:000176b0       ?ConvertTransparent@@YAEPAUILimage@@E@Z 100186b0 f   il_gif.obj
 0001:00017780       ?strnstr@@YAPBDPBD0I@Z     10018780 f   il_hdr.obj
 0001:000177c0       _iIsValidHdr               100187c0 f   il_hdr.obj
 0001:00017850       ?ReadScanline@@YAXPAUILimage@@PAEI@Z 10018850 f   il_hdr.obj
 0001:00017a40       _iLoadHdrInternal          10018a40 f   il_hdr.obj
 0001:00017ed0       ?RGBE_WriteHeader@@YAEIIPAUrgbe_header_info@@@Z 10018ed0 f   il_hdr.obj
 0001:00017f60       ?RGBE_WritePixels@@YAHPAUILimage@@PAMH@Z 10018f60 f   il_hdr.obj
 0001:000180e0       ?RGBE_WriteBytes_RLE@@YAEPAUILimage@@PAEI@Z 100190e0 f   il_hdr.obj
 0001:00018240       _iSaveHdrInternal          10019240 f   il_hdr.obj
 0001:00018630       _ilSaveCHeader             10019630 f   il_header.obj
 0001:00018910       _iIsValidIcns              10019910 f   il_icns.obj
 0001:00018990       _iLoadIcnsInternal         10019990 f   il_icns.obj
 0001:00018d30       ?iIcnsReadData@@YAEPAUILimage@@PAEEHPAUICNSDATA@@PAPAU1@@Z 10019d30 f   il_icns.obj
 0001:000190f0       _iIsValidIcon              1001a0f0 f   il_icon.obj
 0001:000191c0       _iLoadIconInternal         1001a1c0 f   il_icon.obj
 0001:0001a090       ?ico_readpng_init@@YAHPAUIconData@@@Z 1001b090 f   il_icon.obj
 0001:0001a1a0       ?ico_readpng_get_image@@YAEPAUIconData@@PAUICOIMAGE@@N@Z 1001b1a0 f   il_icon.obj
 0001:0001a5b0       _iLoadIffInternal          1001b5b0 f   il_iff.obj
 0001:0001aba0       ?iff_begin_read_chunk@@YA?AU_iff_chunk@@XZ 1001bba0 f   il_iff.obj
 0001:0001ad80       ?iff_end_read_chunk@@YAXXZ 1001bd80 f   il_iff.obj
 0001:0001ade0       ?iff_read_data@@YAPADH@Z   1001bde0 f   il_iff.obj
 0001:0001ae60       ?iffReadUncompressedTile@@YAPADGGC@Z 1001be60 f   il_iff.obj
 0001:0001af30       ?iff_decompress_tile_rle@@YAPADGGGPADI@Z 1001bf30 f   il_iff.obj
 0001:0001b0b0       ?iff_decompress_rle@@YAPADIPADIPAI@Z 1001c0b0 f   il_iff.obj
 0001:0001b1a0       _iLoadIlbmInternal         1001c1a0 f   il_ilbm.obj
 0001:0001be20       _ilStrDup                  1001ce20 f   il_internal.obj
 0001:0001beb0       _ilStrLen                  1001ceb0 f   il_internal.obj
 0001:0001bed0       _ilCharStrLen              1001ced0 f   il_internal.obj
 0001:0001bef0       _iCheckExtension           1001cef0 f   il_internal.obj
 0001:0001bf60       _iGetExtension             1001cf60 f   il_internal.obj
 0001:0001bfa0       _iFgets                    1001cfa0 f   il_internal.obj
 0001:0001c010       _iSqrt                     1001d010 f   il_internal.obj
 0001:0001c130       _ilDxtcDataToSurface@0     1001d130 f   il_internal.obj
 0001:0001c140       _ilSurfaceToDxtcData@4     1001d140 f   il_internal.obj
 0001:0001c160       _ilTypeFromExt@4           1001d160 f   il_io.obj
 0001:0001c9d0       _ilDetermineType@4         1001d9d0 f   il_io.obj
 0001:0001ca40       _ilDetermineTypeFuncs@0    1001da40 f   il_io.obj
 0001:0001d280       _ilDetermineTypeF@4        1001e280 f   il_io.obj
 0001:0001d2a0       _ilDetermineTypeL@8        1001e2a0 f   il_io.obj
 0001:0001d2c0       ?iIsValid@@YGEIPAUSIO@@@Z  1001e2c0 f   il_io.obj
 0001:0001d510       _ilIsValid@8               1001e510 f   il_io.obj
 0001:0001d560       _ilIsValidF@8              1001e560 f   il_io.obj
 0001:0001d590       _ilIsValidL@12             1001e590 f   il_io.obj
 0001:0001d5c0       _ilLoad@8                  1001e5c0 f   il_io.obj
 0001:0001d770       _ilLoadF@8                 1001e770 f   il_io.obj
 0001:0001d800       ?ilLoadFuncs2@@YGEPAUILimage@@I@Z 1001e800 f   il_io.obj
 0001:0001da10       _ilLoadFuncs@4             1001ea10 f   il_io.obj
 0001:0001da30       _ilLoadL@12                1001ea30 f   il_io.obj
 0001:0001dab0       _ilLoadImage@4             1001eab0 f   il_io.obj
 0001:0001db10       ?ilSaveFuncs2@@YGEPAUILimage@@I@Z 1001eb10 f   il_io.obj
 0001:0001dc80       _ilSaveFuncs@4             1001ec80 f   il_io.obj
 0001:0001dc90       _ilSave@8                  1001ec90 f   il_io.obj
 0001:0001dd70       _ilSaveImage@4             1001ed70 f   il_io.obj
 0001:0001de60       _ilSaveF@8                 1001ee60 f   il_io.obj
 0001:0001de80       _ilSaveL@12                1001ee80 f   il_io.obj
 0001:0001df00       _iIsValidJp2               1001ef00 f   il_jp2.obj
 0001:0001df70       _ilLoadJp2LInternal        1001ef70 f   il_jp2.obj
 0001:0001e020       ?iLoadJp2Internal@@YAEPAUILimage@@PAUjas_stream_t@@@Z 1001f020 f   il_jp2.obj
 0001:0001e420       ?iJp2WriteStream@@YAPAUjas_stream_t@@XZ 1001f420 f   il_jp2.obj
 0001:0001e4f0       ?Jp2ConvertData@@YAHPAUjas_stream_t@@PAUjas_image_t@@@Z 1001f4f0 f   il_jp2.obj
 0001:0001e7e0       _iSaveJp2Internal          1001f7e0 f   il_jp2.obj
 0001:0001eb80       _iIsValidJpeg              1001fb80 f   il_jpeg.obj
 0001:0001ed00       ?devil_jpeg_read_init@@YAXPAUjpeg_decompress_struct@@@Z 1001fd00 f   il_jpeg.obj
 0001:0001ede0       _iLoadJpegInternal         1001fde0 f   il_jpeg.obj
 0001:0001efe0       _iSaveJpegInternal         1001ffe0 f   il_jpeg.obj
 0001:0001f350       ?ilLoadFromJpegStruct@@YAEPAUILimage@@PAX@Z 10020350 f   il_jpeg.obj
 0001:0001f410       _DllMain@12                10020410 f   il_main.obj
 0001:0001f420       _iFlipBuffer@16            10020420 f   il_manip.obj
 0001:0001f570       _iFlipNewBuffer            10020570 f   il_manip.obj
 0001:0001f630       ?ilFlipImage@@YAEXZ        10020630 f   il_manip.obj
 0001:0001f6b0       _iGetFlipped@4             100206b0 f   il_manip.obj
 0001:0001f720       _iMirror@0                 10020720 f   il_manip.obj
 0001:0001fa00       ?ilCopyPixels1D@@YAEIIPAX@Z 10020a00 f   il_manip.obj
 0001:0001faf0       ?ilCopyPixels2D@@YAEIIIIPAX@Z 10020af0 f   il_manip.obj
 0001:0001fc30       ?ilCopyPixels3D@@YAEIIIIIIPAX@Z 10020c30 f   il_manip.obj
 0001:0001fdd0       _ilCopyPixels@36           10020dd0 f   il_manip.obj
 0001:00020000       ?ilSetPixels1D@@YAEHIPAX@Z 10021000 f   il_manip.obj
 0001:000200f0       ?ilSetPixels2D@@YAEHHIIPAX@Z 100210f0 f   il_manip.obj
 0001:00020280       ?ilSetPixels3D@@YAEHHHIIIPAX@Z 10021280 f   il_manip.obj
 0001:000204a0       _ilSetPixels@36            100214a0 f   il_manip.obj
 0001:000205d0       _ilDefaultImage@0          100215d0 f   il_manip.obj
 0001:00020760       _ilGetAlpha@4              10021760 f   il_manip.obj
 0001:000209e0       _ilSetAlpha@8              100219e0 f   il_manip.obj
 0001:00020cb0       _ilModAlpha@8              10021cb0 f   il_manip.obj
 0001:00020f10       _ilClampNTSC@0             10021f10 f   il_manip.obj
 0001:00021000       ?mymngalloc@@YAPAXI@Z      10022000 f   il_mng.obj
 0001:00021010       ?mymngfree@@YAXPAXI@Z      10022010 f   il_mng.obj
 0001:00021030       ?mymngsettimer@@YACPAUmng_data_struct@@I@Z 10022030 f   il_mng.obj
 0001:00021030       ?mymngopenstream@@YACPAUmng_data_struct@@@Z 10022030 f   il_mng.obj
 0001:00021030       ?mymngclosestream@@YACPAUmng_data_struct@@@Z 10022030 f   il_mng.obj
 0001:00021030       ?mymngrefresh@@YACPAUmng_data_struct@@IIII@Z 10022030 f   il_mng.obj
 0001:00021040       ?mymngreadstream@@YACPAUmng_data_struct@@PAXIPAI@Z 10022040 f   il_mng.obj
 0001:00021070       ?mymngprocessheader@@YACPAUmng_data_struct@@II@Z 10022070 f   il_mng.obj
 0001:00021130       ?mymnggetcanvasline@@YAPAXPAUmng_data_struct@@I@Z 10022130 f   il_mng.obj
 0001:00021150       _mng_fill_input_buffer     10022150 f   libmng:libmng_jpeg.obj
 0001:00021150       ?mymngerror@@YACPAUmng_data_struct@@HCHIHHPAD@Z 10022150 f   il_mng.obj
 0001:00021160       _iLoadMngInternal          10022160 f   il_mng.obj
 0001:00021240       _iSaveMngInternal          10022240 f   il_mng.obj
 0001:00021280       ?GetSynchInt@@YAIPAUSIO@@@Z 10022280 f   il_mp3.obj
 0001:000212f0       _iIsValidMp3               100222f0 f   il_mp3.obj
 0001:000213b0       ?iFindMp3Pic@@YAIPAUSIO@@PAUMP3HEAD@@@Z 100223b0 f   il_mp3.obj
 0001:000215d0       _iLoadMp3Internal          100225d0 f   il_mp3.obj
 0001:00021700       ?initnet@@YAXPAEHH@Z       10022700 f   il_neuquant.obj
 0001:00021780       ?unbiasnet@@YAXXZ          10022780 f   il_neuquant.obj
 0001:000217c0       ?inxbuild@@YAXXZ           100227c0 f   il_neuquant.obj
 0001:000218f0       ?contest@@YAHHHH@Z         100228f0 f   il_neuquant.obj
 0001:000219c0       ?alterneigh@@YAXHHHHH@Z    100229c0 f   il_neuquant.obj
 0001:00021b20       ?learn@@YAXXZ              10022b20 f   il_neuquant.obj
 0001:00021d90       ?iNeuQuant@@YAPAUILimage@@PAU1@I@Z 10022d90 f   il_neuquant.obj
 0001:00022040       _ilNVidiaCompressDXT@24    10023040 f   il_nvidia.obj
 0001:00022040       _ilSquishCompressDXT@24    10023040 f   il_squish.obj
 0001:00022050       _ilLoadPal@4               10023050 f   il_pal.obj
 0001:000221e0       ?ilLoadJascPal@@YAEPB_W@Z  100231e0 f   il_pal.obj
 0001:00022430       ?iFgetw@@YAPADPAEHPAU_iobuf@@@Z 10023430 f   il_pal.obj
 0001:00022530       _ilSavePal@4               10023530 f   il_pal.obj
 0001:00022680       ?ilSaveJascPal@@YAEPB_W@Z  10023680 f   il_pal.obj
 0001:000228e0       ?ilLoadHaloPal@@YAEPB_W@Z  100238e0 f   il_pal.obj
 0001:00022b20       ?ilLoadColPal@@YAEPB_W@Z   10023b20 f   il_pal.obj
 0001:00022db0       ?ilLoadActPal@@YAEPB_W@Z   10023db0 f   il_pal.obj
 0001:00022ee0       ?ilLoadPltPal@@YAEPB_W@Z   10023ee0 f   il_pal.obj
 0001:00023060       _iCopyPalette              10024060 f   il_pal.obj
 0001:000230a0       _iCopyPal@0                100240a0 f   il_pal.obj
 0001:00023130       _iConvertPal@8             10024130 f   il_pal.obj
 0001:00023940       _ilConvertPal@4            10024940 f   il_pal.obj
 0001:00023a30       _ilSetPal@4                10024a30 f   il_pal.obj
 0001:00023ac0       _ilApplyPal@4              10024ac0 f   il_pal.obj
 0001:00023b10       ?YCbCr2RGB@@YAXEEEPAE00@Z  10024b10 f   il_pcd.obj
 0001:00023bf0       _iLoadPcdInternal          10024bf0 f   il_pcd.obj
 0001:00023fc0       _iIsValidPcx               10024fc0 f   il_pcx.obj
 0001:00024060       _iLoadPcxInternal          10025060 f   il_pcx.obj
 0001:00024170       ?iUncompressPcx@@YAEPAUILimage@@PAUPCXHEAD@@@Z 10025170 f   il_pcx.obj
 0001:00024480       ?iUncompressSmall@@YAEPAUILimage@@PAUPCXHEAD@@@Z 10025480 f   il_pcx.obj
 0001:00024870       ?encLine@@YAIPAUSIO@@PAEHE@Z 10025870 f   il_pcx.obj
 0001:00024a10       _iSavePcxInternal          10025a10 f   il_pcx.obj
 0001:00024f00       ?iGetPicHead@@YAHPAUSIO@@PAUPIC_HEAD@@@Z 10025f00 f   il_pic.obj
 0001:00024fc0       _iIsValidPic               10025fc0 f   il_pic.obj
 0001:00025040       ?channelReadMixed@@YAEPAUSIO@@PAEHHPAHH@Z 10026040 f   il_pic.obj
 0001:00025200       ?channelReadRaw@@YAEPAUSIO@@PAEHHPAHH@Z 10026200 f   il_pic.obj
 0001:00025270       ?channelReadPure@@YAEPAUSIO@@PAEHHPAHH@Z 10026270 f   il_pic.obj
 0001:00025340       ?readScanline@@YAIPAUSIO@@PAEHPAUCHANNEL@@H@Z 10026340 f   il_pic.obj
 0001:00025450       ?readScanlines@@YAEPAUSIO@@PAIHHPAUCHANNEL@@I@Z 10026450 f   il_pic.obj
 0001:000254f0       _iLoadPicInternal          100264f0 f   il_pic.obj
 0001:000257c0       _iIsValidPix               100267c0 f   il_pix.obj
 0001:00025870       _iLoadPixInternal          10026870 f   il_pix.obj
 0001:00025a20       _iIsValidPng               10026a20 f   il_png.obj
 0001:00025a80       _iLoadPngInternal          10026a80 f   il_png.obj
 0001:00025b90       ?readpng_init@@YAHPAUPNGData@@@Z 10026b90 f   il_png.obj
 0001:00025cc0       ?readpng_get_image@@YAEPAUILimage@@PAUPNGData@@N@Z 10026cc0 f   il_png.obj
 0001:00026110       ?readpng_cleanup@@YAXPAUPNGData@@@Z 10027110 f   il_png.obj
 0001:00026160       _iSavePngInternal          10027160 f   il_png.obj
 0001:000266b0       _iIsValidPnm               100276b0 f   il_pnm.obj
 0001:00026720       _iLoadPnmInternal          10027720 f   il_pnm.obj
 0001:000269c0       ?ilReadAsciiPpm@@YAPAUILimage@@PAUPPMINFO@@@Z 100279c0 f   il_pnm.obj
 0001:00026b80       ?ilReadBinaryPpm@@YAPAUILimage@@PAUPPMINFO@@@Z 10027b80 f   il_pnm.obj
 0001:00026c00       ?ilReadBitPbm@@YAPAUILimage@@PAUPPMINFO@@@Z 10027c00 f   il_pnm.obj
 0001:00026cc0       ?iGetWord@@YAEE@Z          10027cc0 f   il_pnm.obj
 0001:00026e30       _iSavePnmInternal          10027e30 f   il_pnm.obj
 0001:000273f0       _ilApplyProfile@8          100283f0 f   il_profiles.obj
 0001:000276c0       _SaveBigShort              100286c0 f i il_psd.obj
 0001:000276f0       _SaveBigInt                100286f0 f i il_psd.obj
 0001:00027740       ?iGetPsdHead@@YAEPAUPSDHEAD@@@Z 10028740 f   il_psd.obj
 0001:000278d0       _iIsValidPsd               100288d0 f   il_psd.obj
 0001:00027920       ?iCheckPsd@@YAEPAUPSDHEAD@@@Z 10028920 f   il_psd.obj
 0001:00027980       _iLoadPsdInternal          10028980 f   il_psd.obj
 0001:00027a40       ?ReadPsd@@YAEPAUILimage@@PAUPSDHEAD@@@Z 10028a40 f   il_psd.obj
 0001:00027ae0       ?ReadGrey@@YAEPAUILimage@@PAUPSDHEAD@@@Z 10028ae0 f   il_psd.obj
 0001:00027d40       ?ReadIndexed@@YAEPAUILimage@@PAUPSDHEAD@@@Z 10028d40 f   il_psd.obj
 0001:00028000       ?ReadRGB@@YAEPAUILimage@@PAUPSDHEAD@@@Z 10029000 f   il_psd.obj
 0001:00028280       ?ReadCMYK@@YAEPAUILimage@@PAUPSDHEAD@@@Z 10029280 f   il_psd.obj
 0001:00028650       ?GetCompChanLen@@YAPAIPAUPSDHEAD@@@Z 10029650 f   il_psd.obj
 0001:000288c0       ?PsdGetData@@YAEPAUILimage@@PAUPSDHEAD@@PAXE@Z 100298c0 f   il_psd.obj
 0001:00028f60       ?ParseResources@@YAEPAUILimage@@IPAE@Z 10029f60 f   il_psd.obj
 0001:000290e0       ?GetSingleChannel@@YAEPAUILimage@@PAUPSDHEAD@@PAEE@Z 1002a0e0 f   il_psd.obj
 0001:00029220       _iSavePsdInternal          1002a220 f   il_psd.obj
 0001:000296a0       ?iGetPspHead@@YAEXZ        1002a6a0 f   il_psp.obj
 0001:00029720       _iIsValidPsp               1002a720 f   il_psp.obj
 0001:00029780       _iLoadPspInternal          1002a780 f   il_psp.obj
 0001:00029850       ?ReadGenAttributes@@YAEXZ  1002a850 f   il_psp.obj
 0001:000299d0       ?ParseChunks@@YAEXZ        1002a9d0 f   il_psp.obj
 0001:00029b10       ?ReadLayerBlock@@YAEI@Z    1002ab10 f   il_psp.obj
 0001:00029db0       ?ReadAlphaBlock@@YAEI@Z    1002adb0 f   il_psp.obj
 0001:0002a040       ?GetChannel@@YAPAEXZ       1002b040 f   il_psp.obj
 0001:0002a2e0       ?UncompRLE@@YAEPAE0I@Z     1002b2e0 f   il_psp.obj
 0001:0002a340       ?ReadPalette@@YAEI@Z       1002b340 f   il_psp.obj
 0001:0002a460       ?AssembleImage@@YAEXZ      1002b460 f   il_psp.obj
 0001:0002a6e0       ?Cleanup@@YAEXZ            1002b6e0 f   il_psp.obj
 0001:0002a750       _iLoadPxrInternal          1002b750 f   il_pxr.obj
 0001:0002a890       ?Hist3d@@YAEPAE00PAH111PAM@Z 1002b890 f   il_quantizer.obj
 0001:0002ade0       ?M3d@@YAXPAH000PAM@Z       1002bde0 f   il_quantizer.obj
 0001:0002b350       ?Vol@@YAHPAUBox@@QAY1CB@CB@H@Z 1002c350 f   il_quantizer.obj
 0001:0002b3f0       ?Bottom@@YAHPAUBox@@EQAY1CB@CB@H@Z 1002c3f0 f   il_quantizer.obj
 0001:0002b520       ?Top@@YAHPAUBox@@EHQAY1CB@CB@H@Z 1002c520 f   il_quantizer.obj
 0001:0002b650       ?Var@@YAMPAUBox@@@Z        1002c650 f   il_quantizer.obj
 0001:0002b770       ?Maximize@@YAMPAUBox@@EHHPAHHHHH@Z 1002c770 f   il_quantizer.obj
 0001:0002b8d0       ?Cut@@YAHPAUBox@@0@Z       1002c8d0 f   il_quantizer.obj
 0001:0002ba70       ?Mark@@YAXPAUBox@@HPAE@Z   1002ca70 f   il_quantizer.obj
 0001:0002baf0       ?iQuantizeImage@@YAPAUILimage@@PAU1@I@Z 1002caf0 f   il_quantizer.obj
 0001:0002c370       _iLoadRawInternal          1002d370 f   il_raw.obj
 0001:0002c570       _iSaveRawInternal          1002d570 f   il_raw.obj
 0001:0002c680       _ilLoadData@20             1002d680 f   il_rawdata.obj
 0001:0002c750       _ilLoadDataF@20            1002d750 f   il_rawdata.obj
 0001:0002c7c0       _ilLoadDataL@24            1002d7c0 f   il_rawdata.obj
 0001:0002c7f0       ?iLoadDataInternal@@YAEIIIE@Z 1002d7f0 f   il_rawdata.obj
 0001:0002c8f0       _ilSaveData@4              1002d8f0 f   il_rawdata.obj
 0001:0002c990       _ilRegisterLoad@8          1002d990 f   il_register.obj
 0001:0002ca50       _ilRegisterSave@8          1002da50 f   il_register.obj
 0001:0002cb10       _ilRemoveLoad@4            1002db10 f   il_register.obj
 0001:0002cb80       _ilRemoveSave@4            1002db80 f   il_register.obj
 0001:0002cbf0       _ilRegisterOrigin@4        1002dbf0 f   il_register.obj
 0001:0002cc50       _ilRegisterFormat@4        1002dc50 f   il_register.obj
 0001:0002ccd0       _ilRegisterNumFaces@4      1002dcd0 f   il_register.obj
 0001:0002ce80       _ilRegisterMipNum@4        1002de80 f   il_register.obj
 0001:0002d030       _ilRegisterNumImages@4     1002e030 f   il_register.obj
 0001:0002d1e0       _ilRegisterType@4          1002e1e0 f   il_register.obj
 0001:0002d250       _ilRegisterPal@12          1002e250 f   il_register.obj
 0001:0002d310       _ilSetDuration@4           1002e310 f   il_register.obj
 0001:0002d370       ?CountDiffPixels@@YAHPAEII@Z 1002e370 f   il_rle.obj
 0001:0002d410       ?CountSamePixels@@YAHPAEII@Z 1002e410 f   il_rle.obj
 0001:0002d490       _ilRleCompress             1002e490 f   il_rle.obj
 0001:0002d770       ?iGetSgiHead@@YAHPAUiSgiHeader@@@Z 1002e770 f   il_sgi.obj
 0001:0002d880       _iIsValidSgi               1002e880 f   il_sgi.obj
 0001:0002d940       ?iCheckSgi@@YAEPAUiSgiHeader@@@Z 1002e940 f   il_sgi.obj
 0001:0002d980       _iLoadSgiInternal          1002e980 f   il_sgi.obj
 0001:0002da70       ?iReadRleSgi@@YAEPAUiSgiHeader@@@Z 1002ea70 f   il_sgi.obj
 0001:0002de00       ?iGetScanLine@@YAHPAEPAUiSgiHeader@@I@Z 1002ee00 f   il_sgi.obj
 0001:0002df40       ?iReadNonRleSgi@@YAEPAUiSgiHeader@@@Z 1002ef40 f   il_sgi.obj
 0001:0002dfc0       ?iNewSgi@@YAEPAUiSgiHeader@@@Z 1002efc0 f   il_sgi.obj
 0001:0002e080       ?DetermineSgiType@@YAII@Z  1002f080 f   il_sgi.obj
 0001:0002e0a0       _iSaveSgiInternal          1002f0a0 f   il_sgi.obj
 0001:0002e7b0       ?iSaveRleSgi@@YAEPAEIIII@Z 1002f7b0 f   il_sgi.obj
 0001:0002ec00       ?iSizeSeek@@YGHPAX_JI@Z    1002fc00 f   il_size.obj
 0001:0002ecc0       ?iSizeTell@@YGIPAX@Z       1002fcc0 f   il_size.obj
 0001:0002ecd0       ?iSizePutc@@YGHEPAX@Z      1002fcd0 f   il_size.obj
 0001:0002ed20       ?iSizeWrite@@YGHPBXIIPAX@Z 1002fd20 f   il_size.obj
 0001:0002ed70       _ilDetermineSize@4         1002fd70 f   il_size.obj
 0001:0002ede0       _ilGenImages@8             1002fde0 f   il_stack.obj
 0001:0002ef90       _ilGenImage@0              1002ff90 f   il_stack.obj
 0001:0002efb0       _ilBindImage@4             1002ffb0 f   il_stack.obj
 0001:0002f0d0       _ilDeleteImages@8          100300d0 f   il_stack.obj
 0001:0002f170       _ilDeleteImage@4           10030170 f   il_stack.obj
 0001:0002f190       _ilIsImage@4               10030190 f   il_stack.obj
 0001:0002f1c0       _ilCloseImage@4            100301c0 f   il_stack.obj
 0001:0002f2b0       _ilIsValidPal@4            100302b0 f   il_stack.obj
 0001:0002f2e0       _ilClosePal@4              100302e0 f   il_stack.obj
 0001:0002f320       _ilActiveMipmap@4          10030320 f   il_stack.obj
 0001:0002f410       _ilActiveImage@4           10030410 f   il_stack.obj
 0001:0002f4d0       _ilActiveFace@4            100304d0 f   il_stack.obj
 0001:0002f590       _ilActiveLayer@4           10030590 f   il_stack.obj
 0001:0002f650       _ilCreateSubImage@8        10030650 f   il_stack.obj
 0001:0002f880       _ilGetCurName@0            10030880 f   il_stack.obj
 0001:0002f8b0       _ilGetCurImage@0           100308b0 f   il_stack.obj
 0001:0002f8c0       _ilSetCurImage@4           100308c0 f   il_stack.obj
 0001:0002f8d0       _ilReplaceCurImage@4       100308d0 f   il_stack.obj
 0001:0002f930       ?ilRecalloc@@YGPAXPAXII@Z  10030930 f   il_stack.obj
 0001:0002f9e0       ?iEnlargeStack@@YAEXZ      100309e0 f   il_stack.obj
 0001:0002fa20       _ilInit@0                  10030a20 f   il_stack.obj
 0001:0002fa90       _ilShutDown@0              10030a90 f   il_stack.obj
 0001:0002fb20       _iSetImage0                10030b20 f   il_stack.obj
 0001:0002fbe0       _iBindImageTemp@0          10030be0 f   il_stack.obj
 0001:0002fcb0       _ilDefaultStates           10030cb0 f   il_states.obj
 0001:0002fe20       _ilGetString@4             10030e20 f   il_states.obj
 0001:0002ff90       ?iClipString@@YAPADPADI@Z  10030f90 f   il_states.obj
 0001:0002ffe0       _ilEnable@4                10030fe0 f   il_states.obj
 0001:00030000       _ilDisable@4               10031000 f   il_states.obj
 0001:00030020       ?ilAble@@YAEIE@Z           10031020 f   il_states.obj
 0001:00030210       _ilIsEnabled@4             10031210 f   il_states.obj
 0001:00030410       _ilIsDisabled@4            10031410 f   il_states.obj
 0001:00030430       _ilGetBooleanv@8           10031430 f   il_states.obj
 0001:000304a0       _ilGetBoolean@4            100314a0 f   il_states.obj
 0001:000304c0       ?iGetActiveNum@@YAII@Z     100314c0 f   il_states.obj
 0001:000305d0       _ilGetIntegerv@8           100315d0 f   il_states.obj
 0001:00030ab0       _iGetIntegervImage@12      10031ab0 f   il_states.obj
 0001:00030dc0       _ilGetInteger@4            10031dc0 f   il_states.obj
 0001:00030df0       _ilOriginFunc@4            10031df0 f   il_states.obj
 0001:00030e60       _ilFormatFunc@4            10031e60 f   il_states.obj
 0001:00030ee0       _ilTypeFunc@4              10031ee0 f   il_states.obj
 0001:00030f50       _ilCompressFunc@4          10031f50 f   il_states.obj
 0001:00030fc0       _ilPushAttrib@4            10031fc0 f   il_states.obj
 0001:000313e0       _ilPopAttrib@0             100323e0 f   il_states.obj
 0001:00031440       _ilHint@8                  10032440 f   il_states.obj
 0001:000314d0       _ilSetString@8             100324d0 f   il_states.obj
 0001:000317d0       _ilSetInteger@8            100327d0 f   il_states.obj
 0001:00031c30       _iGetInt                   10032c30 f   il_states.obj
 0001:00031cc0       ?iGetSunHead@@YAIPAUSIO@@PAUSUNHEAD@@@Z 10032cc0 f   il_sun.obj
 0001:00031e20       ?iCheckSun@@YAEPAUSUNHEAD@@@Z 10032e20 f   il_sun.obj
 0001:00031e80       _iIsValidSun               10032e80 f   il_sun.obj
 0001:00031ee0       ?iSunDecodeRle@@YAXPAUILimage@@@Z 10032ee0 f   il_sun.obj
 0001:00031fb0       ?iSunPrepareImageBuffer@@YAXPAUILimage@@PAUSUNHEAD@@@Z 10032fb0 f   il_sun.obj
 0001:00032000       _iLoadSunInternal          10033000 f   il_sun.obj
 0001:000325d0       _iIsValidTarga             100335d0 f   il_targa.obj
 0001:00032640       ?iCheckTarga@@YAEPAUTARGAHEAD@@@Z 10033640 f   il_targa.obj
 0001:000326a0       _iLoadTargaInternal        100336a0 f   il_targa.obj
 0001:000328a0       ?iReadColMapTga@@YAEPAUILimage@@PAUTARGAHEAD@@@Z 100338a0 f   il_targa.obj
 0001:00032ad0       ?iReadUnmapTga@@YAEPAUILimage@@PAUTARGAHEAD@@@Z 10033ad0 f   il_targa.obj
 0001:00032c20       ?iReadBwTga@@YAEPAUILimage@@PAUTARGAHEAD@@@Z 10033c20 f   il_targa.obj
 0001:00032cf0       ?iUncompressTgaData@@YAEPAUILimage@@@Z 10033cf0 f   il_targa.obj
 0001:00032e30       ?i16BitTarga@@YAEPAUILimage@@@Z 10033e30 f   il_targa.obj
 0001:00032f20       _iSaveTargaInternal        10033f20 f   il_targa.obj
 0001:00033830       _ilIsValidTiffFunc         10034830 f   il_tiff.obj
 0001:000338e0       _iLoadTiffInternal         100348e0 f   il_tiff.obj
 0001:00034430       ?png_write@@YAXPAUpng_struct_def@@PAEI@Z 10035430 f   il_png.obj
 0001:00034540       _iSaveTiffInternal         10035540 f   il_tiff.obj
 0001:00034b80       _ilGetBppFormat@4          10035b80 f   il_utility.obj
 0001:00034bf0       _ilGetFormatBpp@4          10035bf0 f   il_utility.obj
 0001:00034c40       _ilGetBpcType@4            10035c40 f   il_utility.obj
 0001:00034ca0       _ilGetTypeBpc@4            10035ca0 f   il_utility.obj
 0001:00034d00       _ilGetBppPal@4             10035d00 f   il_utility.obj
 0001:00034d50       _ilGetPalBaseType@4        10035d50 f   il_utility.obj
 0001:00034db0       _ilNextPower2@4            10035db0 f   il_utility.obj
 0001:00034dd0       _iMemSwap@12               10035dd0 f   il_utility.obj
 0001:00034ec0       _iIsValidVtf               10035ec0 f   il_vtf.obj
 0001:00034f50       ?iCheckVtf@@YAEPAUVTFHEAD@@@Z 10035f50 f   il_vtf.obj
 0001:00035030       _iLoadVtfInternal          10036030 f   il_vtf.obj
 0001:00035a70       ?VtfInitFacesMipmaps@@YAEPAUILimage@@IPAUVTFHEAD@@@Z 10036a70 f   il_vtf.obj
 0001:00035c20       ?VtfInitMipmaps@@YAEPAUILimage@@PAUVTFHEAD@@@Z 10036c20 f   il_vtf.obj
 0001:00035da0       _iSaveVtfInternal          10036da0 f   il_vtf.obj
 0001:000365b0       ?WbmpGetMultibyte@@YAIPAUSIO@@@Z 100375b0 f   il_wbmp.obj
 0001:000365e0       _iLoadWbmpInternal         100375e0 f   il_wbmp.obj
 0001:00036760       ?WbmpPutMultibyte@@YAEPAUSIO@@I@Z 10037760 f   il_wbmp.obj
 0001:000367b0       _iSaveWbmpInternal         100377b0 f   il_wbmp.obj
 0001:000369b0       ?XpmGetsInternal@@YAHPAUSIO@@PAEH@Z 100379b0 f   il_xpm.obj
 0001:00036a30       _iIsValidXpm               10037a30 f   il_xpm.obj
 0001:00036aa0       ?XpmCreateHashTable@@YAPAPAUXPMHASHENTRY@@XZ 10037aa0 f   il_xpm.obj
 0001:00036b10       ?XpmDestroyHashTable@@YAXPAPAUXPMHASHENTRY@@@Z 10037b10 f   il_xpm.obj
 0001:00036b60       ?XpmGets@@YAHPAUSIO@@PAEH@Z 10037b60 f   il_xpm.obj
 0001:00036c40       ?XpmGetInt@@YAHPAEHPAH@Z   10037c40 f   il_xpm.obj
 0001:00036cf0       ?XpmPredefCol@@YAEPADPAY03E@Z 10037cf0 f   il_xpm.obj
 0001:00036ed0       ?XpmGetColour@@YAEPAEHHPAPAUXPMHASHENTRY@@@Z 10037ed0 f   il_xpm.obj
 0001:000372c0       _iLoadXpmInternal          100382c0 f   il_xpm.obj
 0001:00037620       _jas_image_create          10038620 f   libjasper:jas_image.obj
 0001:000377a0       _jas_image_destroy         100387a0 f   libjasper:jas_image.obj
 0001:000379b0       _jas_image_decode          100389b0 f   libjasper:jas_image.obj
 0001:00037a30       _jas_image_encode          10038a30 f   libjasper:jas_image.obj
 0001:00037a70       _jas_image_readcmpt        10038a70 f   libjasper:jas_image.obj
 0001:00037c30       _jas_image_writecmpt       10038c30 f   libjasper:jas_image.obj
 0001:00037e10       _jas_image_clearfmts       10038e10 f   libjasper:jas_image.obj
 0001:00037e70       _jas_image_addfmt          10038e70 f   libjasper:jas_image.obj
 0001:00037f40       _jas_image_getfmt          10038f40 f   libjasper:jas_image.obj
 0001:00037f80       _jas_image_rawsize         10038f80 f   libjasper:jas_image.obj
 0001:00038030       _jas_image_addcmpt         10039030 f   libjasper:jas_image.obj
 0001:000380e0       _jas_image_lookupfmtbyname 100390e0 f   libjasper:jas_image.obj
 0001:00038280       _jas_image_depalettize     10039280 f   libjasper:jas_image.obj
 0001:00038360       _jas_image_readcmptsample  10039360 f   libjasper:jas_image.obj
 0001:00038460       _jas_image_writecmptsample 10039460 f   libjasper:jas_image.obj
 0001:00038590       _jas_image_getcmptbytype   10039590 f   libjasper:jas_image.obj
 0001:000385c0       _jas_seq2d_create          100395c0 f   libjasper:jas_seq.obj
 0001:00038600       _jas_matrix_create         10039600 f   libjasper:jas_seq.obj
 0001:000386d0       _jas_matrix_destroy        100396d0 f   libjasper:jas_seq.obj
 0001:00038710       _jas_matrix_bindsub        10039710 f   libjasper:jas_seq.obj
 0001:000387e0       _jas_matrix_divpow2        100397e0 f   libjasper:jas_seq.obj
 0001:00038850       _jas_matrix_clip           10039850 f   libjasper:jas_seq.obj
 0001:000388c0       _jas_matrix_resize         100398c0 f   libjasper:jas_seq.obj
 0001:00038920       _jas_stream_memopen        10039920 f   libjasper:jas_stream.obj
 0001:00038a70       _jas_stream_tmpfile        10039a70 f   libjasper:jas_stream.obj
 0001:00038b20       _jas_stream_close          10039b20 f   libjasper:jas_stream.obj
 0001:00038b70       _jas_stream_read           10039b70 f   libjasper:jas_stream.obj
 0001:00038c40       _jas_stream_write          10039c40 f   libjasper:jas_stream.obj
 0001:00038d40       _jas_stream_printf         10039d40 f   libjasper:jas_stream.obj
 0001:00038da0       _jas_stream_puts           10039da0 f   libjasper:jas_stream.obj
 0001:00038e90       _jas_stream_gobble         10039e90 f   libjasper:jas_stream.obj
 0001:00038ef0       _jas_stream_pad            10039ef0 f   libjasper:jas_stream.obj
 0001:00038f60       _jas_stream_rewind         10039f60 f   libjasper:jas_stream.obj
 0001:00038fb0       _jas_stream_seek           10039fb0 f   libjasper:jas_stream.obj
 0001:00039000       _jas_stream_tell           1003a000 f   libjasper:jas_stream.obj
 0001:00039090       _jas_stream_flush          1003a090 f   libjasper:jas_stream.obj
 0001:000390f0       _jas_stream_fillbuf        1003a0f0 f   libjasper:jas_stream.obj
 0001:00039180       _jas_stream_flushbuf       1003a180 f   libjasper:jas_stream.obj
 0001:00039220       _jas_stream_copy           1003a220 f   libjasper:jas_stream.obj
 0001:000394d0       ?OutputMsg@@YAXPAUjpeg_common_struct@@@Z 1003a4d0 f   il_jpeg.obj
 0001:000394d0       _mng_init_source           1003a4d0 f   libmng:libmng_jpeg.obj
 0001:000394d0       _mng_term_source           1003a4d0 f   libmng:libmng_jpeg.obj
 0001:000394d0       __TIFFNoPostDecode         1003a4d0 f   libTIFF:tif_read.obj
 0001:000394d0       _mng_output_message        1003a4d0 f   libmng:libmng_jpeg.obj
 0001:000394d0       ?flush_data@@YAXPAUpng_struct_def@@@Z 1003a4d0 f   il_png.obj
 0001:00039540       _jas_init                  1003a540 f   libjasper:jas_init.obj
 0001:00039710       _jas_cleanup               1003a710 f   libjasper:jas_init.obj
 0001:00039720       _jas_cmprof_createfromclrspc 1003a720 f   libjasper:jas_cm.obj
 0001:00039960       _jas_cmprof_createfromiccprof 1003a960 f   libjasper:jas_cm.obj
 0001:00039b90       _jas_cmprof_destroy        1003ab90 f   libjasper:jas_cm.obj
 0001:0003abc0       _jas_strdup                1003bbc0 f   libjasper:jas_string.obj
 0001:0003ac70       _jpc_encode                1003bc70 f   libjasper:jpc_enc.obj
 0001:0003b890       _ratestrtosize             1003c890 f   libjasper:jpc_enc.obj
 0001:0003b930       _jpc_enc_create            1003c930 f   libjasper:jpc_enc.obj
 0001:0003b9a0       _jpc_enc_destroy           1003c9a0 f   libjasper:jpc_enc.obj
 0001:0003d130       _jpc_quantize              1003e130 f   libjasper:jpc_enc.obj
 0001:0003d1c0       _calcrdslopes              1003e1c0 f   libjasper:jpc_enc.obj
 0001:0003d2a0       _dump_layeringinfo         1003e2a0 f   libjasper:jpc_enc.obj
 0001:0003d430       _rateallocate              1003e430 f   libjasper:jpc_enc.obj
 0001:0003dd50       _jpc_enc_tile_create       1003ed50 f   libjasper:jpc_enc.obj
 0001:0003e020       _jpc_enc_tile_destroy      1003f020 f   libjasper:jpc_enc.obj
 0001:0003f080       _jpc_enc_dump              10040080 f   libjasper:jpc_enc.obj
 0001:0003f220       _jpc_decode                10040220 f   libjasper:jpc_dec.obj
 0001:00041df0       _jpc_seg_alloc             10042df0 f   libjasper:jpc_dec.obj
 0001:00042060       _jpc_streamlist_create     10043060 f   libjasper:jpc_dec.obj
 0001:000420c0       _jpc_streamlist_insert     100430c0 f   libjasper:jpc_dec.obj
 0001:00042130       _jpc_streamlist_remove     10043130 f   libjasper:jpc_dec.obj
 0001:00042170       _jpc_streamlist_destroy    10043170 f   libjasper:jpc_dec.obj
 0001:00042240       _jpc_ppxstab_destroy       10043240 f   libjasper:jpc_dec.obj
 0001:00042290       _jpc_ppxstab_insert        10043290 f   libjasper:jpc_dec.obj
 0001:00042330       _jpc_ppmstabtostreams      10043330 f   libjasper:jpc_dec.obj
 0001:000424c0       _jpc_pptstabwrite          100434c0 f   libjasper:jpc_dec.obj
 0001:00042580       _bmp_encode                10043580 f   libjasper:bmp_enc.obj
 0001:00043170       _ras_encode                10044170 f   libjasper:ras_enc.obj
 0001:00043c30       _jpg_encode                10044c30 f   libjasper:jpg_enc.obj
 0001:000441a0       _mif_decode                100451a0 f   libjasper:mif_cod.obj
 0001:000444e0       _mif_encode                100454e0 f   libjasper:mif_cod.obj
 0001:00044780       _mif_validate              10045780 f   libjasper:mif_cod.obj
 0001:000451a0       _pnm_decode                100461a0 f   libjasper:pnm_dec.obj
 0001:000452e0       _pnm_validate              100462e0 f   libjasper:pnm_dec.obj
 0001:00046160       _pgx_decode                10047160 f   libjasper:pgx_dec.obj
 0001:00046240       _pgx_validate              10047240 f   libjasper:pgx_dec.obj
 0001:00046be0       _pnm_encode                10047be0 f   libjasper:pnm_enc.obj
 0001:00047510       _bmp_decode                10048510 f   libjasper:bmp_dec.obj
 0001:00047780       _bmp_validate              10048780 f   libjasper:bmp_dec.obj
 0001:00048480       _jpg_decode                10049480 f   libjasper:jpg_dec.obj
 0001:00048a60       _jpg_validate              10049a60 f   libjasper:jpg_val.obj
 0001:00048ad0       _ras_decode                10049ad0 f   libjasper:ras_dec.obj
 0001:00048ca0       _ras_validate              10049ca0 f   libjasper:ras_dec.obj
 0001:00049410       _jpc_getms                 1004a410 f   libjasper:jpc_cs.obj
 0001:00049630       _jpc_putms                 1004a630 f   libjasper:jpc_cs.obj
 0001:00049730       _jpc_ms_create             1004a730 f   libjasper:jpc_cs.obj
 0001:00049790       _jpc_ms_destroy            1004a790 f   libjasper:jpc_cs.obj
 0001:000497b0       _jpc_ms_dump               1004a7b0 f   libjasper:jpc_cs.obj
 0001:0004b140       _jpc_getuint8              1004c140 f   libjasper:jpc_cs.obj
 0001:0004b190       _jpc_getuint16             1004c190 f   libjasper:jpc_cs.obj
 0001:0004b230       _jpc_putuint16             1004c230 f   libjasper:jpc_cs.obj
 0001:0004b2e0       _jpc_putuint32             1004c2e0 f   libjasper:jpc_cs.obj
 0001:0004b450       _jpc_validate              1004c450 f   libjasper:jpc_cs.obj
 0001:0004b4c0       _jp2_decode                1004c4c0 f   libjasper:jp2_dec.obj
 0001:0004bd50       _jp2_validate              1004cd50 f   libjasper:jp2_dec.obj
 0001:0004bf80       _jp2_encode                1004cf80 f   libjasper:jp2_enc.obj
 0001:0004c680       _pgx_encode                1004d680 f   libjasper:pgx_enc.obj
 0001:0004cad0       _jas_iccprof_copy          1004dad0 f   libjasper:jas_icc.obj
 0001:0004cb40       _jas_iccprof_destroy       1004db40 f   libjasper:jas_icc.obj
 0001:0004cb70       _jas_iccprof_load          1004db70 f   libjasper:jas_icc.obj
 0001:0004cda0       _jas_iccprof_save          1004dda0 f   libjasper:jas_icc.obj
 0001:0004d550       _jas_iccprof_getattr       1004e550 f   libjasper:jas_icc.obj
 0001:0004d580       _jas_iccprof_setattr       1004e580 f   libjasper:jas_icc.obj
 0001:0004da60       _jas_iccattrval_create     1004ea60 f   libjasper:jas_icc.obj
 0001:0004dad0       _jas_iccattrval_destroy    1004ead0 f   libjasper:jas_icc.obj
 0001:0004f760       _jas_iccprof_createfrombuf 10050760 f   libjasper:jas_icc.obj
 0001:0004f7a0       _jas_iccprof_createfromclrspc 100507a0 f   libjasper:jas_icc.obj
 0001:0004f800       _jpc_atoaf                 10050800 f   libjasper:jpc_util.obj
 0001:0004f950       _jas_eprintf               10050950 f   libjasper:jas_debug.obj
 0001:0004f970       _jas_memdump               10050970 f   libjasper:jas_debug.obj
 0001:0004f9e0       _jas_tvparser_create       100509e0 f   libjasper:jas_tvp.obj
 0001:0004fa50       _jas_tvparser_next         10050a50 f   libjasper:jas_tvp.obj
 0001:0004fba0       _jas_taginfos_lookup       10050ba0 f   libjasper:jas_tvp.obj
 0001:0004fbf0       _jpc_pi_next               10050bf0 f   libjasper:jpc_t2cod.obj
 0001:00050770       _jpc_pi_destroy            10051770 f   libjasper:jpc_t2cod.obj
 0001:00050830       _jpc_pchglist_insert       10051830 f   libjasper:jpc_t2cod.obj
 0001:000508a0       _jpc_pchglist_copy         100518a0 f   libjasper:jpc_t2cod.obj
 0001:00050950       _jpc_pchglist_destroy      10051950 f   libjasper:jpc_t2cod.obj
 0001:00050990       _jpc_pi_init               10051990 f   libjasper:jpc_t2cod.obj
 0001:00050a00       _JPC_PASSTYPE              10051a00 f   libjasper:jpc_t1cod.obj
 0001:00050a40       _JPC_SEGTYPE               10051a40 f   libjasper:jpc_t1cod.obj
 0001:00050a80       _JPC_SEGPASSCNT            10051a80 f   libjasper:jpc_t1cod.obj
 0001:00050ae0       _jpc_initluts              10051ae0 f   libjasper:jpc_t1cod.obj
 0001:00050d10       _jpc_getzcctxno            10051d10 f   libjasper:jpc_t1cod.obj
 0001:00050e60       _jpc_getspb                10051e60 f   libjasper:jpc_t1cod.obj
 0001:00050f20       _jpc_getscctxno            10051f20 f   libjasper:jpc_t1cod.obj
 0001:00051020       _jpc_initctxs              10052020 f   libjasper:jpc_t1cod.obj
 0001:00051070       _jpc_pow2i                 10052070 f   libjasper:jpc_t1cod.obj
 0001:000513a0       _jpc_enc_encpkts           100523a0 f   libjasper:jpc_t2enc.obj
 0001:00051420       _jpc_enc_encpkt            10052420 f   libjasper:jpc_t2enc.obj
 0001:00051bd0       _jpc_save_t2state          10052bd0 f   libjasper:jpc_t2enc.obj
 0001:00051d50       _jpc_restore_t2state       10052d50 f   libjasper:jpc_t2enc.obj
 0001:00051ed0       _jpc_init_t2state          10052ed0 f   libjasper:jpc_t2enc.obj
 0001:00052140       _jpc_enc_pi_create         10053140 f   libjasper:jpc_t2enc.obj
 0001:000523f0       _jpc_enc_enccblks          100533f0 f   libjasper:jpc_t1enc.obj
 0001:00052610       _getthebyte                10053610 f   libjasper:jpc_t1enc.obj
 0001:00052750       _jpc_enc_enccblk           10053750 f   libjasper:jpc_t1enc.obj
 0001:000559e0       _jpc_tsfb_analyze2         100569e0 f   libjasper:jpc_tsfb.obj
 0001:00055a70       _jpc_tsfb_synthesize2      10056a70 f   libjasper:jpc_tsfb.obj
 0001:00055b00       _jpc_tsfb_getbands         10056b00 f   libjasper:jpc_tsfb.obj
 0001:00055ba0       _jpc_tsfb_getbands2        10056ba0 f   libjasper:jpc_tsfb.obj
 0001:00055dc0       _jpc_rct                   10056dc0 f   libjasper:jpc_mct.obj
 0001:00055e50       _jpc_irct                  10056e50 f   libjasper:jpc_mct.obj
 0001:00055ee0       _jpc_ict                   10056ee0 f   libjasper:jpc_mct.obj
 0001:00056090       _jpc_iict                  10057090 f   libjasper:jpc_mct.obj
 0001:000561b0       _jpc_tagtree_create        100571b0 f   libjasper:jpc_tagtree.obj
 0001:00056390       _jpc_tagtree_encode        10057390 f   libjasper:jpc_tagtree.obj
 0001:000565a0       _jpc_tagtree_decode        100575a0 f   libjasper:jpc_tagtree.obj
 0001:000567d0       _jpc_mqenc_create          100577d0 f   libjasper:jpc_mqenc.obj
 0001:00056850       _jpc_mqenc_setctxs         10057850 f   libjasper:jpc_mqenc.obj
 0001:000568b0       _jpc_mqenc_codemps2        100578b0 f   libjasper:jpc_mqenc.obj
 0001:00056b50       _jpc_mqenc_codelps         10057b50 f   libjasper:jpc_mqenc.obj
 0001:00056df0       _jpc_mqenc_flush           10057df0 f   libjasper:jpc_mqenc.obj
 0001:00058060       _jpc_dec_decodepkts        10059060 f   libjasper:jpc_t2dec.obj
 0001:000581b0       _jpc_dec_pi_create         100591b0 f   libjasper:jpc_t2dec.obj
 0001:00058450       _jpc_dec_lookahead         10059450 f   libjasper:jpc_t2dec.obj
 0001:000584e0       _jpc_mqdec_create          100594e0 f   libjasper:jpc_mqdec.obj
 0001:00058540       _jpc_mqdec_init            10059540 f   libjasper:jpc_mqdec.obj
 0001:000585d0       _jpc_mqdec_setctxs         100595d0 f   libjasper:jpc_mqdec.obj
 0001:00058630       _jpc_mqdec_mpsexchrenormd  10059630 f   libjasper:jpc_mqdec.obj
 0001:00058710       _jpc_mqdec_lpsexchrenormd  10059710 f   libjasper:jpc_mqdec.obj
 0001:000588a0       _jpc_bitstream_close       100598a0 f   libjasper:jpc_bs.obj
 0001:00058910       _jpc_bitstream_getbits     10059910 f   libjasper:jpc_bs.obj
 0001:00058a30       _jpc_bitstream_putbits     10059a30 f   libjasper:jpc_bs.obj
 0001:00058b40       _jpc_bitstream_fillbuf     10059b40 f   libjasper:jpc_bs.obj
 0001:00058c10       _jpc_bitstream_inalign     10059c10 f   libjasper:jpc_bs.obj
 0001:00058cc0       _jpc_bitstream_outalign    10059cc0 f   libjasper:jpc_bs.obj
 0001:00058d80       _jpc_dec_decodecblks       10059d80 f   libjasper:jpc_t1dec.obj
 0001:0005b020       _bmp_info_destroy          1005c020 f   libjasper:bmp_cod.obj
 0001:0005b040       _bmp_numcmpts              1005c040 f   libjasper:bmp_cod.obj
 0001:0005b0b0       _pnm_type                  1005c0b0 f   libjasper:pnm_cod.obj
 0001:0005b110       _pnm_maxvaltodepth         1005c110 f   libjasper:pnm_cod.obj
 0001:0005b120       _jp2_box_create            1005c120 f   libjasper:jp2_cod.obj
 0001:0005b180       _jp2_box_destroy           1005c180 f   libjasper:jp2_cod.obj
 0001:0005b1d0       _jp2_box_get               1005c1d0 f   libjasper:jp2_cod.obj
 0001:0005b380       _jp2_box_dump              1005c380 f   libjasper:jp2_cod.obj
 0001:0005b8a0       _jp2_box_put               1005c8a0 f   libjasper:jp2_cod.obj
 0001:0005be80       _jpc_getuint32             1005ce80 f   libjasper:jpc_cs.obj
 0001:0005c030       _jpc_putuint8              1005d030 f   libjasper:jpc_cs.obj
 0001:0005c090       _jp2_boxinfolookup         1005d090 f   libjasper:jp2_cod.obj
 0001:0005c4e0       _jpc_qmfb_split_row        1005d4e0 f   libjasper:jpc_qmfb.obj
 0001:0005c630       _jpc_qmfb_split_colgrp     1005d630 f   libjasper:jpc_qmfb.obj
 0001:0005c860       _jpc_qmfb_split_colres     1005d860 f   libjasper:jpc_qmfb.obj
 0001:0005cab0       _jpc_qmfb_join_row         1005dab0 f   libjasper:jpc_qmfb.obj
 0001:0005cbc0       _jpc_qmfb_join_colgrp      1005dbc0 f   libjasper:jpc_qmfb.obj
 0001:0005cda0       _jpc_qmfb_join_colres      1005dda0 f   libjasper:jpc_qmfb.obj
 0001:0005cfb0       _jpc_ft_fwdlift_row        1005dfb0 f   libjasper:jpc_qmfb.obj
 0001:0005d080       _jpc_ft_fwdlift_colgrp     1005e080 f   libjasper:jpc_qmfb.obj
 0001:0005d3d0       _jpc_ft_fwdlift_colres     1005e3d0 f   libjasper:jpc_qmfb.obj
 0001:0005d590       _jpc_ft_invlift_row        1005e590 f   libjasper:jpc_qmfb.obj
 0001:0005d670       _jpc_ft_invlift_colgrp     1005e670 f   libjasper:jpc_qmfb.obj
 0001:0005d9d0       _jpc_ft_invlift_colres     1005e9d0 f   libjasper:jpc_qmfb.obj
 0001:0005dba0       _jpc_ft_analyze            1005eba0 f   libjasper:jpc_qmfb.obj
 0001:0005dc70       _jpc_ft_synthesize         1005ec70 f   libjasper:jpc_qmfb.obj
 0001:0005dd40       _jpc_ns_fwdlift_row        1005ed40 f   libjasper:jpc_qmfb.obj
 0001:0005dff0       _jpc_ns_fwdlift_colgrp     1005eff0 f   libjasper:jpc_qmfb.obj
 0001:0005eac0       _jpc_ns_fwdlift_colres     1005fac0 f   libjasper:jpc_qmfb.obj
 0001:0005ef80       _jpc_ns_invlift_row        1005ff80 f   libjasper:jpc_qmfb.obj
 0001:0005f230       _jpc_ns_invlift_colgrp     10060230 f   libjasper:jpc_qmfb.obj
 0001:0005fd00       _jpc_ns_invlift_colres     10060d00 f   libjasper:jpc_qmfb.obj
 0001:000601a0       _jpc_ns_analyze            100611a0 f   libjasper:jpc_qmfb.obj
 0001:00060270       _jpc_ns_synthesize         10061270 f   libjasper:jpc_qmfb.obj
 0001:00060780       _mng_initialize            10061780 f   libmng:libmng_hlapi.obj
 0001:000609e0       _mng_reset                 100619e0 f   libmng:libmng_hlapi.obj
 0001:000610b0       _mng_read                  100620b0 f   libmng:libmng_hlapi.obj
 0001:000611d0       _mng_display               100621d0 f   libmng:libmng_hlapi.obj
 0001:00061310       _mnglcms_createsrgbprofile 10062310 f   libmng:libmng_cms.obj
 0001:000613e0       _mng_clear_cms             100623e0 f   libmng:libmng_cms.obj
 0001:00061420       _mng_init_full_cms         10062420 f   libmng:libmng_cms.obj
 0001:00061920       _mng_correct_full_cms      10062920 f   libmng:libmng_cms.obj
 0001:00061950       _mng_init_gamma_only       10062950 f   libmng:libmng_cms.obj
 0001:00061ac0       _mng_correct_gamma_only    10062ac0 f   libmng:libmng_cms.obj
 0001:00061b80       _mng_process_eof           10062b80 f   libmng:libmng_read.obj
 0001:00061bc0       _mng_release_pushdata      10062bc0 f   libmng:libmng_read.obj
 0001:00061c40       _mng_release_pushchunk     10062c40 f   libmng:libmng_read.obj
 0001:000638b0       _mng_read_graphic          100648b0 f   libmng:libmng_read.obj
 0001:00063aa0       _mng_drop_chunks           10064aa0 f   libmng:libmng_write.obj
 0001:00063ae0       _mngzlib_alloc             10064ae0 f   libmng:libmng_zlib.obj
 0001:00063b10       _mngzlib_free              10064b10 f   libmng:libmng_zlib.obj
 0001:00063b30       _mngzlib_inflateinit       10064b30 f   libmng:libmng_zlib.obj
 0001:00063b70       _mngzlib_inflaterows       10064b70 f   libmng:libmng_zlib.obj
 0001:00063da0       _mngzlib_inflatefree       10064da0 f   libmng:libmng_zlib.obj
 0001:00063e90       _mng_display_progressive_refresh 10064e90 f   libmng:libmng_display.obj
 0001:000651f0       _mng_display_image         100661f0 f   libmng:libmng_display.obj
 0001:000655a0       _mng_execute_delta_image   100665a0 f   libmng:libmng_display.obj
 0001:00066320       _mng_reset_objzero         10067320 f   libmng:libmng_display.obj
 0001:00066770       _mng_process_display       10067770 f   libmng:libmng_display.obj
 0001:000669e0       _mng_process_display_ihdr  100679e0 f   libmng:libmng_display.obj
 0001:00066f70       _mng_process_display_idat  10067f70 f   libmng:libmng_display.obj
 0001:00066fe0       _mng_process_display_iend  10067fe0 f   libmng:libmng_display.obj
 0001:00067210       _mng_process_display_mend  10068210 f   libmng:libmng_display.obj
 0001:00067460       _mng_process_display_defi  10068460 f   libmng:libmng_display.obj
 0001:00067600       _mng_process_display_basi  10068600 f   libmng:libmng_display.obj
 0001:00067df0       _mng_process_display_clon  10068df0 f   libmng:libmng_display.obj
 0001:00067f40       _mng_process_display_clon2 10068f40 f   libmng:libmng_display.obj
 0001:00067f60       _mng_process_display_disc  10068f60 f   libmng:libmng_display.obj
 0001:000680a0       _mng_process_display_fram2 100690a0 f   libmng:libmng_display.obj
 0001:00068190       _mng_process_display_move  10069190 f   libmng:libmng_display.obj
 0001:00068200       _mng_process_display_clip  10069200 f   libmng:libmng_display.obj
 0001:00068280       _mng_process_display_show  10069280 f   libmng:libmng_display.obj
 0001:00068570       _mng_process_display_seek  10069570 f   libmng:libmng_display.obj
 0001:000685c0       _mng_process_display_jhdr  100695c0 f   libmng:libmng_display.obj
 0001:00068b50       _mng_process_display_jdaa  10069b50 f   libmng:libmng_display.obj
 0001:00068ba0       _mng_process_display_jdat  10069ba0 f   libmng:libmng_display.obj
 0001:00068c10       _mng_process_display_dhdr  10069c10 f   libmng:libmng_display.obj
 0001:00069430       _mng_process_display_prom  1006a430 f   libmng:libmng_display.obj
 0001:00069520       _mng_process_display_pplt  1006a520 f   libmng:libmng_display.obj
 0001:00069740       _mng_process_display_magn  1006a740 f   libmng:libmng_display.obj
 0001:000698d0       _mng_process_display_magn2 1006a8d0 f   libmng:libmng_display.obj
 0001:00069960       _mng_process_display_past  1006a960 f   libmng:libmng_display.obj
 0001:0006a340       _mng_process_display_past2 1006b340 f   libmng:libmng_display.obj
 0001:0006a390       _mng_create_imagedataobject 1006b390 f   libmng:libmng_object_prc.obj
 0001:0006a580       _mng_free_imagedataobject  1006b580 f   libmng:libmng_object_prc.obj
 0001:0006a600       _mng_clone_imagedataobject 1006b600 f   libmng:libmng_object_prc.obj
 0001:0006a6f0       _mng_create_imageobject    1006b6f0 f   libmng:libmng_object_prc.obj
 0001:0006a850       _mng_free_imageobject      1006b850 f   libmng:libmng_object_prc.obj
 0001:0006a8b0       _mng_find_imageobject      1006b8b0 f   libmng:libmng_object_prc.obj
 0001:0006a8d0       _mng_clone_imageobject     1006b8d0 f   libmng:libmng_object_prc.obj
 0001:0006aa60       _mng_renum_imageobject     1006ba60 f   libmng:libmng_object_prc.obj
 0001:0006ab20       _mng_reset_object_details  1006bb20 f   libmng:libmng_object_prc.obj
 0001:0006aeb0       _mng_promote_imageobject   1006beb0 f   libmng:libmng_object_prc.obj
 0001:0006b600       _mng_magnify_imageobject   1006c600 f   libmng:libmng_object_prc.obj
 0001:0006bf10       _mng_colorcorrect_object   1006cf10 f   libmng:libmng_object_prc.obj
 0001:0006c150       _mng_add_ani_object        1006d150 f   libmng:libmng_object_prc.obj
 0001:0006c1c0       _mng_create_ani_image      1006d1c0 f   libmng:libmng_object_prc.obj
 0001:0006c300       _mng_free_ani_image        1006d300 f   libmng:libmng_object_prc.obj
 0001:0006c330       _mng_process_ani_image     1006d330 f   libmng:libmng_object_prc.obj
 0001:0006c650       _mng_create_ani_plte       1006d650 f   libmng:libmng_object_prc.obj
 0001:0006c6c0       _mng_free_ani_plte         1006d6c0 f   libmng:libmng_object_prc.obj
 0001:0006c6f0       _mng_process_ani_plte      1006d6f0 f   libmng:libmng_object_prc.obj
 0001:0006c730       _mng_create_ani_trns       1006d730 f   libmng:libmng_object_prc.obj
 0001:0006c7a0       _mng_free_ani_trns         1006d7a0 f   libmng:libmng_object_prc.obj
 0001:0006c7d0       _mng_process_ani_trns      1006d7d0 f   libmng:libmng_object_prc.obj
 0001:0006c810       _mng_create_ani_gama       1006d810 f   libmng:libmng_object_prc.obj
 0001:0006c870       _mng_process_ani_gama      1006d870 f   libmng:libmng_object_prc.obj
 0001:0006c8b0       _mng_create_ani_chrm       1006d8b0 f   libmng:libmng_object_prc.obj
 0001:0006c930       _mng_process_ani_chrm      1006d930 f   libmng:libmng_object_prc.obj
 0001:0006c9d0       _mng_create_ani_srgb       1006d9d0 f   libmng:libmng_object_prc.obj
 0001:0006ca30       _mng_process_ani_srgb      1006da30 f   libmng:libmng_object_prc.obj
 0001:0006ca70       _mng_create_ani_iccp       1006da70 f   libmng:libmng_object_prc.obj
 0001:0006caf0       _mng_free_unknown          1006daf0 f   libmng:libmng_chunk_prc.obj
 0001:0006caf0       _mng_free_ani_iccp         1006daf0 f   libmng:libmng_object_prc.obj
 0001:0006cb30       _mng_process_ani_iccp      1006db30 f   libmng:libmng_object_prc.obj
 0001:0006cbe0       _mng_create_ani_bkgd       1006dbe0 f   libmng:libmng_object_prc.obj
 0001:0006cc40       _mng_process_ani_bkgd      1006dc40 f   libmng:libmng_object_prc.obj
 0001:0006cc80       _mng_create_ani_loop       1006dc80 f   libmng:libmng_object_prc.obj
 0001:0006ccf0       _mng_free_ani_loop         1006dcf0 f   libmng:libmng_object_prc.obj
 0001:0006cd30       _mng_process_ani_loop      1006dd30 f   libmng:libmng_object_prc.obj
 0001:0006cd60       _mng_create_ani_endl       1006dd60 f   libmng:libmng_object_prc.obj
 0001:0006cdc0       _mng_process_ani_endl      1006ddc0 f   libmng:libmng_object_prc.obj
 0001:0006cec0       _mng_create_ani_defi       1006dec0 f   libmng:libmng_object_prc.obj
 0001:0006cf90       _mng_process_ani_defi      1006df90 f   libmng:libmng_object_prc.obj
 0001:0006d020       _mng_create_ani_basi       1006e020 f   libmng:libmng_object_prc.obj
 0001:0006d0b0       _mng_process_ani_basi      1006e0b0 f   libmng:libmng_object_prc.obj
 0001:0006d0f0       _mng_create_ani_clon       1006e0f0 f   libmng:libmng_object_prc.obj
 0001:0006d1a0       _mng_free_phys             1006e1a0 f   libmng:libmng_chunk_prc.obj
 0001:0006d1a0       _mng_free_ihdr             1006e1a0 f   libmng:libmng_chunk_prc.obj
 0001:0006d1a0       _mng_free_move             1006e1a0 f   libmng:libmng_chunk_prc.obj
 0001:0006d1a0       _mng_free_jhdr             1006e1a0 f   libmng:libmng_chunk_prc.obj
 0001:0006d1a0       _mng_free_ani_clon         1006e1a0 f   libmng:libmng_object_prc.obj
 0001:0006d1a0       _mng_free_phyg             1006e1a0 f   libmng:libmng_chunk_prc.obj
 0001:0006d1a0       _mng_free_ani_magn         1006e1a0 f   libmng:libmng_object_prc.obj
 0001:0006d1a0       _mng_free_ani_dhdr         1006e1a0 f   libmng:libmng_object_prc.obj
 0001:0006d1c0       _mng_process_ani_clon      1006e1c0 f   libmng:libmng_object_prc.obj
 0001:0006d210       _mng_create_ani_back       1006e210 f   libmng:libmng_object_prc.obj
 0001:0006d290       _mng_process_ani_back      1006e290 f   libmng:libmng_object_prc.obj
 0001:0006d2e0       _mng_create_ani_fram       1006e2e0 f   libmng:libmng_object_prc.obj
 0001:0006d3b0       _mng_free_ani_defi         1006e3b0 f   libmng:libmng_object_prc.obj
 0001:0006d3b0       _mng_free_ani_chrm         1006e3b0 f   libmng:libmng_object_prc.obj
 0001:0006d3b0       _mng_free_ani_fram         1006e3b0 f   libmng:libmng_object_prc.obj
 0001:0006d3d0       _mng_process_ani_fram      1006e3d0 f   libmng:libmng_object_prc.obj
 0001:0006d480       _mng_create_ani_move       1006e480 f   libmng:libmng_object_prc.obj
 0001:0006d510       _mng_process_ani_move      1006e510 f   libmng:libmng_object_prc.obj
 0001:0006d540       _mng_create_ani_clip       1006e540 f   libmng:libmng_object_prc.obj
 0001:0006d5e0       _mng_process_ani_clip      1006e5e0 f   libmng:libmng_object_prc.obj
 0001:0006d620       _mng_create_ani_show       1006e620 f   libmng:libmng_object_prc.obj
 0001:0006d680       _mng_process_ani_show      1006e680 f   libmng:libmng_object_prc.obj
 0001:0006d6c0       _mng_create_ani_term       1006e6c0 f   libmng:libmng_object_prc.obj
 0001:0006d720       _mng_create_ani_save       1006e720 f   libmng:libmng_object_prc.obj
 0001:0006d770       _mng_free_ani_ijng         1006e770 f   libmng:libmng_object_prc.obj
 0001:0006d770       _mng_free_ani_save         1006e770 f   libmng:libmng_object_prc.obj
 0001:0006d770       _mng_free_ani_ipng         1006e770 f   libmng:libmng_object_prc.obj
 0001:0006d790       _mng_process_ani_save      1006e790 f   libmng:libmng_object_prc.obj
 0001:0006d7a0       _mng_create_ani_seek       1006e7a0 f   libmng:libmng_object_prc.obj
 0001:0006d820       _mng_free_ani_seek         1006e820 f   libmng:libmng_object_prc.obj
 0001:0006d860       _mng_process_ani_seek      1006e860 f   libmng:libmng_object_prc.obj
 0001:0006d950       _mng_create_ani_dhdr       1006e950 f   libmng:libmng_object_prc.obj
 0001:0006d9f0       _mng_process_ani_dhdr      1006e9f0 f   libmng:libmng_object_prc.obj
 0001:0006da30       _mng_create_ani_prom       1006ea30 f   libmng:libmng_object_prc.obj
 0001:0006daa0       _mng_process_ani_prom      1006eaa0 f   libmng:libmng_object_prc.obj
 0001:0006dac0       _mng_create_ani_ipng       1006eac0 f   libmng:libmng_object_prc.obj
 0001:0006db10       _mng_process_ani_ipng      1006eb10 f   libmng:libmng_object_prc.obj
 0001:0006db30       _mng_create_ani_ijng       1006eb30 f   libmng:libmng_object_prc.obj
 0001:0006db80       _mng_process_ani_ijng      1006eb80 f   libmng:libmng_object_prc.obj
 0001:0006dba0       _mng_create_ani_pplt       1006eba0 f   libmng:libmng_object_prc.obj
 0001:0006dc50       _mng_free_ani_pplt         1006ec50 f   libmng:libmng_object_prc.obj
 0001:0006dc80       _mng_process_ani_pplt      1006ec80 f   libmng:libmng_object_prc.obj
 0001:0006dcb0       _mng_create_ani_magn       1006ecb0 f   libmng:libmng_object_prc.obj
 0001:0006dd90       _mng_process_ani_magn      1006ed90 f   libmng:libmng_object_prc.obj
 0001:0006dde0       _mng_create_ani_past       1006ede0 f   libmng:libmng_object_prc.obj
 0001:0006deb0       _mng_free_ani_past         1006eeb0 f   libmng:libmng_object_prc.obj
 0001:0006df00       _mng_process_ani_past      1006ef00 f   libmng:libmng_object_prc.obj
 0001:0006df30       _mng_create_ani_disc       1006ef30 f   libmng:libmng_object_prc.obj
 0001:0006dfd0       _mng_free_ani_disc         1006efd0 f   libmng:libmng_object_prc.obj
 0001:0006e010       _mng_process_ani_disc      1006f010 f   libmng:libmng_object_prc.obj
 0001:0006e030       _mng_create_event          1006f030 f   libmng:libmng_object_prc.obj
 0001:0006e110       _mng_free_event            1006f110 f   libmng:libmng_object_prc.obj
 0001:0006e150       _mng_process_event         1006f150 f   libmng:libmng_object_prc.obj
 0001:0006e240       _mng_display_progressive_check 1006f240 f   libmng:libmng_pixels.obj
 0001:0006e320       _mng_display_rgb8          1006f320 f   libmng:libmng_pixels.obj
 0001:0006e6e0       _mng_display_rgba8         1006f6e0 f   libmng:libmng_pixels.obj
 0001:0006ecb0       _mng_display_rgba8_pm      1006fcb0 f   libmng:libmng_pixels.obj
 0001:0006f0b0       _mng_display_argb8         100700b0 f   libmng:libmng_pixels.obj
 0001:0006f5f0       _mng_display_argb8_pm      100705f0 f   libmng:libmng_pixels.obj
 0001:0006fa00       _mng_display_rgb8_a8       10070a00 f   libmng:libmng_pixels.obj
 0001:00070040       _mng_display_bgr8          10071040 f   libmng:libmng_pixels.obj
 0001:00070400       _mng_display_bgrx8         10071400 f   libmng:libmng_pixels.obj
 0001:000707d0       _mng_display_bgra8         100717d0 f   libmng:libmng_pixels.obj
 0001:00070da0       _mng_display_bgra8_pm      10071da0 f   libmng:libmng_pixels.obj
 0001:000711a0       _mng_display_abgr8         100721a0 f   libmng:libmng_pixels.obj
 0001:00071770       _mng_display_abgr8_pm      10072770 f   libmng:libmng_pixels.obj
 0001:00071b80       _mng_display_bgr565        10072b80 f   libmng:libmng_pixels.obj
 0001:00072000       _mng_display_rgb565        10073000 f   libmng:libmng_pixels.obj
 0001:00072470       _mng_display_bgra565       10073470 f   libmng:libmng_pixels.obj
 0001:00072b90       _mng_display_rgba565       10073b90 f   libmng:libmng_pixels.obj
 0001:000732b0       _mng_display_bgr565_a8     100742b0 f   libmng:libmng_pixels.obj
 0001:00073a30       _mng_display_rgb555        10074a30 f   libmng:libmng_pixels.obj
 0001:00073ea0       _mng_display_bgr555        10074ea0 f   libmng:libmng_pixels.obj
 0001:00074310       _mng_restore_bkgd_backimage 10075310 f   libmng:libmng_pixels.obj
 0001:00074450       _mng_restore_bkgd_backcolor 10075450 f   libmng:libmng_pixels.obj
 0001:000744a0       _mng_restore_bkgd_bkgd     100754a0 f   libmng:libmng_pixels.obj
 0001:000745c0       _mng_restore_bkgd_bgcolor  100755c0 f   libmng:libmng_pixels.obj
 0001:00074600       _mng_restore_bkgd_rgb8     10075600 f   libmng:libmng_pixels.obj
 0001:00074680       _mng_restore_bkgd_bgr8     10075680 f   libmng:libmng_pixels.obj
 0001:00074700       _mng_restore_bkgd_bgrx8    10075700 f   libmng:libmng_pixels.obj
 0001:00074780       _mng_restore_bkgd_bgr565   10075780 f   libmng:libmng_pixels.obj
 0001:00074820       _mng_restore_bkgd_rgb565   10075820 f   libmng:libmng_pixels.obj
 0001:000748c0       _mng_retrieve_g8           100758c0 f   libmng:libmng_pixels.obj
 0001:000749d0       _mng_retrieve_g16          100759d0 f   libmng:libmng_pixels.obj
 0001:00074b10       _mng_retrieve_rgb8         10075b10 f   libmng:libmng_pixels.obj
 0001:00074c10       _mng_retrieve_rgb16        10075c10 f   libmng:libmng_pixels.obj
 0001:00074e00       _mng_retrieve_idx8         10075e00 f   libmng:libmng_pixels.obj
 0001:00074fb0       _mng_retrieve_ga8          10075fb0 f   libmng:libmng_pixels.obj
 0001:00075010       _mng_retrieve_ga16         10076010 f   libmng:libmng_pixels.obj
 0001:000750d0       _mng_retrieve_rgba16       100760d0 f   libmng:libmng_pixels.obj
 0001:000750d0       _mng_retrieve_rgba8        100760d0 f   libmng:libmng_pixels.obj
 0001:00075110       _mng_store_idx4            10076110 f   libmng:libmng_pixels.obj
 0001:00075110       _mng_store_g4              10076110 f   libmng:libmng_pixels.obj
 0001:000751b0       _mng_store_g16             100761b0 f   libmng:libmng_pixels.obj
 0001:00075240       _mng_store_rgb8            10076240 f   libmng:libmng_pixels.obj
 0001:000752c0       _mng_store_rgb16           100762c0 f   libmng:libmng_pixels.obj
 0001:00075330       _mng_store_idx1            10076330 f   libmng:libmng_pixels.obj
 0001:00075330       _mng_store_g1              10076330 f   libmng:libmng_pixels.obj
 0001:000753b0       _mng_store_idx2            100763b0 f   libmng:libmng_pixels.obj
 0001:000753b0       _mng_store_g2              100763b0 f   libmng:libmng_pixels.obj
 0001:00075450       _mng_store_idx8            10076450 f   libmng:libmng_pixels.obj
 0001:00075450       _mng_store_g8              10076450 f   libmng:libmng_pixels.obj
 0001:000754b0       _mng_store_ga8             100764b0 f   libmng:libmng_pixels.obj
 0001:00075520       _mng_store_ga16            10076520 f   libmng:libmng_pixels.obj
 0001:00075590       _mng_store_rgba8           10076590 f   libmng:libmng_pixels.obj
 0001:00075610       _mng_store_rgba16          10076610 f   libmng:libmng_pixels.obj
 0001:00075680       _mng_store_jpeg_g8         10076680 f   libmng:libmng_pixels.obj
 0001:000756c0       _mng_store_jpeg_rgb8       100766c0 f   libmng:libmng_pixels.obj
 0001:00075710       _mng_store_jpeg_ga8        10076710 f   libmng:libmng_pixels.obj
 0001:000757e0       _mng_store_jpeg_rgba8      100767e0 f   libmng:libmng_pixels.obj
 0001:000758c0       _mng_store_jpeg_g8_alpha   100768c0 f   libmng:libmng_pixels.obj
 0001:00075930       _mng_store_jpeg_rgb8_alpha 10076930 f   libmng:libmng_pixels.obj
 0001:000759a0       _mng_store_jpeg_g8_a1      100769a0 f   libmng:libmng_pixels.obj
 0001:00075a40       _mng_store_jpeg_g8_a2      10076a40 f   libmng:libmng_pixels.obj
 0001:00075b20       _mng_store_jpeg_g8_a4      10076b20 f   libmng:libmng_pixels.obj
 0001:00075bf0       _mng_store_jpeg_g8_a8      10076bf0 f   libmng:libmng_pixels.obj
 0001:00075c70       _mng_store_jpeg_g8_a16     10076c70 f   libmng:libmng_pixels.obj
 0001:00075d00       _mng_store_jpeg_rgb8_a1    10076d00 f   libmng:libmng_pixels.obj
 0001:00075da0       _mng_store_jpeg_rgb8_a2    10076da0 f   libmng:libmng_pixels.obj
 0001:00075e80       _mng_store_jpeg_rgb8_a4    10076e80 f   libmng:libmng_pixels.obj
 0001:00075f50       _mng_store_jpeg_rgb8_a8    10076f50 f   libmng:libmng_pixels.obj
 0001:00075fd0       _mng_store_jpeg_rgb8_a16   10076fd0 f   libmng:libmng_pixels.obj
 0001:00076060       _mng_delta_g1              10077060 f   libmng:libmng_pixels.obj
 0001:00076160       _mng_delta_g2              10077160 f   libmng:libmng_pixels.obj
 0001:000762e0       _mng_delta_g4              100772e0 f   libmng:libmng_pixels.obj
 0001:00076420       _mng_delta_idx8            10077420 f   libmng:libmng_pixels.obj
 0001:00076420       _mng_delta_g8              10077420 f   libmng:libmng_pixels.obj
 0001:00076520       _mng_delta_g16             10077520 f   libmng:libmng_pixels.obj
 0001:00076620       _mng_delta_rgb8            10077620 f   libmng:libmng_pixels.obj
 0001:00076710       _mng_delta_rgb16           10077710 f   libmng:libmng_pixels.obj
 0001:00076900       _mng_delta_idx1            10077900 f   libmng:libmng_pixels.obj
 0001:000769f0       _mng_delta_idx2            100779f0 f   libmng:libmng_pixels.obj
 0001:00076b30       _mng_delta_idx4            10077b30 f   libmng:libmng_pixels.obj
 0001:00076c70       _mng_delta_ga8             10077c70 f   libmng:libmng_pixels.obj
 0001:00076da0       _mng_delta_ga16            10077da0 f   libmng:libmng_pixels.obj
 0001:00076f20       _mng_delta_rgba8           10077f20 f   libmng:libmng_pixels.obj
 0001:00077020       _mng_delta_rgba16          10078020 f   libmng:libmng_pixels.obj
 0001:00077220       _mng_delta_g1_g1           10078220 f   libmng:libmng_pixels.obj
 0001:000772b0       _mng_delta_g2_g2           100782b0 f   libmng:libmng_pixels.obj
 0001:00077340       _mng_delta_g4_g4           10078340 f   libmng:libmng_pixels.obj
 0001:000773d0       _mng_delta_g8_g8           100783d0 f   libmng:libmng_pixels.obj
 0001:00077460       _mng_delta_g16_g16         10078460 f   libmng:libmng_pixels.obj
 0001:00077520       _mng_delta_rgb8_rgb8       10078520 f   libmng:libmng_pixels.obj
 0001:000775c0       _mng_delta_rgb16_rgb16     100785c0 f   libmng:libmng_pixels.obj
 0001:00077710       _mng_delta_ga8_ga8         10078710 f   libmng:libmng_pixels.obj
 0001:000777b0       _mng_delta_ga8_g8          100787b0 f   libmng:libmng_pixels.obj
 0001:00077840       _mng_delta_ga8_a8          10078840 f   libmng:libmng_pixels.obj
 0001:000778d0       _mng_delta_ga16_ga16       100788d0 f   libmng:libmng_pixels.obj
 0001:000779d0       _mng_delta_ga16_g16        100789d0 f   libmng:libmng_pixels.obj
 0001:00077ac0       _mng_delta_ga16_a16        10078ac0 f   libmng:libmng_pixels.obj
 0001:00077bc0       _mng_delta_rgba8_rgba8     10078bc0 f   libmng:libmng_pixels.obj
 0001:00077c60       _mng_delta_rgba8_rgb8      10078c60 f   libmng:libmng_pixels.obj
 0001:00077d10       _mng_delta_rgba8_a8        10078d10 f   libmng:libmng_pixels.obj
 0001:00077da0       _mng_delta_rgba16_rgba16   10078da0 f   libmng:libmng_pixels.obj
 0001:00077f20       _mng_delta_rgba16_rgb16    10078f20 f   libmng:libmng_pixels.obj
 0001:00078100       _mng_delta_rgba16_a16      10079100 f   libmng:libmng_pixels.obj
 0001:00078200       _mng_scale_g1_g2           10079200 f   libmng:libmng_pixels.obj
 0001:00078230       _mng_scale_g1_g4           10079230 f   libmng:libmng_pixels.obj
 0001:00078260       _mng_scale_g1_g8           10079260 f   libmng:libmng_pixels.obj
 0001:00078290       _mng_scale_g1_g16          10079290 f   libmng:libmng_pixels.obj
 0001:000782e0       _mng_scale_g2_g4           100792e0 f   libmng:libmng_pixels.obj
 0001:00078310       _mng_scale_g2_g8           10079310 f   libmng:libmng_pixels.obj
 0001:00078340       _mng_scale_g2_g16          10079340 f   libmng:libmng_pixels.obj
 0001:00078390       _mng_scale_g4_g8           10079390 f   libmng:libmng_pixels.obj
 0001:000783c0       _mng_scale_g4_g16          100793c0 f   libmng:libmng_pixels.obj
 0001:00078410       _mng_scale_g8_g16          10079410 f   libmng:libmng_pixels.obj
 0001:00078460       _mng_scale_ga8_ga16        10079460 f   libmng:libmng_pixels.obj
 0001:000784c0       _mng_scale_rgb8_rgb16      100794c0 f   libmng:libmng_pixels.obj
 0001:00078530       _mng_scale_rgba8_rgba16    10079530 f   libmng:libmng_pixels.obj
 0001:000785a0       _mng_scale_g2_g1           100795a0 f   libmng:libmng_pixels.obj
 0001:000785d0       _mng_scale_g4_g1           100795d0 f   libmng:libmng_pixels.obj
 0001:00078600       _mng_scale_g8_g1           10079600 f   libmng:libmng_pixels.obj
 0001:00078630       _mng_scale_g16_g1          10079630 f   libmng:libmng_pixels.obj
 0001:00078680       _mng_scale_g4_g2           10079680 f   libmng:libmng_pixels.obj
 0001:000786b0       _mng_scale_g8_g2           100796b0 f   libmng:libmng_pixels.obj
 0001:000786e0       _mng_scale_g16_g2          100796e0 f   libmng:libmng_pixels.obj
 0001:00078730       _mng_scale_g8_g4           10079730 f   libmng:libmng_pixels.obj
 0001:00078760       _mng_scale_g16_g4          10079760 f   libmng:libmng_pixels.obj
 0001:000787b0       _mng_scale_g16_g8          100797b0 f   libmng:libmng_pixels.obj
 0001:00078800       _mng_scale_ga16_ga8        10079800 f   libmng:libmng_pixels.obj
 0001:00078870       _mng_scale_rgb16_rgb8      10079870 f   libmng:libmng_pixels.obj
 0001:00078900       _mng_scale_rgba16_rgba8    10079900 f   libmng:libmng_pixels.obj
 0001:000789a0       _mng_promote_replicate_1_2 100799a0 f   libmng:libmng_pixels.obj
 0001:000789b0       _mng_promote_replicate_1_4 100799b0 f   libmng:libmng_pixels.obj
 0001:000789d0       _mng_promote_replicate_1_8 100799d0 f   libmng:libmng_pixels.obj
 0001:000789f0       _mng_promote_replicate_1_16 100799f0 f   libmng:libmng_pixels.obj
 0001:00078a10       _mng_promote_replicate_2_4 10079a10 f   libmng:libmng_pixels.obj
 0001:00078a20       _mng_promote_replicate_2_8 10079a20 f   libmng:libmng_pixels.obj
 0001:00078a40       _mng_promote_replicate_2_16 10079a40 f   libmng:libmng_pixels.obj
 0001:00078a60       _mng_promote_replicate_4_8 10079a60 f   libmng:libmng_pixels.obj
 0001:00078a70       _mng_promote_replicate_4_16 10079a70 f   libmng:libmng_pixels.obj
 0001:00078a90       _mng_promote_replicate_8_16 10079a90 f   libmng:libmng_pixels.obj
 0001:00078aa0       _mng_promote_zerofill_1_2  10079aa0 f   libmng:libmng_pixels.obj
 0001:00078ab0       _mng_promote_zerofill_1_4  10079ab0 f   libmng:libmng_pixels.obj
 0001:00078ac0       _mng_promote_zerofill_1_8  10079ac0 f   libmng:libmng_pixels.obj
 0001:00078ad0       _mng_promote_zerofill_1_16 10079ad0 f   libmng:libmng_pixels.obj
 0001:00078ae0       _mng_promote_zerofill_2_4  10079ae0 f   libmng:libmng_pixels.obj
 0001:00078af0       _mng_promote_zerofill_2_8  10079af0 f   libmng:libmng_pixels.obj
 0001:00078b00       _mng_promote_zerofill_2_16 10079b00 f   libmng:libmng_pixels.obj
 0001:00078b10       _mng_promote_zerofill_4_8  10079b10 f   libmng:libmng_pixels.obj
 0001:00078b20       _mng_promote_zerofill_4_16 10079b20 f   libmng:libmng_pixels.obj
 0001:00078b30       _mng_promote_zerofill_8_16 10079b30 f   libmng:libmng_pixels.obj
 0001:00078b40       _mng_promote_g8_g8         10079b40 f   libmng:libmng_pixels.obj
 0001:00078bb0       _mng_promote_g8_g16        10079bb0 f   libmng:libmng_pixels.obj
 0001:00078c20       _mng_promote_g8_ga8        10079c20 f   libmng:libmng_pixels.obj
 0001:00078ca0       _mng_promote_g8_ga16       10079ca0 f   libmng:libmng_pixels.obj
 0001:00078d30       _mng_promote_g16_ga16      10079d30 f   libmng:libmng_pixels.obj
 0001:00078da0       _mng_promote_g8_rgb8       10079da0 f   libmng:libmng_pixels.obj
 0001:00078e10       _mng_promote_g8_rgb16      10079e10 f   libmng:libmng_pixels.obj
 0001:00078e90       _mng_promote_g16_rgb16     10079e90 f   libmng:libmng_pixels.obj
 0001:00078ee0       _mng_promote_g8_rgba8      10079ee0 f   libmng:libmng_pixels.obj
 0001:00078f70       _mng_promote_g8_rgba16     10079f70 f   libmng:libmng_pixels.obj
 0001:00079010       _mng_promote_g16_rgba16    1007a010 f   libmng:libmng_pixels.obj
 0001:00079080       _mng_promote_ga8_ga16      1007a080 f   libmng:libmng_pixels.obj
 0001:00079110       _mng_promote_ga8_rgba8     1007a110 f   libmng:libmng_pixels.obj
 0001:00079160       _mng_promote_ga8_rgba16    1007a160 f   libmng:libmng_pixels.obj
 0001:00079200       _mng_promote_ga16_rgba16   1007a200 f   libmng:libmng_pixels.obj
 0001:00079250       _mng_promote_rgb8_rgb16    1007a250 f   libmng:libmng_pixels.obj
 0001:00079320       _mng_promote_rgb8_rgba8    1007a320 f   libmng:libmng_pixels.obj
 0001:000793d0       _mng_promote_rgb8_rgba16   1007a3d0 f   libmng:libmng_pixels.obj
 0001:000794f0       _mng_promote_rgb16_rgba16  1007a4f0 f   libmng:libmng_pixels.obj
 0001:000795a0       _mng_promote_idx8_rgb8     1007a5a0 f   libmng:libmng_pixels.obj
 0001:00079620       _mng_promote_idx8_rgb16    1007a620 f   libmng:libmng_pixels.obj
 0001:00079720       _mng_promote_idx8_rgba8    1007a720 f   libmng:libmng_pixels.obj
 0001:000797c0       _mng_promote_idx8_rgba16   1007a7c0 f   libmng:libmng_pixels.obj
 0001:00079900       _mng_promote_rgba8_rgba16  1007a900 f   libmng:libmng_pixels.obj
 0001:000799f0       _mng_process_g1            1007a9f0 f   libmng:libmng_pixels.obj
 0001:00079b10       _mng_process_g2            1007ab10 f   libmng:libmng_pixels.obj
 0001:00079c80       _mng_process_g4            1007ac80 f   libmng:libmng_pixels.obj
 0001:00079de0       _mng_process_g8            1007ade0 f   libmng:libmng_pixels.obj
 0001:00079ea0       _mng_process_g16           1007aea0 f   libmng:libmng_pixels.obj
 0001:00079fe0       _mng_process_rgb8          1007afe0 f   libmng:libmng_pixels.obj
 0001:0007a0f0       _mng_process_rgb16         1007b0f0 f   libmng:libmng_pixels.obj
 0001:0007a2f0       _mng_process_idx1          1007b2f0 f   libmng:libmng_pixels.obj
 0001:0007a4d0       _mng_process_idx2          1007b4d0 f   libmng:libmng_pixels.obj
 0001:0007a6c0       _mng_process_idx4          1007b6c0 f   libmng:libmng_pixels.obj
 0001:0007a8b0       _mng_process_idx8          1007b8b0 f   libmng:libmng_pixels.obj
 0001:0007aa20       _mng_process_ga8           1007ba20 f   libmng:libmng_pixels.obj
 0001:0007aa80       _mng_process_ga16          1007ba80 f   libmng:libmng_pixels.obj
 0001:0007ab30       _mng_process_rgba16        1007bb30 f   libmng:libmng_pixels.obj
 0001:0007ab30       _mng_process_rgba8         1007bb30 f   libmng:libmng_pixels.obj
 0001:0007ab70       _mng_init_g1_ni            1007bb70 f   libmng:libmng_pixels.obj
 0001:0007ac40       _mng_init_g1_i             1007bc40 f   libmng:libmng_pixels.obj
 0001:0007ad20       _mng_init_g2_ni            1007bd20 f   libmng:libmng_pixels.obj
 0001:0007adf0       _mng_init_g2_i             1007bdf0 f   libmng:libmng_pixels.obj
 0001:0007aed0       _mng_init_g4_ni            1007bed0 f   libmng:libmng_pixels.obj
 0001:0007afa0       _mng_init_g4_i             1007bfa0 f   libmng:libmng_pixels.obj
 0001:0007b070       _mng_init_g8_ni            1007c070 f   libmng:libmng_pixels.obj
 0001:0007b130       _mng_init_g8_i             1007c130 f   libmng:libmng_pixels.obj
 0001:0007b200       _mng_init_g16_ni           1007c200 f   libmng:libmng_pixels.obj
 0001:0007b2d0       _mng_init_g16_i            1007c2d0 f   libmng:libmng_pixels.obj
 0001:0007b3a0       _mng_init_rgb8_ni          1007c3a0 f   libmng:libmng_pixels.obj
 0001:0007b470       _mng_init_rgb8_i           1007c470 f   libmng:libmng_pixels.obj
 0001:0007b540       _mng_init_rgb16_ni         1007c540 f   libmng:libmng_pixels.obj
 0001:0007b610       _mng_init_rgb16_i          1007c610 f   libmng:libmng_pixels.obj
 0001:0007b6e0       _mng_init_idx1_ni          1007c6e0 f   libmng:libmng_pixels.obj
 0001:0007b7b0       _mng_init_idx1_i           1007c7b0 f   libmng:libmng_pixels.obj
 0001:0007b890       _mng_init_idx2_ni          1007c890 f   libmng:libmng_pixels.obj
 0001:0007b960       _mng_init_idx2_i           1007c960 f   libmng:libmng_pixels.obj
 0001:0007ba40       _mng_init_idx4_ni          1007ca40 f   libmng:libmng_pixels.obj
 0001:0007bb10       _mng_init_idx4_i           1007cb10 f   libmng:libmng_pixels.obj
 0001:0007bbe0       _mng_init_idx8_ni          1007cbe0 f   libmng:libmng_pixels.obj
 0001:0007bca0       _mng_init_idx8_i           1007cca0 f   libmng:libmng_pixels.obj
 0001:0007bd70       _mng_init_ga8_ni           1007cd70 f   libmng:libmng_pixels.obj
 0001:0007be40       _mng_init_ga8_i            1007ce40 f   libmng:libmng_pixels.obj
 0001:0007bf10       _mng_init_ga16_ni          1007cf10 f   libmng:libmng_pixels.obj
 0001:0007bfe0       _mng_init_ga16_i           1007cfe0 f   libmng:libmng_pixels.obj
 0001:0007c0b0       _mng_init_rgba8_ni         1007d0b0 f   libmng:libmng_pixels.obj
 0001:0007c180       _mng_init_rgba8_i          1007d180 f   libmng:libmng_pixels.obj
 0001:0007c250       _mng_init_rgba16_ni        1007d250 f   libmng:libmng_pixels.obj
 0001:0007c320       _mng_init_rgba16_i         1007d320 f   libmng:libmng_pixels.obj
 0001:0007c3f0       _mng_init_jpeg_a1_ni       1007d3f0 f   libmng:libmng_pixels.obj
 0001:0007c4b0       _mng_init_jpeg_a2_ni       1007d4b0 f   libmng:libmng_pixels.obj
 0001:0007c570       _mng_init_jpeg_a4_ni       1007d570 f   libmng:libmng_pixels.obj
 0001:0007c620       _mng_init_jpeg_a8_ni       1007d620 f   libmng:libmng_pixels.obj
 0001:0007c6d0       _mng_init_jpeg_a16_ni      1007d6d0 f   libmng:libmng_pixels.obj
 0001:0007c790       _mng_init_rowproc          1007d790 f   libmng:libmng_pixels.obj
 0001:0007c850       _mng_next_row              1007d850 f   libmng:libmng_pixels.obj
 0001:0007c990       _mng_cleanup_rowproc       1007d990 f   libmng:libmng_pixels.obj
 0001:0007ca30       _mng_display_jpeg_rows     1007da30 f   libmng:libmng_pixels.obj
 0001:0007cad0       _mng_next_jpeg_row         1007dad0 f   libmng:libmng_pixels.obj
 0001:0007cb60       _mng_magnify_g8_x1         1007db60 f   libmng:libmng_pixels.obj
 0001:0007cbc0       _mng_magnify_g8_x2         1007dbc0 f   libmng:libmng_pixels.obj
 0001:0007cca0       _mng_magnify_g8_x3         1007dca0 f   libmng:libmng_pixels.obj
 0001:0007cd80       _mng_magnify_rgb8_x1       1007dd80 f   libmng:libmng_pixels.obj
 0001:0007ce10       _mng_magnify_rgb8_x2       1007de10 f   libmng:libmng_pixels.obj
 0001:0007cf80       _mng_magnify_rgb8_x3       1007df80 f   libmng:libmng_pixels.obj
 0001:0007d080       _mng_magnify_ga8_x1        1007e080 f   libmng:libmng_pixels.obj
 0001:0007d0f0       _mng_magnify_ga8_x2        1007e0f0 f   libmng:libmng_pixels.obj
 0001:0007d210       _mng_magnify_ga8_x3        1007e210 f   libmng:libmng_pixels.obj
 0001:0007d2f0       _mng_magnify_ga8_x4        1007e2f0 f   libmng:libmng_pixels.obj
 0001:0007d450       _mng_magnify_ga8_x5        1007e450 f   libmng:libmng_pixels.obj
 0001:0007d5a0       _mng_magnify_rgba8_x1      1007e5a0 f   libmng:libmng_pixels.obj
 0001:0007d630       _mng_magnify_rgba8_x2      1007e630 f   libmng:libmng_pixels.obj
 0001:0007d7e0       _mng_magnify_rgba8_x3      1007e7e0 f   libmng:libmng_pixels.obj
 0001:0007d900       _mng_magnify_rgba8_x4      1007e900 f   libmng:libmng_pixels.obj
 0001:0007db40       _mng_magnify_rgba8_x5      1007eb40 f   libmng:libmng_pixels.obj
 0001:0007dcd0       _mng_magnify_g8_y1         1007ecd0 f   libmng:libmng_pixels.obj
 0001:0007dcf0       _mng_magnify_g8_y2         1007ecf0 f   libmng:libmng_pixels.obj
 0001:0007dd80       _mng_magnify_g8_y3         1007ed80 f   libmng:libmng_pixels.obj
 0001:0007dde0       _mng_magnify_rgb8_y1       1007ede0 f   libmng:libmng_pixels.obj
 0001:0007de00       _mng_magnify_rgb8_y2       1007ee00 f   libmng:libmng_pixels.obj
 0001:0007dee0       _mng_magnify_rgb8_y3       1007eee0 f   libmng:libmng_pixels.obj
 0001:0007df40       _mng_magnify_ga8_y2        1007ef40 f   libmng:libmng_pixels.obj
 0001:0007e000       _mng_magnify_ga8_y4        1007f000 f   libmng:libmng_pixels.obj
 0001:0007e0e0       _mng_magnify_ga8_y5        1007f0e0 f   libmng:libmng_pixels.obj
 0001:0007e1c0       _mng_magnify_rgba8_y2      1007f1c0 f   libmng:libmng_pixels.obj
 0001:0007e2d0       _mng_magnify_rgba8_y3      1007f2d0 f   libmng:libmng_pixels.obj
 0001:0007e2d0       _mng_magnify_ga16_y3       1007f2d0 f   libmng:libmng_pixels.obj
 0001:0007e350       _mng_magnify_rgba8_y4      1007f350 f   libmng:libmng_pixels.obj
 0001:0007e4f0       _mng_magnify_rgba8_y5      1007f4f0 f   libmng:libmng_pixels.obj
 0001:0007e5f0       _mng_magnify_g16_x1        1007f5f0 f   libmng:libmng_pixels.obj
 0001:0007e650       _mng_magnify_g16_x2        1007f650 f   libmng:libmng_pixels.obj
 0001:0007e7a0       _mng_magnify_g16_x3        1007f7a0 f   libmng:libmng_pixels.obj
 0001:0007e890       _mng_magnify_rgb16_x1      1007f890 f   libmng:libmng_pixels.obj
 0001:0007e920       _mng_magnify_rgb16_x2      1007f920 f   libmng:libmng_pixels.obj
 0001:0007eb50       _mng_magnify_rgb16_x3      1007fb50 f   libmng:libmng_pixels.obj
 0001:0007ec50       _mng_magnify_ga16_x1       1007fc50 f   libmng:libmng_pixels.obj
 0001:0007ecc0       _mng_magnify_ga16_x2       1007fcc0 f   libmng:libmng_pixels.obj
 0001:0007ee80       _mng_magnify_ga16_x3       1007fe80 f   libmng:libmng_pixels.obj
 0001:0007ef70       _mng_magnify_ga16_x4       1007ff70 f   libmng:libmng_pixels.obj
 0001:0007f150       _mng_magnify_ga16_x5       10080150 f   libmng:libmng_pixels.obj
 0001:0007f350       _mng_magnify_rgba16_x1     10080350 f   libmng:libmng_pixels.obj
 0001:0007f3f0       _mng_magnify_rgba16_x2     100803f0 f   libmng:libmng_pixels.obj
 0001:0007f6a0       _mng_magnify_rgba16_x3     100806a0 f   libmng:libmng_pixels.obj
 0001:0007f7d0       _mng_magnify_rgba16_x4     100807d0 f   libmng:libmng_pixels.obj
 0001:0007fb90       _mng_magnify_rgba16_x5     10080b90 f   libmng:libmng_pixels.obj
 0001:0007fdc0       _mng_magnify_ga8_y1        10080dc0 f   libmng:libmng_pixels.obj
 0001:0007fdc0       _mng_magnify_g16_y1        10080dc0 f   libmng:libmng_pixels.obj
 0001:0007fde0       _mng_magnify_g16_y2        10080de0 f   libmng:libmng_pixels.obj
 0001:0007fec0       _mng_magnify_ga8_y3        10080ec0 f   libmng:libmng_pixels.obj
 0001:0007fec0       _mng_magnify_g16_y3        10080ec0 f   libmng:libmng_pixels.obj
 0001:0007ff30       _mng_magnify_rgb16_y1      10080f30 f   libmng:libmng_pixels.obj
 0001:0007ff50       _mng_magnify_rgb16_y2      10080f50 f   libmng:libmng_pixels.obj
 0001:000800f0       _mng_magnify_rgb16_y3      100810f0 f   libmng:libmng_pixels.obj
 0001:00080160       _mng_magnify_rgba8_y1      10081160 f   libmng:libmng_pixels.obj
 0001:00080160       _mng_magnify_ga16_y1       10081160 f   libmng:libmng_pixels.obj
 0001:00080190       _mng_magnify_ga16_y2       10081190 f   libmng:libmng_pixels.obj
 0001:000802c0       _mng_magnify_ga16_y4       100812c0 f   libmng:libmng_pixels.obj
 0001:00080420       _mng_magnify_ga16_y5       10081420 f   libmng:libmng_pixels.obj
 0001:000805a0       _mng_magnify_rgba16_y1     100815a0 f   libmng:libmng_pixels.obj
 0001:000805d0       _mng_magnify_rgba16_y2     100815d0 f   libmng:libmng_pixels.obj
 0001:000807d0       _mng_magnify_rgba16_y3     100817d0 f   libmng:libmng_pixels.obj
 0001:00080850       _mng_magnify_rgba16_y4     10081850 f   libmng:libmng_pixels.obj
 0001:00080b70       _mng_magnify_rgba16_y5     10081b70 f   libmng:libmng_pixels.obj
 0001:00080d10       _mng_composeover_rgba8     10081d10 f   libmng:libmng_pixels.obj
 0001:00080ef0       _mng_composeover_rgba16    10081ef0 f   libmng:libmng_pixels.obj
 0001:000811f0       _mng_composeunder_rgba8    100821f0 f   libmng:libmng_pixels.obj
 0001:000813c0       _mng_composeunder_rgba16   100823c0 f   libmng:libmng_pixels.obj
 0001:000816b0       _mng_flip_rgba8            100826b0 f   libmng:libmng_pixels.obj
 0001:00081700       _mng_flip_rgba16           10082700 f   libmng:libmng_pixels.obj
 0001:00081750       _mng_tile_rgba8            10082750 f   libmng:libmng_pixels.obj
 0001:000817c0       _mng_tile_rgba16           100827c0 f   libmng:libmng_pixels.obj
 0001:00081840       _mng_store_error           10082840 f   libmng:libmng_error.obj
 0001:00081910       _mng_process_error         10082910 f   libmng:libmng_error.obj
 0001:00081970       _mng_skip_input_data       10082970 f   libmng:libmng_jpeg.obj
 0001:000819c0       _mng_skip_input_data2      100829c0 f   libmng:libmng_jpeg.obj
 0001:00081a10       _mng_error_exit            10082a10 f   libmng:libmng_jpeg.obj
 0001:00081a40       _mngjpeg_initialize        10082a40 f   libmng:libmng_jpeg.obj
 0001:00081c60       _mngjpeg_cleanup           10082c60 f   libmng:libmng_jpeg.obj
 0001:00081eb0       _mngjpeg_decompressinit    10082eb0 f   libmng:libmng_jpeg.obj
 0001:00081ff0       _mngjpeg_decompressdata    10082ff0 f   libmng:libmng_jpeg.obj
 0001:00082610       _mngjpeg_decompressfree    10083610 f   libmng:libmng_jpeg.obj
 0001:00082690       _mngjpeg_decompressinit2   10083690 f   libmng:libmng_jpeg.obj
 0001:000827d0       _mngjpeg_decompressdata2   100837d0 f   libmng:libmng_jpeg.obj
 0001:00082d80       _mngjpeg_decompressfree2   10083d80 f   libmng:libmng_jpeg.obj
 0001:00082ef0       _mng_get_int32             10083ef0 f   libmng:libmng_chunk_io.obj
 0001:00082ef0       _mng_get_uint32            10083ef0 f   libmng:libmng_chunk_io.obj
 0001:00082f10       _mng_inflate_buffer        10083f10 f   libmng:libmng_chunk_io.obj
 0001:00083630       _mng_read_ihdr             10084630 f   libmng:libmng_chunk_io.obj
 0001:00083980       _mng_read_plte             10084980 f   libmng:libmng_chunk_io.obj
 0001:00083d50       _mng_read_idat             10084d50 f   libmng:libmng_chunk_io.obj
 0001:00083ec0       _mng_read_iend             10084ec0 f   libmng:libmng_chunk_io.obj
 0001:00083fb0       _mng_read_trns             10084fb0 f   libmng:libmng_chunk_io.obj
 0001:00084560       _mng_read_gama             10085560 f   libmng:libmng_chunk_io.obj
 0001:00084790       _mng_read_chrm             10085790 f   libmng:libmng_chunk_io.obj
 0001:00084b20       _mng_read_srgb             10085b20 f   libmng:libmng_chunk_io.obj
 0001:00084d40       _mng_read_iccp             10085d40 f   libmng:libmng_chunk_io.obj
 0001:00085280       _mng_read_text             10086280 f   libmng:libmng_chunk_io.obj
 0001:000854d0       _mng_read_ztxt             100864d0 f   libmng:libmng_chunk_io.obj
 0001:00085820       _mng_read_itxt             10086820 f   libmng:libmng_chunk_io.obj
 0001:00085f60       _mng_read_bkgd             10086f60 f   libmng:libmng_chunk_io.obj
 0001:00086380       _mng_read_phys             10087380 f   libmng:libmng_chunk_io.obj
 0001:000864c0       _mng_read_sbit             100874c0 f   libmng:libmng_chunk_io.obj
 0001:000866e0       _mng_read_splt             100876e0 f   libmng:libmng_chunk_io.obj
 0001:000868f0       _mng_read_hist             100878f0 f   libmng:libmng_chunk_io.obj
 0001:00086a20       _mng_read_time             10087a20 f   libmng:libmng_chunk_io.obj
 0001:00086af0       _mng_read_mhdr             10087af0 f   libmng:libmng_chunk_io.obj
 0001:00086d90       _mng_read_mend             10087d90 f   libmng:libmng_chunk_io.obj
 0001:00086e50       _mng_read_loop             10087e50 f   libmng:libmng_chunk_io.obj
 0001:000870c0       _mng_read_endl             100880c0 f   libmng:libmng_chunk_io.obj
 0001:00087190       _mng_read_defi             10088190 f   libmng:libmng_chunk_io.obj
 0001:00087420       _mng_read_basi             10088420 f   libmng:libmng_chunk_io.obj
 0001:00087780       _mng_read_clon             10088780 f   libmng:libmng_chunk_io.obj
 0001:000879a0       _mng_read_past             100889a0 f   libmng:libmng_chunk_io.obj
 0001:00087c40       _mng_read_disc             10088c40 f   libmng:libmng_chunk_io.obj
 0001:00087db0       _mng_read_back             10088db0 f   libmng:libmng_chunk_io.obj
 0001:00087fd0       _mng_read_fram             10088fd0 f   libmng:libmng_chunk_io.obj
 0001:00088440       _mng_read_move             10089440 f   libmng:libmng_chunk_io.obj
 0001:000885a0       _mng_read_clip             100895a0 f   libmng:libmng_chunk_io.obj
 0001:00088740       _mng_read_show             10089740 f   libmng:libmng_chunk_io.obj
 0001:000888f0       _mng_read_term             100898f0 f   libmng:libmng_chunk_io.obj
 0001:00088ab0       _mng_read_save             10089ab0 f   libmng:libmng_chunk_io.obj
 0001:00088e80       _mng_read_seek             10089e80 f   libmng:libmng_chunk_io.obj
 0001:00089040       _mng_read_expi             1008a040 f   libmng:libmng_chunk_io.obj
 0001:00089140       _mng_read_fpri             1008a140 f   libmng:libmng_chunk_io.obj
 0001:000894d0       _mng_read_need             1008a4d0 f   libmng:libmng_chunk_io.obj
 0001:00089670       _mng_read_phyg             1008a670 f   libmng:libmng_chunk_io.obj
 0001:00089730       _mng_read_jhdr             1008a730 f   libmng:libmng_chunk_io.obj
 0001:00089ad0       _mng_read_jdaa             1008aad0 f   libmng:libmng_chunk_io.obj
 0001:00089be0       _mng_read_jdat             1008abe0 f   libmng:libmng_chunk_io.obj
 0001:00089ce0       _mng_read_jsep             1008ace0 f   libmng:libmng_chunk_io.obj
 0001:00089d50       _mng_read_dhdr             1008ad50 f   libmng:libmng_chunk_io.obj
 0001:00089f60       _mng_read_prom             1008af60 f   libmng:libmng_chunk_io.obj
 0001:0008a0f0       _mng_read_ipng             1008b0f0 f   libmng:libmng_chunk_io.obj
 0001:0008a1c0       _mng_read_pplt             1008b1c0 f   libmng:libmng_chunk_io.obj
 0001:0008a840       _mng_read_ijng             1008b840 f   libmng:libmng_chunk_io.obj
 0001:0008a910       _mng_read_drop             1008b910 f   libmng:libmng_chunk_io.obj
 0001:0008aa30       _mng_read_dbyk             1008ba30 f   libmng:libmng_chunk_io.obj
 0001:0008ab60       _mng_read_ordr             1008bb60 f   libmng:libmng_chunk_io.obj
 0001:0008acb0       _mng_read_magn             1008bcb0 f   libmng:libmng_chunk_io.obj
 0001:0008b1f0       _mng_read_evnt             1008c1f0 f   libmng:libmng_chunk_io.obj
 0001:0008b960       _mng_read_unknown          1008c960 f   libmng:libmng_chunk_io.obj
 0001:0008ba80       _mng_write_ihdr            1008ca80 f   libmng:libmng_chunk_io.obj
 0001:0008bb10       _mng_write_plte            1008cb10 f   libmng:libmng_chunk_io.obj
 0001:0008be50       _mng_write_trns            1008ce50 f   libmng:libmng_chunk_io.obj
 0001:0008bf90       _mng_write_gama            1008cf90 f   libmng:libmng_chunk_io.obj
 0001:0008bff0       _mng_write_chrm            1008cff0 f   libmng:libmng_chunk_io.obj
 0001:0008c120       _mng_write_srgb            1008d120 f   libmng:libmng_chunk_io.obj
 0001:0008c160       _mng_write_iccp            1008d160 f   libmng:libmng_chunk_io.obj
 0001:0008c290       _mng_write_text            1008d290 f   libmng:libmng_chunk_io.obj
 0001:0008c350       _mng_write_ztxt            1008d350 f   libmng:libmng_chunk_io.obj
 0001:0008c460       _mng_write_itxt            1008d460 f   libmng:libmng_chunk_io.obj
 0001:0008c5e0       _mng_write_bkgd            1008d5e0 f   libmng:libmng_chunk_io.obj
 0001:0008c6a0       _mng_write_phyg            1008d6a0 f   libmng:libmng_chunk_io.obj
 0001:0008c6a0       _mng_write_phys            1008d6a0 f   libmng:libmng_chunk_io.obj
 0001:0008c720       _mng_write_sbit            1008d720 f   libmng:libmng_chunk_io.obj
 0001:0008c880       _mng_write_splt            1008d880 f   libmng:libmng_chunk_io.obj
 0001:0008c960       _mng_write_hist            1008d960 f   libmng:libmng_chunk_io.obj
 0001:0008cce0       _mng_write_time            1008dce0 f   libmng:libmng_chunk_io.obj
 0001:0008cd40       _mng_write_mhdr            1008dd40 f   libmng:libmng_chunk_io.obj
 0001:0008ce40       _mng_write_iend            1008de40 f   libmng:libmng_chunk_io.obj
 0001:0008ce40       _mng_write_ijng            1008de40 f   libmng:libmng_chunk_io.obj
 0001:0008ce40       _mng_write_jsep            1008de40 f   libmng:libmng_chunk_io.obj
 0001:0008ce40       _mng_write_mend            1008de40 f   libmng:libmng_chunk_io.obj
 0001:0008ce40       _mng_write_ipng            1008de40 f   libmng:libmng_chunk_io.obj
 0001:0008ce60       _mng_write_loop            1008de60 f   libmng:libmng_chunk_io.obj
 0001:0008cf80       _mng_write_endl            1008df80 f   libmng:libmng_chunk_io.obj
 0001:0008cfb0       _mng_write_defi            1008dfb0 f   libmng:libmng_chunk_io.obj
 0001:0008d100       _mng_write_basi            1008e100 f   libmng:libmng_chunk_io.obj
 0001:0008d230       _mng_write_clon            1008e230 f   libmng:libmng_chunk_io.obj
 0001:0008d320       _mng_write_past            1008e320 f   libmng:libmng_chunk_io.obj
 0001:0008d520       _mng_write_disc            1008e520 f   libmng:libmng_chunk_io.obj
 0001:0008d890       _mng_write_back            1008e890 f   libmng:libmng_chunk_io.obj
 0001:0008d930       _mng_write_fram            1008e930 f   libmng:libmng_chunk_io.obj
 0001:0008db40       _mng_write_move            1008eb40 f   libmng:libmng_chunk_io.obj
 0001:0008dbd0       _mng_write_clip            1008ebd0 f   libmng:libmng_chunk_io.obj
 0001:0008dca0       _mng_write_show            1008eca0 f   libmng:libmng_chunk_io.obj
 0001:0008dd20       _mng_write_term            1008ed20 f   libmng:libmng_chunk_io.obj
 0001:0008dda0       _mng_write_save            1008eda0 f   libmng:libmng_chunk_io.obj
 0001:0008dfb0       _mng_write_seek            1008efb0 f   libmng:libmng_chunk_io.obj
 0001:0008dff0       _mng_write_expi            1008eff0 f   libmng:libmng_chunk_io.obj
 0001:0008e050       _mng_write_fpri            1008f050 f   libmng:libmng_chunk_io.obj
 0001:0008e080       _mng_write_need            1008f080 f   libmng:libmng_chunk_io.obj
 0001:0008e0c0       _mng_write_jhdr            1008f0c0 f   libmng:libmng_chunk_io.obj
 0001:0008e160       _mng_write_jdaa            1008f160 f   libmng:libmng_chunk_io.obj
 0001:0008e160       _mng_write_idat            1008f160 f   libmng:libmng_chunk_io.obj
 0001:0008e160       _mng_write_jdat            1008f160 f   libmng:libmng_chunk_io.obj
 0001:0008e1a0       _mng_write_dhdr            1008f1a0 f   libmng:libmng_chunk_io.obj
 0001:0008e280       _mng_write_prom            1008f280 f   libmng:libmng_chunk_io.obj
 0001:0008e2c0       _mng_write_pplt            1008f2c0 f   libmng:libmng_chunk_io.obj
 0001:0008e3e0       _mng_write_drop            1008f3e0 f   libmng:libmng_chunk_io.obj
 0001:0008e460       _mng_write_dbyk            1008f460 f   libmng:libmng_chunk_io.obj
 0001:0008e4d0       _mng_write_ordr            1008f4d0 f   libmng:libmng_chunk_io.obj
 0001:0008e550       _mng_write_magn            1008f550 f   libmng:libmng_chunk_io.obj
 0001:0008e680       _mng_write_evnt            1008f680 f   libmng:libmng_chunk_io.obj
 0001:0008e940       _mng_write_unknown         1008f940 f   libmng:libmng_chunk_io.obj
 0001:0008e960       _mng_add_chunk             1008f960 f   libmng:libmng_chunk_prc.obj
 0001:0008e9f0       _mng_init_plte             1008f9f0 f   libmng:libmng_chunk_prc.obj
 0001:0008ea40       _mng_init_trns             1008fa40 f   libmng:libmng_chunk_prc.obj
 0001:0008ea90       _mng_init_splt             1008fa90 f   libmng:libmng_chunk_prc.obj
 0001:0008ea90       _mng_init_clip             1008fa90 f   libmng:libmng_chunk_prc.obj
 0001:0008ea90       _mng_init_iccp             1008fa90 f   libmng:libmng_chunk_prc.obj
 0001:0008ea90       _mng_init_basi             1008fa90 f   libmng:libmng_chunk_prc.obj
 0001:0008ead0       _mng_init_itxt             1008fad0 f   libmng:libmng_chunk_prc.obj
 0001:0008ead0       _mng_init_chrm             1008fad0 f   libmng:libmng_chunk_prc.obj
 0001:0008ead0       _mng_init_defi             1008fad0 f   libmng:libmng_chunk_prc.obj
 0001:0008eb10       _mng_init_hist             1008fb10 f   libmng:libmng_chunk_prc.obj
 0001:0008eb60       _mng_init_iend             1008fb60 f   libmng:libmng_chunk_prc.obj
 0001:0008eb60       _mng_init_mend             1008fb60 f   libmng:libmng_chunk_prc.obj
 0001:0008eb60       _mng_init_jsep             1008fb60 f   libmng:libmng_chunk_prc.obj
 0001:0008eb60       _mng_init_ijng             1008fb60 f   libmng:libmng_chunk_prc.obj
 0001:0008eb60       _mng_init_ipng             1008fb60 f   libmng:libmng_chunk_prc.obj
 0001:0008eba0       _mng_init_mhdr             1008fba0 f   libmng:libmng_chunk_prc.obj
 0001:0008eba0       _mng_init_loop             1008fba0 f   libmng:libmng_chunk_prc.obj
 0001:0008ebe0       _mng_init_past             1008fbe0 f   libmng:libmng_chunk_prc.obj
 0001:0008ebe0       _mng_init_ztxt             1008fbe0 f   libmng:libmng_chunk_prc.obj
 0001:0008ebe0       _mng_init_clon             1008fbe0 f   libmng:libmng_chunk_prc.obj
 0001:0008ebe0       _mng_init_magn             1008fbe0 f   libmng:libmng_chunk_prc.obj
 0001:0008ebe0       _mng_init_dhdr             1008fbe0 f   libmng:libmng_chunk_prc.obj
 0001:0008ec20       _mng_init_fram             1008fc20 f   libmng:libmng_chunk_prc.obj
 0001:0008ec60       _mng_init_jhdr             1008fc60 f   libmng:libmng_chunk_prc.obj
 0001:0008ec60       _mng_init_phys             1008fc60 f   libmng:libmng_chunk_prc.obj
 0001:0008ec60       _mng_init_text             1008fc60 f   libmng:libmng_chunk_prc.obj
 0001:0008ec60       _mng_init_phyg             1008fc60 f   libmng:libmng_chunk_prc.obj
 0001:0008ec60       _mng_init_dbyk             1008fc60 f   libmng:libmng_chunk_prc.obj
 0001:0008ec60       _mng_init_move             1008fc60 f   libmng:libmng_chunk_prc.obj
 0001:0008ec60       _mng_init_ihdr             1008fc60 f   libmng:libmng_chunk_prc.obj
 0001:0008eca0       _mng_init_bkgd             1008fca0 f   libmng:libmng_chunk_prc.obj
 0001:0008eca0       _mng_init_term             1008fca0 f   libmng:libmng_chunk_prc.obj
 0001:0008eca0       _mng_init_back             1008fca0 f   libmng:libmng_chunk_prc.obj
 0001:0008eca0       _mng_init_jdaa             1008fca0 f   libmng:libmng_chunk_prc.obj
 0001:0008eca0       _mng_init_idat             1008fca0 f   libmng:libmng_chunk_prc.obj
 0001:0008eca0       _mng_init_save             1008fca0 f   libmng:libmng_chunk_prc.obj
 0001:0008eca0       _mng_init_jdat             1008fca0 f   libmng:libmng_chunk_prc.obj
 0001:0008eca0       _mng_init_expi             1008fca0 f   libmng:libmng_chunk_prc.obj
 0001:0008ece0       _mng_init_srgb             1008fce0 f   libmng:libmng_chunk_prc.obj
 0001:0008ece0       _mng_init_fpri             1008fce0 f   libmng:libmng_chunk_prc.obj
 0001:0008ece0       _mng_init_prom             1008fce0 f   libmng:libmng_chunk_prc.obj
 0001:0008ece0       _mng_init_endl             1008fce0 f   libmng:libmng_chunk_prc.obj
 0001:0008ed20       _mng_init_pplt             1008fd20 f   libmng:libmng_chunk_prc.obj
 0001:0008ed70       _mng_init_ordr             1008fd70 f   libmng:libmng_chunk_prc.obj
 0001:0008ed70       _mng_init_sbit             1008fd70 f   libmng:libmng_chunk_prc.obj
 0001:0008ed70       _mng_init_show             1008fd70 f   libmng:libmng_chunk_prc.obj
 0001:0008ed70       _mng_init_seek             1008fd70 f   libmng:libmng_chunk_prc.obj
 0001:0008ed70       _mng_init_disc             1008fd70 f   libmng:libmng_chunk_prc.obj
 0001:0008ed70       _mng_init_evnt             1008fd70 f   libmng:libmng_chunk_prc.obj
 0001:0008ed70       _mng_init_drop             1008fd70 f   libmng:libmng_chunk_prc.obj
 0001:0008ed70       _mng_init_gama             1008fd70 f   libmng:libmng_chunk_prc.obj
 0001:0008ed70       _mng_init_time             1008fd70 f   libmng:libmng_chunk_prc.obj
 0001:0008ed70       _mng_init_unknown          1008fd70 f   libmng:libmng_chunk_prc.obj
 0001:0008ed70       _mng_init_need             1008fd70 f   libmng:libmng_chunk_prc.obj
 0001:0008edb0       _mng_free_plte             1008fdb0 f   libmng:libmng_chunk_prc.obj
 0001:0008ede0       _mng_free_trns             1008fde0 f   libmng:libmng_chunk_prc.obj
 0001:0008ee10       _mng_free_iccp             1008fe10 f   libmng:libmng_chunk_prc.obj
 0001:0008ee70       _mng_free_text             1008fe70 f   libmng:libmng_chunk_prc.obj
 0001:0008eed0       _mng_free_ztxt             1008fed0 f   libmng:libmng_chunk_prc.obj
 0001:0008ef30       _mng_free_itxt             1008ff30 f   libmng:libmng_chunk_prc.obj
 0001:0008efc0       _mng_free_back             1008ffc0 f   libmng:libmng_chunk_prc.obj
 0001:0008efc0       _mng_free_ani_move         1008ffc0 f   libmng:libmng_object_prc.obj
 0001:0008efc0       _mng_free_term             1008ffc0 f   libmng:libmng_chunk_prc.obj
 0001:0008efc0       _mng_free_bkgd             1008ffc0 f   libmng:libmng_chunk_prc.obj
 0001:0008efe0       _mng_free_ani_basi         1008ffe0 f   libmng:libmng_object_prc.obj
 0001:0008efe0       _mng_free_sbit             1008ffe0 f   libmng:libmng_chunk_prc.obj
 0001:0008efe0       _mng_free_time             1008ffe0 f   libmng:libmng_chunk_prc.obj
 0001:0008efe0       _mng_free_ani_back         1008ffe0 f   libmng:libmng_object_prc.obj
 0001:0008efe0       _mng_free_show             1008ffe0 f   libmng:libmng_chunk_prc.obj
 0001:0008efe0       _mng_free_gama             1008ffe0 f   libmng:libmng_chunk_prc.obj
 0001:0008efe0       _mng_free_ani_term         1008ffe0 f   libmng:libmng_object_prc.obj
 0001:0008f000       _mng_free_splt             10090000 f   libmng:libmng_chunk_prc.obj
 0001:0008f070       _mng_free_hist             10090070 f   libmng:libmng_chunk_prc.obj
 0001:0008f0a0       _mng_free_mhdr             100900a0 f   libmng:libmng_chunk_prc.obj
 0001:0008f0c0       _mng_free_loop             100900c0 f   libmng:libmng_chunk_prc.obj
 0001:0008f100       _mng_free_chrm             10090100 f   libmng:libmng_chunk_prc.obj
 0001:0008f100       _mng_free_defi             10090100 f   libmng:libmng_chunk_prc.obj
 0001:0008f120       _mng_free_dhdr             10090120 f   libmng:libmng_chunk_prc.obj
 0001:0008f120       _mng_free_magn             10090120 f   libmng:libmng_chunk_prc.obj
 0001:0008f120       _mng_free_ani_clip         10090120 f   libmng:libmng_object_prc.obj
 0001:0008f120       _mng_free_clon             10090120 f   libmng:libmng_chunk_prc.obj
 0001:0008f140       _mng_free_past             10090140 f   libmng:libmng_chunk_prc.obj
 0001:0008f190       _mng_free_disc             10090190 f   libmng:libmng_chunk_prc.obj
 0001:0008f1d0       _mng_free_fram             100901d0 f   libmng:libmng_chunk_prc.obj
 0001:0008f230       _mng_free_basi             10090230 f   libmng:libmng_chunk_prc.obj
 0001:0008f230       _mng_free_clip             10090230 f   libmng:libmng_chunk_prc.obj
 0001:0008f250       _mng_free_save             10090250 f   libmng:libmng_chunk_prc.obj
 0001:0008f2d0       _mng_free_expi             100902d0 f   libmng:libmng_chunk_prc.obj
 0001:0008f310       _mng_free_prom             10090310 f   libmng:libmng_chunk_prc.obj
 0001:0008f310       _mng_free_ani_endl         10090310 f   libmng:libmng_object_prc.obj
 0001:0008f310       _mng_free_endl             10090310 f   libmng:libmng_chunk_prc.obj
 0001:0008f310       _mng_free_fpri             10090310 f   libmng:libmng_chunk_prc.obj
 0001:0008f310       _mng_free_ani_bkgd         10090310 f   libmng:libmng_object_prc.obj
 0001:0008f310       _mng_free_srgb             10090310 f   libmng:libmng_chunk_prc.obj
 0001:0008f310       _mng_free_ani_gama         10090310 f   libmng:libmng_object_prc.obj
 0001:0008f310       _mng_free_ani_show         10090310 f   libmng:libmng_object_prc.obj
 0001:0008f330       _mng_free_seek             10090330 f   libmng:libmng_chunk_prc.obj
 0001:0008f330       _mng_free_need             10090330 f   libmng:libmng_chunk_prc.obj
 0001:0008f370       _mng_free_idat             10090370 f   libmng:libmng_chunk_prc.obj
 0001:0008f370       _mng_free_jdat             10090370 f   libmng:libmng_chunk_prc.obj
 0001:0008f370       _mng_free_jdaa             10090370 f   libmng:libmng_chunk_prc.obj
 0001:0008f3b0       _mng_free_ipng             100903b0 f   libmng:libmng_chunk_prc.obj
 0001:0008f3b0       _mng_free_iend             100903b0 f   libmng:libmng_chunk_prc.obj
 0001:0008f3b0       _mng_free_ani_srgb         100903b0 f   libmng:libmng_object_prc.obj
 0001:0008f3b0       _mng_free_ijng             100903b0 f   libmng:libmng_chunk_prc.obj
 0001:0008f3b0       _mng_free_ani_prom         100903b0 f   libmng:libmng_object_prc.obj
 0001:0008f3b0       _mng_free_jsep             100903b0 f   libmng:libmng_chunk_prc.obj
 0001:0008f3b0       _mng_free_mend             100903b0 f   libmng:libmng_chunk_prc.obj
 0001:0008f3d0       _mng_free_pplt             100903d0 f   libmng:libmng_chunk_prc.obj
 0001:0008f400       _mng_free_drop             10090400 f   libmng:libmng_chunk_prc.obj
 0001:0008f440       _mng_free_dbyk             10090440 f   libmng:libmng_chunk_prc.obj
 0001:0008f480       _mng_free_ordr             10090480 f   libmng:libmng_chunk_prc.obj
 0001:0008f4c0       _mng_free_evnt             100904c0 f   libmng:libmng_chunk_prc.obj
 0001:0008f540       _mng_assign_ihdr           10090540 f   libmng:libmng_chunk_prc.obj
 0001:0008f5a0       _mng_assign_plte           100905a0 f   libmng:libmng_chunk_prc.obj
 0001:0008f600       _mng_assign_idat           10090600 f   libmng:libmng_chunk_prc.obj
 0001:0008f680       _mng_assign_iend           10090680 f   libmng:libmng_chunk_prc.obj
 0001:0008f6b0       _mng_assign_trns           100906b0 f   libmng:libmng_chunk_prc.obj
 0001:0008f790       _mng_assign_gama           10090790 f   libmng:libmng_chunk_prc.obj
 0001:0008f7d0       _mng_assign_chrm           100907d0 f   libmng:libmng_chunk_prc.obj
 0001:0008f830       _mng_assign_srgb           10090830 f   libmng:libmng_chunk_prc.obj
 0001:0008f860       _mng_assign_iccp           10090860 f   libmng:libmng_chunk_prc.obj
 0001:0008f920       _mng_assign_text           10090920 f   libmng:libmng_chunk_prc.obj
 0001:0008f9d0       _mng_assign_ztxt           100909d0 f   libmng:libmng_chunk_prc.obj
 0001:0008fa80       _mng_assign_itxt           10090a80 f   libmng:libmng_chunk_prc.obj
 0001:0008fba0       _mng_assign_bkgd           10090ba0 f   libmng:libmng_chunk_prc.obj
 0001:0008fc00       _mng_assign_phys           10090c00 f   libmng:libmng_chunk_prc.obj
 0001:0008fc50       _mng_assign_sbit           10090c50 f   libmng:libmng_chunk_prc.obj
 0001:0008fcb0       _mng_assign_splt           10090cb0 f   libmng:libmng_chunk_prc.obj
 0001:0008fd90       _mng_assign_hist           10090d90 f   libmng:libmng_chunk_prc.obj
 0001:0008fde0       _mng_assign_time           10090de0 f   libmng:libmng_chunk_prc.obj
 0001:0008fe40       _mng_assign_mhdr           10090e40 f   libmng:libmng_chunk_prc.obj
 0001:0008fea0       _mng_assign_mend           10090ea0 f   libmng:libmng_chunk_prc.obj
 0001:0008fed0       _mng_assign_loop           10090ed0 f   libmng:libmng_chunk_prc.obj
 0001:0008ff70       _mng_assign_endl           10090f70 f   libmng:libmng_chunk_prc.obj
 0001:0008ffa0       _mng_assign_defi           10090fa0 f   libmng:libmng_chunk_prc.obj
 0001:00090020       _mng_assign_basi           10091020 f   libmng:libmng_chunk_prc.obj
 0001:000900a0       _mng_assign_clon           100910a0 f   libmng:libmng_chunk_prc.obj
 0001:00090110       _mng_assign_past           10091110 f   libmng:libmng_chunk_prc.obj
 0001:000901b0       _mng_assign_disc           100911b0 f   libmng:libmng_chunk_prc.obj
 0001:00090230       _mng_assign_back           10091230 f   libmng:libmng_chunk_prc.obj
 0001:00090290       _mng_assign_fram           10091290 f   libmng:libmng_chunk_prc.obj
 0001:000903b0       _mng_assign_move           100913b0 f   libmng:libmng_chunk_prc.obj
 0001:00090400       _mng_assign_clip           10091400 f   libmng:libmng_chunk_prc.obj
 0001:00090460       _mng_assign_show           10091460 f   libmng:libmng_chunk_prc.obj
 0001:000904b0       _mng_assign_term           100914b0 f   libmng:libmng_chunk_prc.obj
 0001:00090500       _mng_assign_save           10091500 f   libmng:libmng_chunk_prc.obj
 0001:000905e0       _mng_assign_seek           100915e0 f   libmng:libmng_chunk_prc.obj
 0001:00090660       _mng_assign_expi           10091660 f   libmng:libmng_chunk_prc.obj
 0001:000906e0       _mng_assign_fpri           100916e0 f   libmng:libmng_chunk_prc.obj
 0001:00090720       _mng_assign_need           10091720 f   libmng:libmng_chunk_prc.obj
 0001:000907a0       _mng_assign_phyg           100917a0 f   libmng:libmng_chunk_prc.obj
 0001:000907f0       _mng_assign_jhdr           100917f0 f   libmng:libmng_chunk_prc.obj
 0001:00090860       _mng_assign_jdaa           10091860 f   libmng:libmng_chunk_prc.obj
 0001:000908e0       _mng_assign_jdat           100918e0 f   libmng:libmng_chunk_prc.obj
 0001:00090960       _mng_assign_jsep           10091960 f   libmng:libmng_chunk_prc.obj
 0001:00090990       _mng_assign_dhdr           10091990 f   libmng:libmng_chunk_prc.obj
 0001:000909f0       _mng_assign_prom           100919f0 f   libmng:libmng_chunk_prc.obj
 0001:00090a30       _mng_assign_ipng           10091a30 f   libmng:libmng_chunk_prc.obj
 0001:00090a60       _mng_assign_pplt           10091a60 f   libmng:libmng_chunk_prc.obj
 0001:00090ac0       _mng_assign_ijng           10091ac0 f   libmng:libmng_chunk_prc.obj
 0001:00090af0       _mng_assign_drop           10091af0 f   libmng:libmng_chunk_prc.obj
 0001:00090b70       _mng_assign_dbyk           10091b70 f   libmng:libmng_chunk_prc.obj
 0001:00090bf0       _mng_assign_ordr           10091bf0 f   libmng:libmng_chunk_prc.obj
 0001:00090c70       _mng_assign_magn           10091c70 f   libmng:libmng_chunk_prc.obj
 0001:00090cf0       _mng_assign_evnt           10091cf0 f   libmng:libmng_chunk_prc.obj
 0001:00090dd0       _mng_assign_unknown        10091dd0 f   libmng:libmng_chunk_prc.obj
 0001:00090f90       _mng_filter_a_row          10091f90 f   libmng:libmng_filter.obj
 0001:00091040       _png_get_IHDR              10092040 f   libPNG:pngget.obj
 0001:000910b0       _png_get_PLTE              100920b0 f   libPNG:pngget.obj
 0001:000910e0       _png_get_tRNS              100920e0 f   libPNG:pngget.obj
 0001:00091120       _png_read_info             10092120 f   libPNG:pngread.obj
 0001:000915a0       _png_read_row              100925a0 f   libPNG:pngread.obj
 0001:000918e0       _png_read_image            100928e0 f   libPNG:pngread.obj
 0001:00091b60       _png_destroy_read_struct   10092b60 f   libPNG:pngread.obj
 0001:00091c10       _png_set_gamma_fixed       10092c10 f   libPNG:pngrtran.obj
 0001:00091ce0       _png_set_expand_gray_1_2_4_to_8 10092ce0 f   libPNG:pngrtran.obj
 0001:00091d20       _png_set_tRNS_to_alpha     10092d20 f   libPNG:pngrtran.obj
 0001:00091f10       _png_init_read_transformations 10092f10 f   libPNG:pngrtran.obj
 0001:00092ac0       _png_read_transform_info   10093ac0 f   libPNG:pngrtran.obj
 0001:000956a0       _png_do_read_transformations 100966a0 f   libPNG:pngrtran.obj
 0001:00095a80       _png_set_swap              10096a80 f   libPNG:pngtrans.obj
 0001:00095aa0       _png_do_invert             10096aa0 f   libPNG:pngtrans.obj
 0001:00095b10       _png_do_swap               10096b10 f   libPNG:pngtrans.obj
 0001:00095b40       _png_do_packswap           10096b40 f   libPNG:pngtrans.obj
 0001:00095b90       _png_do_strip_channel      10096b90 f   libPNG:pngtrans.obj
 0001:00095cd0       _png_do_bgr                10096cd0 f   libPNG:pngtrans.obj
 0001:00095da0       _png_do_check_palette_indexes 10096da0 f   libPNG:pngtrans.obj
 0001:00095f10       _png_sig_cmp               10096f10 f   libPNG:png.obj
 0001:00096000       _png_zalloc                10097000 f   libPNG:png.obj
 0001:00096070       _png_zfree                 10097070 f   libPNG:png.obj
 0001:000960a0       _png_calculate_crc         100970a0 f   libPNG:png.obj
 0001:00096110       _png_user_version_check    10097110 f   libPNG:png.obj
 0001:00096280       _png_create_png_struct     10097280 f   libPNG:png.obj
 0001:000963e0       _png_create_info_struct    100973e0 f   libPNG:png.obj
 0001:00096430       _png_destroy_info_struct   10097430 f   libPNG:png.obj
 0001:00096480       _png_free_data             10097480 f   libPNG:png.obj
 0001:00096a40       _png_chunk_unknown_handling 10097a40 f   libPNG:png.obj
 0001:00096ac0       _png_zstream_error         10097ac0 f   libPNG:png.obj
 0001:00096d00       _png_colorspace_set_gamma  10097d00 f   libPNG:png.obj
 0001:00096dc0       _png_colorspace_sync_info  10097dc0 f   libPNG:png.obj
 0001:00096e20       _png_colorspace_sync       10097e20 f   libPNG:png.obj
 0001:00097540       _png_colorspace_set_chromaticities 10098540 f   libPNG:png.obj
 0001:00097950       _png_colorspace_set_sRGB   10098950 f   libPNG:png.obj
 0001:00097ad0       _png_icc_check_length      10098ad0 f   libPNG:png.obj
 0001:00097b10       _png_icc_check_header      10098b10 f   libPNG:png.obj
 0001:00097e20       _png_icc_check_tag_table   10098e20 f   libPNG:png.obj
 0001:00098270       _png_icc_set_sRGB          10099270 f   libPNG:png.obj
 0001:000982b0       _png_colorspace_set_rgb_coefficients 100992b0 f   libPNG:png.obj
 0001:00098410       _png_check_IHDR            10099410 f   libPNG:png.obj
 0001:000985d0       _png_check_fp_number       100995d0 f   libPNG:png.obj
 0001:00098760       _png_check_fp_string       10099760 f   libPNG:png.obj
 0001:000987b0       _png_muldiv                100997b0 f   libPNG:png.obj
 0001:00098830       _png_reciprocal            10099830 f   libPNG:png.obj
 0001:000988e0       _png_reciprocal2           100998e0 f   libPNG:png.obj
 0001:00098930       _png_gamma_8bit_correct    10099930 f   libPNG:png.obj
 0001:000989a0       _png_gamma_16bit_correct   100999a0 f   libPNG:png.obj
 0001:00098f00       _png_destroy_gamma_table   10099f00 f   libPNG:png.obj
 0001:00099110       _png_build_gamma_table     1009a110 f   libPNG:png.obj
 0001:00099300       _png_error                 1009a300 f   libPNG:pngerror.obj
 0001:00099320       _png_format_number         1009a320 f   libPNG:pngerror.obj
 0001:00099430       _png_warning               1009a430 f   libPNG:pngerror.obj
 0001:000994a0       _png_warning_parameter_signed 1009a4a0 f   libPNG:pngerror.obj
 0001:00099520       _png_formatted_warning     1009a520 f   libPNG:pngerror.obj
 0001:00099610       _png_benign_error          1009a610 f   libPNG:pngerror.obj
 0001:00099770       _png_chunk_error           1009a770 f   libPNG:pngerror.obj
 0001:000997a0       _png_chunk_warning         1009a7a0 f   libPNG:pngerror.obj
 0001:00099800       _png_chunk_benign_error    1009a800 f   libPNG:pngerror.obj
 0001:00099860       _png_chunk_report          1009a860 f   libPNG:pngerror.obj
 0001:000998f0       _png_fixed_error           1009a8f0 f   libPNG:pngerror.obj
 0001:00099980       _png_set_longjmp_fn        1009a980 f   libPNG:pngerror.obj
 0001:000999d0       _png_free_jmpbuf           1009a9d0 f   libPNG:pngerror.obj
 0001:00099ab0       _png_default_read_data     1009aab0 f   libPNG:pngrio.obj
 0001:00099af0       _png_set_read_fn           1009aaf0 f   libPNG:pngrio.obj
 0001:00099c30       _png_write_info_before_PLTE 1009ac30 f   libPNG:pngwrite.obj
 0001:00099d90       _png_write_info            1009ad90 f   libPNG:pngwrite.obj
 0001:0009a030       _png_write_end             1009b030 f   libPNG:pngwrite.obj
 0001:0009a1c0       _png_create_write_struct_2 1009b1c0 f   libPNG:pngwrite.obj
 0001:0009a270       _png_write_image           1009b270 f   libPNG:pngwrite.obj
 0001:0009a3c0       _png_write_row             1009b3c0 f   libPNG:pngwrite.obj
 0001:0009a790       _png_destroy_write_struct  1009b790 f   libPNG:pngwrite.obj
 0001:0009a850       _png_default_write_data    1009b850 f   libPNG:pngwio.obj
 0001:0009a890       _png_default_flush         1009b890 f   libPNG:pngwio.obj
 0001:0009a8b0       _png_set_hIST              1009b8b0 f   libPNG:pngset.obj
 0001:0009a940       _png_set_IHDR              1009b940 f   libPNG:pngset.obj
 0001:0009a9f0       _png_set_pCAL              1009b9f0 f   libPNG:pngset.obj
 0001:0009ac20       _png_set_sCAL_s            1009bc20 f   libPNG:pngset.obj
 0001:0009ad80       _png_set_PLTE              1009bd80 f   libPNG:pngset.obj
 0001:0009ae50       _png_set_text_2            1009be50 f   libPNG:pngset.obj
 0001:0009b2a0       _png_set_tIME              1009c2a0 f   libPNG:pngset.obj
 0001:0009b310       _png_set_tRNS              1009c310 f   libPNG:pngset.obj
 0001:0009b420       _png_set_sPLT              1009c420 f   libPNG:pngset.obj
 0001:0009b6c0       _png_set_unknown_chunks    1009c6c0 f   libPNG:pngset.obj
 0001:0009b8f0       _png_read_sig              1009c8f0 f   libPNG:pngrutil.obj
 0001:0009b9a0       _png_read_chunk_header     1009c9a0 f   libPNG:pngrutil.obj
 0001:0009bb10       _png_crc_read              1009cb10 f   libPNG:pngrutil.obj
 0001:0009bb50       _png_crc_finish            1009cb50 f   libPNG:pngrutil.obj
 0001:0009bc60       _png_crc_error             1009cc60 f   libPNG:pngrutil.obj
 0001:0009c350       _png_handle_IHDR           1009d350 f   libPNG:pngrutil.obj
 0001:0009c560       _png_handle_PLTE           1009d560 f   libPNG:pngrutil.obj
 0001:0009c850       _png_handle_gAMA           1009d850 f   libPNG:pngrutil.obj
 0001:0009c9d0       _png_handle_sBIT           1009d9d0 f   libPNG:pngrutil.obj
 0001:0009cbd0       _png_handle_cHRM           1009dbd0 f   libPNG:pngrutil.obj
 0001:0009ce80       _png_handle_sRGB           1009de80 f   libPNG:pngrutil.obj
 0001:0009d050       _png_handle_iCCP           1009e050 f   libPNG:pngrutil.obj
 0001:0009d600       _png_handle_sPLT           1009e600 f   libPNG:pngrutil.obj
 0001:0009d8f0       _png_handle_tRNS           1009e8f0 f   libPNG:pngrutil.obj
 0001:0009db90       _png_handle_bKGD           1009eb90 f   libPNG:pngrutil.obj
 0001:0009de10       _png_handle_hIST           1009ee10 f   libPNG:pngrutil.obj
 0001:0009e030       _png_handle_pHYs           1009f030 f   libPNG:pngrutil.obj
 0001:0009e210       _png_handle_oFFs           1009f210 f   libPNG:pngrutil.obj
 0001:0009e420       _png_handle_pCAL           1009f420 f   libPNG:pngrutil.obj
 0001:0009e7b0       _png_handle_sCAL           1009f7b0 f   libPNG:pngrutil.obj
 0001:0009ea60       _png_handle_tIME           1009fa60 f   libPNG:pngrutil.obj
 0001:0009ec20       _png_handle_tEXt           1009fc20 f   libPNG:pngrutil.obj
 0001:0009ee40       _png_handle_zTXt           1009fe40 f   libPNG:pngrutil.obj
 0001:0009f080       _png_handle_iTXt           100a0080 f   libPNG:pngrutil.obj
 0001:0009f590       _png_handle_unknown        100a0590 f   libPNG:pngrutil.obj
 0001:0009f760       _png_combine_row           100a0760 f   libPNG:pngrutil.obj
 0001:0009fc10       _png_do_read_interlace     100a0c10 f   libPNG:pngrutil.obj
 0001:000a02c0       _png_read_IDAT_data        100a12c0 f   libPNG:pngrutil.obj
 0001:000a0570       _png_read_finish_IDAT      100a1570 f   libPNG:pngrutil.obj
 0001:000a05d0       _png_read_finish_row       100a15d0 f   libPNG:pngrutil.obj
 0001:000a06a0       _png_read_start_row        100a16a0 f   libPNG:pngrutil.obj
 0001:000a0a40       _png_destroy_png_struct    100a1a40 f   libPNG:pngmem.obj
 0001:000a0ac0       _png_calloc                100a1ac0 f   libPNG:pngmem.obj
 0001:000a0b20       _png_malloc_base           100a1b20 f   libPNG:pngmem.obj
 0001:000a0b90       _png_malloc_array          100a1b90 f   libPNG:pngmem.obj
 0001:000a0be0       _png_realloc_array         100a1be0 f   libPNG:pngmem.obj
 0001:000a0c70       _png_malloc_warn           100a1c70 f   libPNG:pngmem.obj
 0001:000a0cb0       _png_free                  100a1cb0 f   libPNG:pngmem.obj
 0001:000a0ce0       _png_write_sig             100a1ce0 f   libPNG:pngwutil.obj
 0001:000a0e70       _png_write_chunk_data      100a1e70 f   libPNG:pngwutil.obj
 0001:000a0eb0       _png_write_chunk_end       100a1eb0 f   libPNG:pngwutil.obj
 0001:000a13b0       _png_free_buffer_list      100a23b0 f   libPNG:pngwutil.obj
 0001:000a1750       _png_write_IHDR            100a2750 f   libPNG:pngwutil.obj
 0001:000a1a90       _png_write_PLTE            100a2a90 f   libPNG:pngwutil.obj
 0001:000a1c20       _png_compress_IDAT         100a2c20 f   libPNG:pngwutil.obj
 0001:000a1ee0       _png_write_gAMA_fixed      100a2ee0 f   libPNG:pngwutil.obj
 0001:000a1fc0       _png_write_sRGB            100a2fc0 f   libPNG:pngwutil.obj
 0001:000a2090       _png_write_iCCP            100a3090 f   libPNG:pngwutil.obj
 0001:000a21c0       _png_write_sPLT            100a31c0 f   libPNG:pngwutil.obj
 0001:000a2410       _png_write_sBIT            100a3410 f   libPNG:pngwutil.obj
 0001:000a24c0       _png_write_cHRM_fixed      100a34c0 f   libPNG:pngwutil.obj
 0001:000a2680       _png_write_tRNS            100a3680 f   libPNG:pngwutil.obj
 0001:000a2950       _png_write_bKGD            100a3950 f   libPNG:pngwutil.obj
 0001:000a2c10       _png_write_hIST            100a3c10 f   libPNG:pngwutil.obj
 0001:000a2d50       _png_write_tEXt            100a3d50 f   libPNG:pngwutil.obj
 0001:000a2e50       _png_write_zTXt            100a3e50 f   libPNG:pngwutil.obj
 0001:000a2f70       _png_write_iTXt            100a3f70 f   libPNG:pngwutil.obj
 0001:000a31f0       _png_write_oFFs            100a41f0 f   libPNG:pngwutil.obj
 0001:000a3310       _png_write_pCAL            100a4310 f   libPNG:pngwutil.obj
 0001:000a3630       _png_write_sCAL_s          100a4630 f   libPNG:pngwutil.obj
 0001:000a36e0       _png_write_pHYs            100a46e0 f   libPNG:pngwutil.obj
 0001:000a3800       _png_write_tIME            100a4800 f   libPNG:pngwutil.obj
 0001:000a3950       _png_write_start_row       100a4950 f   libPNG:pngwutil.obj
 0001:000a3b90       _png_write_finish_row      100a4b90 f   libPNG:pngwutil.obj
 0001:000a3cc0       _png_do_write_interlace    100a4cc0 f   libPNG:pngwutil.obj
 0001:000a3f00       _png_write_find_filter     100a4f00 f   libPNG:pngwutil.obj
 0001:000a4fa0       _png_do_write_transformations 100a5fa0 f   libPNG:pngwtran.obj
 0001:000a5180       _cmsOpenIOhandlerFromNULL  100a6180 f   lcms:cmsio0.obj
 0001:000a5380       _cmsOpenIOhandlerFromMem   100a6380 f   lcms:cmsio0.obj
 0001:000a55c0       _cmsOpenIOhandlerFromFile  100a65c0 f   lcms:cmsio0.obj
 0001:000a56f0       _cmsCreateProfilePlaceholder 100a66f0 f   lcms:cmsio0.obj
 0001:000a57d0       _cmsIsTag                  100a67d0 f   lcms:cmsio0.obj
 0001:000a5810       __cmsReadHeader            100a6810 f   lcms:cmsio0.obj
 0001:000a5cc0       __cmsWriteHeader           100a6cc0 f   lcms:cmsio0.obj
 0001:000a6320       _cmsSetProfileVersion      100a7320 f   lcms:cmsio0.obj
 0001:000a63d0       _cmsGetProfileVersion      100a73d0 f   lcms:cmsio0.obj
 0001:000a6450       _cmsOpenProfileFromFile    100a7450 f   lcms:cmsio0.obj
 0001:000a64a0       _cmsOpenProfileFromMem     100a74a0 f   lcms:cmsio0.obj
 0001:000a6840       _cmsSaveProfileToIOhandler 100a7840 f   lcms:cmsio0.obj
 0001:000a6950       _cmsSaveProfileToFile      100a7950 f   lcms:cmsio0.obj
 0001:000a69b0       _cmsCloseProfile           100a79b0 f   lcms:cmsio0.obj
 0001:000a6ab0       _cmsReadTag                100a7ab0 f   lcms:cmsio0.obj
 0001:000a6cb0       __cmsGetTagTrueType        100a7cb0 f   lcms:cmsio0.obj
 0001:000a6cf0       _cmsWriteTag               100a7cf0 f   lcms:cmsio0.obj
 0001:000a7000       _cmsLinkTag                100a8000 f   lcms:cmsio0.obj
 0001:000a7060       _cmsDeleteTransform        100a8060 f   lcms:cmsxform.obj
 0001:000a7da0       _cmsCreateExtendedTransform 100a8da0 f   lcms:cmsxform.obj
 0001:000a80c0       _cmsCreateMultiprofileTransformTHR 100a90c0 f   lcms:cmsxform.obj
 0001:000a8530       _cmsCreateTransformTHR     100a9530 f   lcms:cmsxform.obj
 0001:000a8570       _cmsCreateTransform        100a9570 f   lcms:cmsxform.obj
 0001:000a85c0       _cmsWhitePointFromTemp     100a95c0 f   lcms:cmswtpnt.obj
 0001:000a86d0       _cmsTempFromWhitePoint     100a96d0 f   lcms:cmswtpnt.obj
 0001:000a88c0       __cmsAdaptationMatrix      100a98c0 f   lcms:cmswtpnt.obj
 0001:000a8a50       __cmsBuildRGB2XYZtransferMatrix 100a9a50 f   lcms:cmswtpnt.obj
 0001:000a8bb0       __cmsQuickSaturateWord     100a9bb0 f i lcms:cmsvirt.obj
 0001:000a8d90       _cmsCreateRGBProfileTHR    100a9d90 f   lcms:cmsvirt.obj
 0001:000a9040       _cmsCreateLab2ProfileTHR   100aa040 f   lcms:cmsvirt.obj
 0001:000a9180       _cmsCreateLab4ProfileTHR   100aa180 f   lcms:cmsvirt.obj
 0001:000a9ba0       _cmsBuildTabulatedToneCurve16 100aaba0 f   lcms:cmsgamma.obj
 0001:000a9ca0       _cmsBuildSegmentedToneCurve 100aaca0 f   lcms:cmsgamma.obj
 0001:000a9da0       _cmsBuildTabulatedToneCurveFloat 100aada0 f   lcms:cmsgamma.obj
 0001:000a9e70       _cmsBuildParametricToneCurve 100aae70 f   lcms:cmsgamma.obj
 0001:000a9f30       _cmsFreeToneCurve          100aaf30 f   lcms:cmsgamma.obj
 0001:000aa000       _cmsFreeToneCurveTriple    100ab000 f   lcms:cmsgamma.obj
 0001:000aa040       _cmsJoinToneCurve          100ab040 f   lcms:cmsgamma.obj
 0001:000aa1d0       _cmsReverseToneCurveEx     100ab1d0 f   lcms:cmsgamma.obj
 0001:000aa3a0       _cmsIsToneCurveMonotonic   100ab3a0 f   lcms:cmsgamma.obj
 0001:000aa430       _cmsEvalToneCurveFloat     100ab430 f   lcms:cmsgamma.obj
 0001:000aa4a0       __cmsReadUInt8Number       100ab4a0 f   lcms:cmsplugin.obj
 0001:000aa4e0       __cmsReadUInt16Number      100ab4e0 f   lcms:cmsplugin.obj
 0001:000aa530       __cmsReadUInt16Array       100ab530 f   lcms:cmsplugin.obj
 0001:000aa5b0       __cmsReadFloat32Number     100ab5b0 f   lcms:cmsplugin.obj
 0001:000aa5b0       __cmsReadUInt32Number      100ab5b0 f   lcms:cmsplugin.obj
 0001:000aa600       __cmsReadUInt64Number      100ab600 f   lcms:cmsplugin.obj
 0001:000aa670       __cmsRead15Fixed16Number   100ab670 f   lcms:cmsplugin.obj
 0001:000aa770       __cmsReadXYZNumber         100ab770 f   lcms:cmsplugin.obj
 0001:000aa900       __cmsWriteUInt8Number      100ab900 f   lcms:cmsplugin.obj
 0001:000aa920       __cmsWriteUInt16Number     100ab920 f   lcms:cmsplugin.obj
 0001:000aa960       __cmsWriteUInt16Array      100ab960 f   lcms:cmsplugin.obj
 0001:000aa9c0       __cmsWriteUInt32Number     100ab9c0 f   lcms:cmsplugin.obj
 0001:000aa9c0       __cmsWriteFloat32Number    100ab9c0 f   lcms:cmsplugin.obj
 0001:000aaa00       __cmsWriteUInt64Number     100aba00 f   lcms:cmsplugin.obj
 0001:000aaa60       __cmsWrite15Fixed16Number  100aba60 f   lcms:cmsplugin.obj
 0001:000aaac0       __cmsWriteXYZNumber        100abac0 f   lcms:cmsplugin.obj
 0001:000aabd0       __cmsDecodeDateTimeNumber  100abbd0 f   lcms:cmsplugin.obj
 0001:000aac80       __cmsEncodeDateTimeNumber  100abc80 f   lcms:cmsplugin.obj
 0001:000aad30       __cmsReadTypeBase          100abd30 f   lcms:cmsplugin.obj
 0001:000aada0       __cmsWriteTypeBase         100abda0 f   lcms:cmsplugin.obj
 0001:000aae00       __cmsWriteAlignment        100abe00 f   lcms:cmsplugin.obj
 0001:000aae60       _cmsfilelength             100abe60 f   lcms:cmserr.obj
 0001:000aafe0       _cmsSignalError            100abfe0 f   lcms:cmserr.obj
 0001:000ab040       __cmsTagSignature2String   100ac040 f   lcms:cmserr.obj
 0001:000b4510       __cmsChain2Lab             100b5510 f   lcms:cmsgmt.obj
 0001:000b4770       __cmsBuildKToneCurve       100b5770 f   lcms:cmsgmt.obj
 0001:000b4a50       __cmsCreateGamutCheckPipeline 100b5a50 f   lcms:cmsgmt.obj
 0001:000b4de0       _cmsDetectTAC              100b5de0 f   lcms:cmsgmt.obj
 0001:000b4f10       __cmsStageAllocPlaceholder 100b5f10 f   lcms:cmslut.obj
 0001:000b51f0       _cmsPipelineCheckAndRetreiveStages 100b61f0 f   lcms:cmslut.obj
 0001:000b54a0       _cmsStageAllocToneCurves   100b64a0 f   lcms:cmslut.obj
 0001:000b5790       _cmsStageAllocMatrix       100b6790 f   lcms:cmslut.obj
 0001:000b5b70       _cmsStageAllocCLut16bitGranular 100b6b70 f   lcms:cmslut.obj
 0001:000b5cd0       _cmsStageAllocCLut16bit    100b6cd0 f   lcms:cmslut.obj
 0001:000b5e80       _cmsStageAllocCLutFloatGranular 100b6e80 f   lcms:cmslut.obj
 0001:000b5fe0       __cmsStageAllocIdentityCLut 100b6fe0 f   lcms:cmslut.obj
 0001:000b6090       __cmsQuantizeVal           100b7090 f   lcms:cmslut.obj
 0001:000b6100       _cmsStageSampleCLut16bit   100b7100 f   lcms:cmslut.obj
 0001:000b6280       _cmsSliceSpace16           100b7280 f   lcms:cmslut.obj
 0001:000b6640       __cmsStageAllocLab2XYZ     100b7640 f   lcms:cmslut.obj
 0001:000b6680       __cmsStageAllocLabV2ToV4   100b7680 f   lcms:cmslut.obj
 0001:000b66b0       __cmsStageAllocLabV4ToV2   100b76b0 f   lcms:cmslut.obj
 0001:000b66e0       __cmsStageNormalizeFromXyzFloat 100b76e0 f   lcms:cmslut.obj
 0001:000b6790       __cmsStageAllocXYZ2Lab     100b7790 f   lcms:cmslut.obj
 0001:000b67d0       _cmsStageFree              100b77d0 f   lcms:cmslut.obj
 0001:000b67f0       _cmsStageDup               100b77f0 f   lcms:cmslut.obj
 0001:000b6a50       _cmsPipelineAlloc          100b7a50 f   lcms:cmslut.obj
 0001:000b6ac0       _cmsPipelineFree           100b7ac0 f   lcms:cmslut.obj
 0001:000b6b20       _cmsPipelineDup            100b7b20 f   lcms:cmslut.obj
 0001:000b6c10       _cmsPipelineInsertStage    100b7c10 f   lcms:cmslut.obj
 0001:000b6c70       _cmsPipelineCat            100b7c70 f   lcms:cmslut.obj
 0001:000b6d10       _cmsPipelineEvalReverseFloat 100b7d10 f   lcms:cmslut.obj
 0001:000b9f90       __cmsOptimizePipeline      100baf90 f   lcms:cmsopt.obj
 0001:000ba050       _cmsMLUalloc               100bb050 f   lcms:cmsnamed.obj
 0001:000ba210       _cmsMLUsetASCII            100bb210 f   lcms:cmsnamed.obj
 0001:000ba3b0       _cmsMLUsetWide             100bb3b0 f   lcms:cmsnamed.obj
 0001:000ba410       _cmsMLUdup                 100bb410 f   lcms:cmsnamed.obj
 0001:000ba4c0       _cmsMLUfree                100bb4c0 f   lcms:cmsnamed.obj
 0001:000ba580       _cmsMLUgetASCII            100bb580 f   lcms:cmsnamed.obj
 0001:000ba630       _cmsMLUgetWide             100bb630 f   lcms:cmsnamed.obj
 0001:000ba710       _cmsAllocNamedColorList    100bb710 f   lcms:cmsnamed.obj
 0001:000ba7c0       _cmsFreeNamedColorList     100bb7c0 f   lcms:cmsnamed.obj
 0001:000ba7f0       _cmsDupNamedColorList      100bb7f0 f   lcms:cmsnamed.obj
 0001:000ba8b0       _cmsAppendNamedColor       100bb8b0 f   lcms:cmsnamed.obj
 0001:000ba9c0       _cmsNamedColorInfo         100bb9c0 f   lcms:cmsnamed.obj
 0001:000bac60       __cmsStageAllocNamedColor  100bbc60 f   lcms:cmsnamed.obj
 0001:000bace0       _cmsAllocProfileSequenceDescription 100bbce0 f   lcms:cmsnamed.obj
 0001:000bad80       _cmsFreeProfileSequenceDescription 100bbd80 f   lcms:cmsnamed.obj
 0001:000bae90       _cmsDupProfileSequenceDescription 100bbe90 f   lcms:cmsnamed.obj
 0001:000bafc0       _cmsDictFree               100bbfc0 f   lcms:cmsnamed.obj
 0001:000bb0a0       _cmsDictAddEntry           100bc0a0 f   lcms:cmsnamed.obj
 0001:000bb170       _cmsDictDup                100bc170 f   lcms:cmsnamed.obj
 0001:000c0150       _cmsXYZ2Lab                100c1150 f   lcms:cmspcs.obj
 0001:000c0230       _cmsLab2XYZ                100c1230 f   lcms:cmspcs.obj
 0001:000c0390       _cmsFloat2LabEncoded       100c1390 f   lcms:cmspcs.obj
 0001:000c04b0       _cmsFloat2XYZEncoded       100c14b0 f   lcms:cmspcs.obj
 0001:000c0580       _cmsXYZEncoded2Float       100c1580 f   lcms:cmspcs.obj
 0001:000c0660       __cmsReasonableGridpointsByColorspace 100c1660 f   lcms:cmspcs.obj
 0001:000c06c0       __cmsICCcolorSpace         100c16c0 f   lcms:cmspcs.obj
 0001:000c07f0       __cmsLCMScolorSpace        100c17f0 f   lcms:cmspcs.obj
 0001:000c0a30       _cmsChannelsOf             100c1a30 f   lcms:cmspcs.obj
 0001:000c0c10       __cmsReadMediaWhitePoint   100c1c10 f   lcms:cmsio1.obj
 0001:000c0ca0       __cmsReadCHAD              100c1ca0 f   lcms:cmsio1.obj
 0001:000c1470       __cmsReadInputLUT          100c2470 f   lcms:cmsio1.obj
 0001:000c1d60       __cmsReadOutputLUT         100c2d60 f   lcms:cmsio1.obj
 0001:000c2090       __cmsReadDevicelinkLUT     100c3090 f   lcms:cmsio1.obj
 0001:000c2330       _cmsIsMatrixShaper         100c3330 f   lcms:cmsio1.obj
 0001:000c23f0       __cmsCompileProfileSequence 100c33f0 f   lcms:cmsio1.obj
 0001:000c3e00       __cmsLinkProfiles          100c4e00 f   lcms:cmscnvrt.obj
 0001:000c3ef0       __cmsMAT3identity          100c4ef0 f   lcms:cmsmtrx.obj
 0001:000c3f20       __cmsMAT3isIdentity        100c4f20 f   lcms:cmsmtrx.obj
 0001:000c3fc0       __cmsMAT3per               100c4fc0 f   lcms:cmsmtrx.obj
 0001:000c40b0       __cmsMAT3inverse           100c50b0 f   lcms:cmsmtrx.obj
 0001:000c4190       __cmsComputeInterpParamsEx 100c5190 f   lcms:cmsintrp.obj
 0001:000c42a0       __cmsComputeInterpParams   100c52a0 f   lcms:cmsintrp.obj
 0001:000c7390       _cmsDetectBlackPoint       100c8390 f   lcms:cmssamp.obj
 0001:000c7840       _cmsDetectDestinationBlackPoint 100c8840 f   lcms:cmssamp.obj
 0001:000c7ee0       _TIFFComputeStrip          100c8ee0 f   libTIFF:tif_strip.obj
 0001:000c7f30       _TIFFNumberOfStrips        100c8f30 f   libTIFF:tif_strip.obj
 0001:000c7fb0       _TIFFVStripSize64          100c8fb0 f   libTIFF:tif_strip.obj
 0001:000c81d0       _TIFFStripSize             100c91d0 f   libTIFF:tif_strip.obj
 0001:000c8220       __TIFFDefaultStripSize     100c9220 f   libTIFF:tif_strip.obj
 0001:000c8280       _TIFFScanlineSize64        100c9280 f   libTIFF:tif_strip.obj
 0001:000c8410       _TIFFScanlineSize          100c9410 f   libTIFF:tif_strip.obj
 0001:000c8460       _mng_process_ani_term      100c9460 f   libmng:libmng_object_prc.obj
 0001:000c8460       ?mymnggetticks@@YAIPAUmng_data_struct@@@Z 100c9460 f   il_mng.obj
 0001:000c8470       _TIFFClientOpen            100c9470 f   libTIFF:tif_open.obj
 0001:000c8c00       _TIFFErrorExt              100c9c00 f   libTIFF:tif_error.obj
 0001:000c8c40       _TIFFWriteScanline         100c9c40 f   libTIFF:tif_write.obj
 0001:000c8e70       _TIFFSetupStrips           100c9e70 f   libTIFF:tif_write.obj
 0001:000c8f50       _TIFFWriteCheck            100c9f50 f   libTIFF:tif_write.obj
 0001:000c90a0       _TIFFWriteBufferSetup      100ca0a0 f   libTIFF:tif_write.obj
 0001:000c9460       _TIFFFlushData1            100ca460 f   libTIFF:tif_write.obj
 0001:000c9550       __TIFFsetNString           100ca550 f   libTIFF:tif_dir.obj
 0001:000c9590       __TIFFsetShortArray        100ca590 f   libTIFF:tif_dir.obj
 0001:000c95e0       __TIFFsetDoubleArray       100ca5e0 f   libTIFF:tif_dir.obj
 0001:000c95e0       __TIFFsetLong8Array        100ca5e0 f   libTIFF:tif_dir.obj
 0001:000c9640       __TIFFsetFloatArray        100ca640 f   libTIFF:tif_dir.obj
 0001:000ca6b0       _TIFFSetField              100cb6b0 f   libTIFF:tif_dir.obj
 0001:000cb000       _TIFFGetField              100cc000 f   libTIFF:tif_dir.obj
 0001:000cb060       _TIFFFreeDirectory         100cc060 f   libTIFF:tif_dir.obj
 0001:000cb220       _TIFFDefaultDirectory      100cc220 f   libTIFF:tif_dir.obj
 0001:000cb750       _TIFFSetDirectory          100cc750 f   libTIFF:tif_dir.obj
 0001:000cb7f0       _TIFFRGBAImageOK           100cc7f0 f   libTIFF:tif_getimage.obj
 0001:000cba80       _TIFFRGBAImageEnd          100cca80 f   libTIFF:tif_getimage.obj
 0001:000cbb90       _TIFFRGBAImageBegin        100ccb90 f   libTIFF:tif_getimage.obj
 0001:000cc120       _TIFFRGBAImageGet          100cd120 f   libTIFF:tif_getimage.obj
 0001:000cc180       _TIFFReadRGBAImageOriented 100cd180 f   libTIFF:tif_getimage.obj
 0001:000d25e0       __TIFFMultiply64           100d35e0 f   libTIFF:tif_aux.obj
 0001:000d2650       __TIFFCheckMalloc          100d3650 f   libTIFF:tif_aux.obj
 0001:000d2930       _TIFFVGetFieldDefaulted    100d3930 f   libTIFF:tif_aux.obj
 0001:000d2d70       _TIFFGetFieldDefaulted     100d3d70 f   libTIFF:tif_aux.obj
 0001:000d2d90       _TIFFCleanup               100d3d90 f   libTIFF:tif_close.obj
 0001:000d2f10       _TIFFClose                 100d3f10 f   libTIFF:tif_close.obj
 0001:000d2f30       _TIFFWarningExt            100d3f30 f   libTIFF:tif_warning.obj
 0001:000d2f70       _TIFFReadEncodedStrip      100d3f70 f   libTIFF:tif_read.obj
 0001:000d3220       _TIFFFillStrip             100d4220 f   libTIFF:tif_read.obj
 0001:000d34a0       _TIFFReadTile              100d44a0 f   libTIFF:tif_read.obj
 0001:000d3520       _TIFFReadEncodedTile       100d4520 f   libTIFF:tif_read.obj
 0001:000d3750       _TIFFFillTile              100d4750 f   libTIFF:tif_read.obj
 0001:000d3980       _TIFFReadBufferSetup       100d4980 f   libTIFF:tif_read.obj
 0001:000d3bb0       __TIFFSwab16BitData        100d4bb0 f   libTIFF:tif_read.obj
 0001:000d3be0       __TIFFSwab24BitData        100d4be0 f   libTIFF:tif_read.obj
 0001:000d3c20       __TIFFSwab32BitData        100d4c20 f   libTIFF:tif_read.obj
 0001:000d3c40       __TIFFSwab64BitData        100d4c40 f   libTIFF:tif_read.obj
 0001:000d7580       _TIFFReadDirectory         100d8580 f   libTIFF:tif_dirread.obj
 0001:000d9a80       _TIFFSwabLong8             100daa80 f   libTIFF:tif_swab.obj
 0001:000d9ac0       _TIFFSwabArrayOfShort      100daac0 f   libTIFF:tif_swab.obj
 0001:000d9ae0       _TIFFSwabArrayOfLong       100daae0 f   libTIFF:tif_swab.obj
 0001:000d9ae0       _TIFFSwabArrayOfFloat      100daae0 f   libTIFF:tif_swab.obj
 0001:000d9b20       _TIFFSwabArrayOfLong8      100dab20 f   libTIFF:tif_swab.obj
 0001:000d9b20       _TIFFSwabArrayOfDouble     100dab20 f   libTIFF:tif_swab.obj
 0001:000d9b70       _TIFFReverseBits           100dab70 f   libTIFF:tif_swab.obj
 0001:000d9c30       __TIFFNoRowEncode          100dac30 f   libTIFF:tif_compress.obj
 0001:000d9c90       __TIFFNoStripEncode        100dac90 f   libTIFF:tif_compress.obj
 0001:000d9cf0       __TIFFNoTileEncode         100dacf0 f   libTIFF:tif_compress.obj
 0001:000d9d50       __TIFFNoRowDecode          100dad50 f   libTIFF:tif_compress.obj
 0001:000d9db0       __TIFFNoStripDecode        100dadb0 f   libTIFF:tif_compress.obj
 0001:000d9e10       __TIFFNoTileDecode         100dae10 f   libTIFF:tif_compress.obj
 0001:000d9e70       __TIFFNoSeek               100dae70 f   libTIFF:tif_compress.obj
 0001:000d9ea0       __TIFFNoFixupTags          100daea0 f   libTIFF:tif_compress.obj
 0001:000d9ea0       __TIFFNoPreCode            100daea0 f   libTIFF:tif_compress.obj
 0001:000d9eb0       __TIFFSetDefaultCompressionState 100daeb0 f   libTIFF:tif_compress.obj
 0001:000d9f70       _TIFFFindCODEC             100daf70 f   libTIFF:tif_compress.obj
 0001:000d9fc0       __TIFFmemcmp               100dafc0 f   libTIFF:tif_win32.obj
 0001:000da040       _TIFFComputeTile           100db040 f   libTIFF:tif_tile.obj
 0001:000da130       _TIFFCheckTile             100db130 f   libTIFF:tif_tile.obj
 0001:000da1e0       _TIFFNumberOfTiles         100db1e0 f   libTIFF:tif_tile.obj
 0001:000da330       _TIFFTileRowSize64         100db330 f   libTIFF:tif_tile.obj
 0001:000da3a0       _TIFFTileRowSize           100db3a0 f   libTIFF:tif_tile.obj
 0001:000da3f0       _TIFFVTileSize64           100db3f0 f   libTIFF:tif_tile.obj
 0001:000da5b0       _TIFFTileSize              100db5b0 f   libTIFF:tif_tile.obj
 0001:000da5f0       __TIFFDefaultTileSize      100db5f0 f   libTIFF:tif_tile.obj
 0001:000da650       _TIFFFlush                 100db650 f   libTIFF:tif_flush.obj
 0001:000da7d0       _TIFFFlushData             100db7d0 f   libTIFF:tif_flush.obj
 0001:000da810       __TIFFSetupFields          100db810 f   libTIFF:tif_dirinfo.obj
 0001:000daa40       __TIFFMergeFields          100dba40 f   libTIFF:tif_dirinfo.obj
 0001:000daba0       _TIFFDataWidth             100dbba0 f   libTIFF:tif_dirinfo.obj
 0001:000dac00       _TIFFFindField             100dbc00 f   libTIFF:tif_dirinfo.obj
 0001:000dac90       _TIFFFieldWithTag          100dbc90 f   libTIFF:tif_dirinfo.obj
 0001:000dacc0       __TIFFCreateAnonField      100dbcc0 f   libTIFF:tif_dirinfo.obj
 0001:000dae50       _TIFFCIELabToXYZ           100dbe50 f   libTIFF:tif_color.obj
 0001:000daf60       _TIFFXYZToRGB              100dbf60 f   libTIFF:tif_color.obj
 0001:000db170       _TIFFCIELabToRGBInit       100dc170 f   libTIFF:tif_color.obj
 0001:000db2d0       _TIFFYCbCrtoRGB            100dc2d0 f   libTIFF:tif_color.obj
 0001:000db390       _TIFFYCbCrToRGBInit        100dc390 f   libTIFF:tif_color.obj
 0001:000db670       _TIFFRewriteDirectory      100dc670 f   libTIFF:tif_dirwrite.obj
 0001:000de860       __TIFFRewriteField         100df860 f   libTIFF:tif_dirwrite.obj
 0001:000e0650       __TIFFFax3fillruns         100e1650 f   libTIFF:tif_fax3.obj
 0001:000e1d20       _TIFFInitCCITTFax3         100e2d20 f   libTIFF:tif_fax3.obj
 0001:000e2aa0       _TIFFInitCCITTFax4         100e3aa0 f   libTIFF:tif_fax3.obj
 0001:000e3070       _TIFFInitCCITTRLE          100e4070 f   libTIFF:tif_fax3.obj
 0001:000e30b0       _TIFFInitCCITTRLEW         100e40b0 f   libTIFF:tif_fax3.obj
 0001:000e3480       _TIFFInitThunderScan       100e4480 f   libTIFF:tif_thunder.obj
 0001:000e4090       _LogL16fromY               100e5090 f   libTIFF:tif_luv.obj
 0001:000e4490       _XYZtoRGB24                100e5490 f   libTIFF:tif_luv.obj
 0001:000e45d0       _LogL10fromY               100e55d0 f   libTIFF:tif_luv.obj
 0001:000e4ad0       _uv_encode                 100e5ad0 f   libTIFF:tif_luv.obj
 0001:000e4c00       _uv_decode                 100e5c00 f   libTIFF:tif_luv.obj
 0001:000e4cb0       _LogLuv24toXYZ             100e5cb0 f   libTIFF:tif_luv.obj
 0001:000e6100       _TIFFInitSGILog            100e7100 f   libTIFF:tif_luv.obj
 0001:000e7380       _TIFFInitLZW               100e8380 f   libTIFF:tif_lzw.obj
 0001:000e7aa0       _TIFFInitPackBits          100e8aa0 f   libTIFF:tif_packbits.obj
 0001:000e7ce0       _TIFFInitNeXT              100e8ce0 f   libTIFF:tif_next.obj
 0001:000e7ec0       _TIFFInitDumpMode          100e8ec0 f   libTIFF:tif_dumpmode.obj
 0001:000e8d90       _TIFFPredictorInit         100e9d90 f   libTIFF:tif_predict.obj
 0001:000e8e40       _jpeg_add_quant_table      100e9e40 f   jpeg:jcparam.obj
 0001:000e8ff0       _jpeg_set_quality          100e9ff0 f   jpeg:jcparam.obj
 0001:000e9180       _jpeg_set_defaults         100ea180 f   jpeg:jcparam.obj
 0001:000e9280       _jpeg_default_colorspace   100ea280 f   jpeg:jcparam.obj
 0001:000e9580       _jpeg_set_colorspace       100ea580 f   jpeg:jcparam.obj
 0001:000e9a50       _jpeg_simple_progression   100eaa50 f   jpeg:jcparam.obj
 0001:000e9ce0       _jpeg_start_decompress     100eace0 f   jpeg:jdapistd.obj
 0001:000e9eb0       _jpeg_read_scanlines       100eaeb0 f   jpeg:jdapistd.obj
 0001:000e9f50       _jpeg_finish_output        100eaf50 f   jpeg:jdapistd.obj
 0001:000e9fe0       _jpeg_CreateDecompress     100eafe0 f   jpeg:jdapimin.obj
 0001:000ea290       _jpeg_read_header          100eb290 f   jpeg:jdapimin.obj
 0001:000ea320       _jpeg_consume_input        100eb320 f   jpeg:jdapimin.obj
 0001:000ea3e0       _jpeg_finish_decompress    100eb3e0 f   jpeg:jdapimin.obj
 0001:000ea4d0       _jpeg_CreateCompress       100eb4d0 f   jpeg:jcapimin.obj
 0001:000ea590       _jpeg_suppress_tables      100eb590 f   jpeg:jcapimin.obj
 0001:000ea600       _jpeg_finish_compress      100eb600 f   jpeg:jcapimin.obj
 0001:000ec830       _jpeg_resync_to_restart    100ed830 f   jpeg:jdmarker.obj
 0001:000eca80       _jinit_marker_reader       100eda80 f   jpeg:jdmarker.obj
 0001:000ecb00       _jpeg_start_compress       100edb00 f   jpeg:jcapistd.obj
 0001:000ecb70       _jpeg_write_scanlines      100edb70 f   jpeg:jcapistd.obj
 0001:000ecde0       _jpeg_std_error            100edde0 f   jpeg:jerror.obj
 0001:000ed000       _jpeg_stdio_src            100ee000 f   jpeg:jdatasrc.obj
 0001:000ed120       _jpeg_calc_output_dimensions 100ee120 f   jpeg:jdmaster.obj
 0001:000ed750       _jpeg_core_output_dimensions 100ee750 f   jpeg:jdinput.obj
 0001:000ef000       _jinit_memory_mgr          100f0000 f   jpeg:jmemmgr.obj
 0001:000f05c0       _jinit_compress_master     100f15c0 f   jpeg:jcinit.obj
 0001:000f24f0       _jinit_huff_decoder        100f34f0 f   jpeg:jdhuff.obj
 0001:000f3020       _jinit_1pass_quantizer     100f4020 f   jpeg:jquant1.obj
 0001:000f3640       _jinit_inverse_dct         100f4640 f   jpeg:jddctmgr.obj
 0001:000f39b0       _jinit_upsampler           100f49b0 f   jpeg:jdsample.obj
 0001:000f4ba0       _jinit_arith_decoder       100f5ba0 f   jpeg:jdarith.obj
 0001:000f54d0       _jinit_color_deconverter   100f64d0 f   jpeg:jdcolor.obj
 0001:000f6640       _jinit_d_coef_controller   100f7640 f   jpeg:jdcoefct.obj
 0001:000f7d20       _jinit_2pass_quantizer     100f8d20 f   jpeg:jquant2.obj
 0001:000f8380       _jinit_merged_upsampler    100f9380 f   jpeg:jdmerge.obj
 0001:000f89d0       _jinit_d_main_controller   100f99d0 f   jpeg:jdmainct.obj
 0001:000f8d90       _jinit_d_post_controller   100f9d90 f   jpeg:jdpostct.obj
 0001:000f9400       _jinit_color_converter     100fa400 f   jpeg:jccolor.obj
 0001:000faa40       _jinit_arith_encoder       100fba40 f   jpeg:jcarith.obj
 0001:000fab90       _jinit_c_main_controller   100fbb90 f   jpeg:jcmainct.obj
 0001:000fac10       _jpeg_calc_jpeg_dimensions 100fbc10 f   jpeg:jcmaster.obj
 0001:000fbed0       _jinit_c_master_control    100fced0 f   jpeg:jcmaster.obj
 0001:000fc700       _jinit_c_coef_controller   100fd700 f   jpeg:jccoefct.obj
 0001:000fcd40       _jinit_c_prep_controller   100fdd40 f   jpeg:jcprepct.obj
 0001:000fd7d0       _jinit_forward_dct         100fe7d0 f   jpeg:jcdctmgr.obj
 0001:000fe0e0       _jinit_downsampler         100ff0e0 f   jpeg:jcsample.obj
 0001:000ffe10       _jinit_huff_encoder        10100e10 f   jpeg:jchuff.obj
 0001:000ffe70       _jpeg_idct_islow           10100e70 f   jpeg:jidctint.obj
 0001:001003c0       _jpeg_idct_7x7             101013c0 f   jpeg:jidctint.obj
 0001:00100850       _jpeg_idct_6x6             10101850 f   jpeg:jidctint.obj
 0001:00101060       _jpeg_idct_5x5             10102060 f   jpeg:jidctint.obj
 0001:00101890       _jpeg_idct_4x4             10102890 f   jpeg:jidctint.obj
 0001:00101d20       _jpeg_idct_3x3             10102d20 f   jpeg:jidctint.obj
 0001:00101f90       _jpeg_idct_2x2             10102f90 f   jpeg:jidctint.obj
 0001:00102050       _jpeg_idct_1x1             10103050 f   jpeg:jidctint.obj
 0001:00102090       _jpeg_idct_9x9             10103090 f   jpeg:jidctint.obj
 0001:001025c0       _jpeg_idct_10x10           101035c0 f   jpeg:jidctint.obj
 0001:00102c30       _jpeg_idct_11x11           10103c30 f   jpeg:jidctint.obj
 0001:00103390       _jpeg_idct_12x12           10104390 f   jpeg:jidctint.obj
 0001:00103a40       _jpeg_idct_13x13           10104a40 f   jpeg:jidctint.obj
 0001:00104330       _jpeg_idct_14x14           10105330 f   jpeg:jidctint.obj
 0001:00104c10       _jpeg_idct_15x15           10105c10 f   jpeg:jidctint.obj
 0001:00105510       _jpeg_idct_16x16           10106510 f   jpeg:jidctint.obj
 0001:00105f10       _jpeg_idct_16x8            10106f10 f   jpeg:jidctint.obj
 0001:00106770       _jpeg_idct_14x7            10107770 f   jpeg:jidctint.obj
 0001:00106e70       _jpeg_idct_12x6            10107e70 f   jpeg:jidctint.obj
 0001:00107640       _jpeg_idct_10x5            10108640 f   jpeg:jidctint.obj
 0001:00107db0       _jpeg_idct_8x4             10108db0 f   jpeg:jidctint.obj
 0001:00108290       _jpeg_idct_6x3             10109290 f   jpeg:jidctint.obj
 0001:00108700       _jpeg_idct_4x2             10109700 f   jpeg:jidctint.obj
 0001:001088f0       _jpeg_idct_2x1             101098f0 f   jpeg:jidctint.obj
 0001:00108950       _jpeg_idct_8x16            10109950 f   jpeg:jidctint.obj
 0001:00109010       _jpeg_idct_7x14            1010a010 f   jpeg:jidctint.obj
 0001:00109680       _jpeg_idct_6x12            1010a680 f   jpeg:jidctint.obj
 0001:00109ee0       _jpeg_idct_5x10            1010aee0 f   jpeg:jidctint.obj
 0001:0010a7f0       _jpeg_idct_4x8             1010b7f0 f   jpeg:jidctint.obj
 0001:0010ae30       _jpeg_idct_3x6             1010be30 f   jpeg:jidctint.obj
 0001:0010b390       _jpeg_idct_2x4             1010c390 f   jpeg:jidctint.obj
 0001:0010b590       _jpeg_idct_1x2             1010c590 f   jpeg:jidctint.obj
 0001:0010b600       _jpeg_idct_float           1010c600 f   jpeg:jidctflt.obj
 0001:0010bc60       _jpeg_idct_ifast           1010cc60 f   jpeg:jidctfst.obj
 0001:0010c130       _jpeg_fdct_islow           1010d130 f   jpeg:jfdctint.obj
 0001:0010c420       _jpeg_fdct_7x7             1010d420 f   jpeg:jfdctint.obj
 0001:0010c6e0       _jpeg_fdct_6x6             1010d6e0 f   jpeg:jfdctint.obj
 0001:0010cb90       _jpeg_fdct_5x5             1010db90 f   jpeg:jfdctint.obj
 0001:0010d270       _jpeg_fdct_4x4             1010e270 f   jpeg:jfdctint.obj
 0001:0010d590       _jpeg_fdct_3x3             1010e590 f   jpeg:jfdctint.obj
 0001:0010d7a0       _jpeg_fdct_2x2             1010e7a0 f   jpeg:jfdctint.obj
 0001:0010d810       _jpeg_fdct_1x1             1010e810 f   jpeg:jfdctint.obj
 0001:0010d840       _jpeg_fdct_9x9             1010e840 f   jpeg:jfdctint.obj
 0001:0010db60       _jpeg_fdct_10x10           1010eb60 f   jpeg:jfdctint.obj
 0001:0010df30       _jpeg_fdct_11x11           1010ef30 f   jpeg:jfdctint.obj
 0001:0010e4b0       _jpeg_fdct_12x12           1010f4b0 f   jpeg:jfdctint.obj
 0001:0010ead0       _jpeg_fdct_13x13           1010fad0 f   jpeg:jfdctint.obj
 0001:0010f220       _jpeg_fdct_14x14           10110220 f   jpeg:jfdctint.obj
 0001:0010f900       _jpeg_fdct_15x15           10110900 f   jpeg:jfdctint.obj
 0001:00110030       _jpeg_fdct_16x16           10111030 f   jpeg:jfdctint.obj
 0001:001108d0       _jpeg_fdct_16x8            101118d0 f   jpeg:jfdctint.obj
 0001:00110d60       _jpeg_fdct_14x7            10111d60 f   jpeg:jfdctint.obj
 0001:001114d0       _jpeg_fdct_12x6            101124d0 f   jpeg:jfdctint.obj
 0001:00111a20       _jpeg_fdct_10x5            10112a20 f   jpeg:jfdctint.obj
 0001:00111e70       _jpeg_fdct_8x4             10112e70 f   jpeg:jfdctint.obj
 0001:00112180       _jpeg_fdct_6x3             10113180 f   jpeg:jfdctint.obj
 0001:00112580       _jpeg_fdct_4x2             10113580 f   jpeg:jfdctint.obj
 0001:001126d0       _jpeg_fdct_2x1             101136d0 f   jpeg:jfdctint.obj
 0001:00112710       _jpeg_fdct_8x16            10113710 f   jpeg:jfdctint.obj
 0001:00112d50       _jpeg_fdct_7x14            10113d50 f   jpeg:jfdctint.obj
 0001:001132a0       _jpeg_fdct_6x12            101142a0 f   jpeg:jfdctint.obj
 0001:001136b0       _jpeg_fdct_5x10            101146b0 f   jpeg:jfdctint.obj
 0001:00113990       _jpeg_fdct_4x8             10114990 f   jpeg:jfdctint.obj
 0001:00113d00       _jpeg_fdct_3x6             10114d00 f   jpeg:jfdctint.obj
 0001:001141b0       _jpeg_fdct_2x4             101151b0 f   jpeg:jfdctint.obj
 0001:00114300       _jpeg_fdct_1x2             10115300 f   jpeg:jfdctint.obj
 0001:00114350       _jpeg_fdct_float           10115350 f   jpeg:jfdctflt.obj
 0001:00114680       _jpeg_fdct_ifast           10115680 f   jpeg:jfdctfst.obj
 0001:00114add       @__security_check_cookie@4 10115add f   libcmt:secchk.obj
 0001:00114aec       _free                      10115aec f   libcmt:free.obj
 0001:00114b26       _malloc                    10115b26 f   libcmt:malloc.obj
 0001:00114bba       _strncmp                   10115bba f   libcmt:strncmp.obj
 0001:00114c7a       _fputc                     10115c7a f   libcmt:fputc.obj
 0001:00114d76       _feof                      10115d76 f   libcmt:feoferr.obj
 0001:00114d9e       _ferror                    10115d9e f   libcmt:feoferr.obj
 0001:00114dc6       __vsprintf_l               10115dc6 f   libcmt:vsprintf.obj
 0001:00114e4a       _vsprintf                  10115e4a f   libcmt:vsprintf.obj
 0001:00114e64       __wfsopen                  10115e64 f   libcmt:wfopen.obj
 0001:00114f22       __wfopen                   10115f22 f   libcmt:wfopen.obj
 0001:00114f39       __fread_nolock_s           10115f39 f   libcmt:fread.obj
 0001:001150f5       _fread_s                   101160f5 f   libcmt:fread.obj
 0001:00115183       _fread                     10116183 f   libcmt:fread.obj
 0001:001151a0       __fwrite_nolock            101161a0 f   libcmt:fwrite.obj
 0001:001152f7       _fwrite                    101162f7 f   libcmt:fwrite.obj
 0001:00115371       __ftell_nolock             10116371 f   libcmt:ftell.obj
 0001:00115505       _ftell                     10116505 f   libcmt:ftell.obj
 0001:0011556a       __fseek_nolock             1011656a f   libcmt:fseek.obj
 0001:001155f4       _fseek                     101165f4 f   libcmt:fseek.obj
 0001:00115670       __fclose_nolock            10116670 f   libcmt:fclose.obj
 0001:001156dd       _fclose                    101166dd f   libcmt:fclose.obj
 0001:00115751       _atol                      10116751 f   libcmt:atox.obj
 0001:00115767       _atoi                      10116767 f   libcmt:atox.obj
 0001:00115772       ??0_LocaleUpdate@@QAE@PAUlocaleinfo_struct@@@Z 10116772 f i libcmt:strnicmp.obj
 0001:001157f9       __strnicmp_l               101167f9 f   libcmt:strnicmp.obj
 0001:001158db       __strnicmp                 101168db f   libcmt:strnicmp.obj
 0001:0011592e       _frexp                     1011692e f   libcmt:_frexp_.obj
 0001:001159fc       _fprintf                   101169fc f   libcmt:fprintf.obj
 0001:00115b10       _longjmp                   10116b10 f   libcmt:longjmp.obj
 0001:00115bc1       __wcsicmp_l                10116bc1 f   libcmt:wcsicmp.obj
 0001:00115cc4       __wcsicmp                  10116cc4 f   libcmt:wcsicmp.obj
 0001:00115d4f       ___ascii_stricmp           10116d4f f   libcmt:stricmp.obj
 0001:00115d88       __stricmp_l                10116d88 f   libcmt:stricmp.obj
 0001:00115e48       __stricmp                  10116e48 f   libcmt:stricmp.obj
 0001:00115e8f       _fputs                     10116e8f f   libcmt:fputs.obj
 0001:00115f98       _fgetc                     10116f98 f   libcmt:fgetc.obj
 0001:0011608c       __isalpha_l                1011708c f i libcmt:_ctype.obj
 0001:001160e2       _isalpha                   101170e2 f i libcmt:_ctype.obj
 0001:00116112       __isdigit_l                10117112 f i libcmt:_ctype.obj
 0001:00116163       _isdigit                   10117163 f i libcmt:_ctype.obj
 0001:00116191       __isxdigit_l               10117191 f i libcmt:_ctype.obj
 0001:001161e7       _isxdigit                  101171e7 f i libcmt:_ctype.obj
 0001:00116217       __isspace_l                10117217 f i libcmt:_ctype.obj
 0001:00116268       _isspace                   10117268 f i libcmt:_ctype.obj
 0001:00116296       __isalnum_l                10117296 f i libcmt:_ctype.obj
 0001:001162ec       _isalnum                   101172ec f i libcmt:_ctype.obj
 0001:0011631c       __isprint_l                1011731c f i libcmt:_ctype.obj
 0001:00116372       _isprint                   10117372 f i libcmt:_ctype.obj
 0001:001163a2       __wcstombs_l_helper        101173a2 f   libcmt:wcstombs.obj
 0001:00116609       _wcstombs                  10117609 f   libcmt:wcstombs.obj
 0001:00116623       __strdup                   10117623 f   libcmt:strdup.obj
 0001:00116675       _sprintf                   10117675 f   libcmt:sprintf.obj
 0001:001166f9       __freea                    101176f9 f i libcmt:strftime.obj
 0001:00116fc6       __Strftime_l               10117fc6 f   libcmt:strftime.obj
 0001:00117152       _strftime                  10118152 f   libcmt:strftime.obj
 0001:00117852       ___tzset                   10118852 f   libcmt:tzset.obj
 0001:001178a1       __tzset                    101188a1 f   libcmt:tzset.obj
 0001:001178d9       __isindst                  101188d9 f   libcmt:tzset.obj
 0001:0011791a       __localtime64_s            1011891a f   libcmt:loctim64.obj
 0001:00117ba2       __localtime64              10118ba2 f   libcmt:loctim64.obj
 0001:00117bc9       __time64                   10118bc9 f   libcmt:time64.obj
 0001:00117e45       _strtol                    10118e45 f   libcmt:strtol.obj
 0001:00117e70       _strtoul                   10118e70 f   libcmt:strtol.obj
 0001:00117e9c       __CRT_INIT@12              10118e9c f   libcmt:dllcrt0.obj
 0001:001180f6       __DllMainCRTStartup@12     101190f6 f   libcmt:dllcrt0.obj
 0001:00118119       ___report_gsfailure        10119119 f   libcmt:gs_report.obj
 0001:0011821f       __get_errno_from_oserr     1011921f f   libcmt:dosmap.obj
 0001:00118261       __errno                    10119261 f   libcmt:dosmap.obj
 0001:00118274       ___doserrno                10119274 f   libcmt:dosmap.obj
 0001:00118287       __dosmaperr                10119287 f   libcmt:dosmap.obj
 0001:001182aa       __heap_init                101192aa f   libcmt:heapinit.obj
 0001:001182c8       __heap_term                101192c8 f   libcmt:heapinit.obj
 0001:001182dc       ___crtCorExitProcess       101192dc f   libcmt:crt0dat.obj
 0001:00118307       ___crtExitProcess          10119307 f   libcmt:crt0dat.obj
 0001:0011831f       __lockexit                 1011931f f   libcmt:crt0dat.obj
 0001:00118328       __unlockexit               10119328 f   libcmt:crt0dat.obj
 0001:00118331       __init_pointers            10119331 f   libcmt:crt0dat.obj
 0001:00118364       __initterm_e               10119364 f   libcmt:crt0dat.obj
 0001:00118388       __cinit                    10119388 f   libcmt:crt0dat.obj
 0001:0011855f       _exit                      1011955f f   libcmt:crt0dat.obj
 0001:00118575       __exit                     10119575 f   libcmt:crt0dat.obj
 0001:0011858b       __cexit                    1011958b f   libcmt:crt0dat.obj
 0001:0011859a       __amsg_exit                1011959a f   libcmt:crt0dat.obj
 0001:001185b8       __GET_RTERRMSG             101195b8 f   libcmt:crt0msg.obj
 0001:001185de       __NMSG_WRITE               101195de f   libcmt:crt0msg.obj
 0001:0011878d       __FF_MSGBANNER             1011978d f   libcmt:crt0msg.obj
 0001:001187c6       __initp_heap_handler       101197c6 f   libcmt:handler.obj
 0001:001187d5       __callnewh                 101197d5 f   libcmt:handler.obj
 0001:001187fd       ___iob_func                101197fd f   libcmt:_file.obj
 0001:00118803       ___initstdio               10119803 f   libcmt:_file.obj
 0001:001188b4       ___endstdio                101198b4 f   libcmt:_file.obj
 0001:001188d4       __lock_file                101198d4 f   libcmt:_file.obj
 0001:00118915       __lock_file2               10119915 f   libcmt:_file.obj
 0001:00118947       __unlock_file              10119947 f   libcmt:_file.obj
 0001:00118983       __unlock_file2             10119983 f   libcmt:_file.obj
 0001:001189b2       __flsbuf                   101199b2 f   libcmt:_flsbuf.obj
 0001:00118b16       __ioinit                   10119b16 f   libcmt:ioinit.obj
 0001:00118d5b       __ioterm                   10119d5b f   libcmt:ioinit.obj
 0001:00118dae       __fileno                   10119dae f   libcmt:fileno.obj
 0001:00118dd4       __initp_misc_invarg        10119dd4 f   libcmt:invarg.obj
 0001:00118de3       __call_reportfault         10119de3 f   libcmt:invarg.obj
 0001:00118f0c       __invoke_watson            10119f0c f   libcmt:invarg.obj
 0001:00118f31       __invalid_parameter        10119f31 f   libcmt:invarg.obj
 0001:00118f5e       __invalid_parameter_noinfo 10119f5e f   libcmt:invarg.obj
 0001:00118f70       __SEH_prolog4              10119f70 f   libcmt:sehprolg4.obj
 0001:00118fb5       __SEH_epilog4              10119fb5 f   libcmt:sehprolg4.obj
 0001:00118fd0       __except_handler4          10119fd0 f   libcmt:chandler4.obj
 0001:001191f4       __output_l                 1011a1f4 f   libcmt:output.obj
 0001:00119dfc       __wopenfile                1011adfc f   libcmt:_wopen.obj
 0001:0011a0b5       __getstream                1011b0b5 f   libcmt:stream.obj
 0001:0011a1f0       __local_unwind4            1011b1f0 f   libcmt:exsup4.obj
 0001:0011a2c6       __seh_longjmp_unwind4@4    1011b2c6 f   libcmt:exsup4.obj
 0001:0011a2e2       @_EH4_CallFilterFunc@8     1011b2e2 f   libcmt:exsup4.obj
 0001:0011a2f9       @_EH4_TransferToHandler@8  1011b2f9 f   libcmt:exsup4.obj
 0001:0011a312       @_EH4_GlobalUnwind2@8      1011b312 f   libcmt:exsup4.obj
 0001:0011a32b       @_EH4_LocalUnwind@16       1011b32b f   libcmt:exsup4.obj
 0001:0011a342       __filbuf                   1011b342 f   libcmt:_filbuf.obj
 0001:0011a464       __read_nolock              1011b464 f   libcmt:read.obj
 0001:0011aa1b       __read                     1011ba1b f   libcmt:read.obj
 0001:0011ab11       _memcpy_s                  1011bb11 f   libcmt:memcpy_s.obj
 0001:0011ab90       _memset                    1011bb90 f   libcmt:memset.obj
 0001:0011ac0a       __write_nolock             1011bc0a f   libcmt:write.obj
 0001:0011b307       __write                    1011c307 f   libcmt:write.obj
 0001:0011b3db       __flush                    1011c3db f   libcmt:fflush.obj
 0001:0011b443       __fflush_nolock            1011c443 f   libcmt:fflush.obj
 0001:0011b565       _fflush                    1011c565 f   libcmt:fflush.obj
 0001:0011b5b8       __flushall                 1011c5b8 f   libcmt:fflush.obj
 0001:0011b5d0       _memcpy                    1011c5d0 f   libcmt:memcpy.obj
 0001:0011b931       __lseek_nolock             1011c931 f   libcmt:lseek.obj
 0001:0011b9a6       __lseek                    1011c9a6 f   libcmt:lseek.obj
 0001:0011ba7a       __close_nolock             1011ca7a f   libcmt:close.obj
 0001:0011bb16       __close                    1011cb16 f   libcmt:close.obj
 0001:0011bbda       __freebuf                  1011cbda f   libcmt:_freebuf.obj
 0001:0011be2e       ___updatetmbcinfo          1011ce2e f   libcmt:mbctype.obj
 0001:0011bf4e       __setmbcp_nolock           1011cf4e f   libcmt:mbctype.obj
 0001:0011c137       __setmbcp                  1011d137 f   libcmt:mbctype.obj
 0001:0011c2d1       ___initmbctable            1011d2d1 f   libcmt:mbctype.obj
 0001:0011c2ef       ___addlocaleref            1011d2ef f   libcmt:localref.obj
 0001:0011c37e       ___removelocaleref         1011d37e f   libcmt:localref.obj
 0001:0011c417       ___freetlocinfo            1011d417 f   libcmt:localref.obj
 0001:0011c562       __updatetlocinfoEx_nolock  1011d562 f   libcmt:localref.obj
 0001:0011c5af       ___updatetlocinfo          1011d5af f   libcmt:localref.obj
 0001:0011c628       __encoded_null             1011d628 f   libcmt:tidtable.obj
 0001:0011c631       ___crtTlsAlloc@4           1011d631 f   libcmt:tidtable.obj
 0001:0011c63a       ___set_flsgetvalue         1011d63a f   libcmt:tidtable.obj
 0001:0011c66e       __mtterm                   1011d66e f   libcmt:tidtable.obj
 0001:0011c6ab       __initptd                  1011d6ab f   libcmt:tidtable.obj
 0001:0011c75f       __getptd_noexit            1011d75f f   libcmt:tidtable.obj
 0001:0011c7d8       __getptd                   1011d7d8 f   libcmt:tidtable.obj
 0001:0011c7f2       __freefls@4                1011d7f2 f   libcmt:tidtable.obj
 0001:0011c921       __freeptd                  1011d921 f   libcmt:tidtable.obj
 0001:0011c98f       __mtinit                   1011d98f f   libcmt:tidtable.obj
 0001:0011cb0a       __tolower_l                1011db0a f   libcmt:tolower.obj
 0001:0011cc1f       _tolower                   1011dc1f f   libcmt:tolower.obj
 0001:0011cc50       ___ascii_strnicmp          1011dc50 f   libcmt:_strnicm.obj
 0001:0011ccb1       __set_exp                  1011dcb1 f   libcmt:_util_.obj
 0001:0011ccde       __sptype                   1011dcde f   libcmt:_util_.obj
 0001:0011cd44       __decomp                   1011dd44 f   libcmt:_util_.obj
 0001:0011ce07       __raise_exc_ex             1011de07 f   libcmt:_fpexcept_.obj
 0001:0011d0e3       __raise_exc                1011e0e3 f   libcmt:_fpexcept_.obj
 0001:0011d106       __handle_exc               1011e106 f   libcmt:_fpexcept_.obj
 0001:0011d2ea       __set_errno_from_matherr   1011e2ea f   libcmt:_fpexcept_.obj
 0001:0011d317       __errcode                  1011e317 f   libcmt:_fpexcept_.obj
 0001:0011d34b       __umatherr                 1011e34b f   libcmt:_fpexcept_.obj
 0001:0011d3eb       __handle_qnan1             1011e3eb f   libcmt:_fpexcept_.obj
 0001:0011d440       __except1                  1011e440 f   libcmt:_fpexcept_.obj
 0001:0011d50a       __statfp                   1011e50a f   libcmt:_fpctrl_.obj
 0001:0011d51a       __clrfp                    1011e51a f   libcmt:_fpctrl_.obj
 0001:0011d52b       __ctrlfp                   1011e52b f   libcmt:_fpctrl_.obj
 0001:0011d556       __set_statfp               1011e556 f   libcmt:_fpctrl_.obj
 0001:0011d5ae       ___set_fpsr_sse2           1011e5ae f   libcmt:_fpctrl_.obj
 0001:0011d620       __cfltcvt_init             1011e620 f   libcmt:_fpinit_.obj
 0001:0011d680       __fpmath                   1011e680 f   libcmt:_fpinit_.obj
 0001:0011d699       __stbuf                    1011e699 f   libcmt:_sftbuf.obj
 0001:0011d735       __ftbuf                    1011e735 f   libcmt:_sftbuf.obj
 0001:0011d769       _vfprintf_helper           1011e769 f   libcmt:vfprintf.obj
 0001:0011d874       _vfprintf                  1011e874 f   libcmt:vfprintf.obj
 0001:0011d8a0       __global_unwind2           1011e8a0 f   libcmt:exsup.obj
 0001:0011d905       __local_unwind2            1011e905 f   libcmt:exsup.obj
 0001:0011d989       __abnormal_termination     1011e989 f   libcmt:exsup.obj
 0001:0011d9ac       __NLG_Notify1              1011e9ac f   libcmt:exsup.obj
 0001:0011d9b5       __NLG_Notify               1011e9b5 f   libcmt:exsup.obj
 0001:0011d9cc       __NLG_Dispatch             1011e9cc     libcmt:exsup.obj
 0001:0011d9cc       __NLG_Dispatch2            1011e9cc     libcmt:exsup.obj
 0001:0011d9d4       __NLG_Call                 1011e9d4 f   libcmt:exsup.obj
 0001:0011d9d6       __NLG_Return2              1011e9d6     libcmt:exsup.obj
 0001:0011d9d7       __rt_probe_read4@4         1011e9d7 f   libcmt:sehsupp.obj
 0001:0011da22       __towlower_l               1011ea22 f   libcmt:towlower.obj
 0001:0011dad0       _strlen                    1011ead0 f   libcmt:strlen.obj
 0001:0011db5b       __isleadbyte_l             1011eb5b f i libcmt:_wctype.obj
 0001:0011db93       _isleadbyte                1011eb93 f i libcmt:_wctype.obj
 0001:0011dba6       __isctype_l                1011eba6 f   libcmt:isctype.obj
 0001:0011dc5e       _strcpy_s                  1011ec5e f   libcmt:strcpy_s.obj
 0001:0011dcbd       __malloc_crt               1011ecbd f   libcmt:crtheap.obj
 0001:0011dd02       __calloc_crt               1011ed02 f   libcmt:crtheap.obj
 0001:0011dd4e       __realloc_crt              1011ed4e f   libcmt:crtheap.obj
 0001:0011dd9c       __recalloc_crt             1011ed9c f   libcmt:crtheap.obj
 0001:0011ddee       __get_daylight             1011edee f   libcmt:timeset.obj
 0001:0011de1b       __get_dstbias              1011ee1b f   libcmt:timeset.obj
 0001:0011de48       __get_timezone             1011ee48 f   libcmt:timeset.obj
 0001:0011de75       ___daylight                1011ee75 f   libcmt:timeset.obj
 0001:0011de7b       ___dstbias                 1011ee7b f   libcmt:timeset.obj
 0001:0011de81       ___timezone                1011ee81 f   libcmt:timeset.obj
 0001:0011de87       ___tzname                  1011ee87 f   libcmt:timeset.obj
 0001:0011de90       __alloca_probe_16          1011ee90 f   libcmt:alloca16.obj
 0001:0011dea6       __alloca_probe_8           1011eea6     libcmt:alloca16.obj
 0001:0011debc       __mtinitlocks              1011eebc f   libcmt:mlock.obj
 0001:0011df06       __mtdeletelocks            1011ef06 f   libcmt:mlock.obj
 0001:0011df5d       __unlock                   1011ef5d f   libcmt:mlock.obj
 0001:0011df74       __mtinitlocknum            1011ef74 f   libcmt:mlock.obj
 0001:0011e036       __lock                     1011f036 f   libcmt:mlock.obj
 0001:0011e069       _strncpy_s                 1011f069 f   libcmt:strncpy_s.obj
 0001:0011e120       _strcmp                    1011f120 f   libcmt:strcmp.obj
 0001:0011e1a8       __getenv_helper_nolock     1011f1a8 f   libcmt:getenv.obj
 0001:0011e22f       _getenv                    1011f22f f   libcmt:getenv.obj
 0001:0011e2a9       ____lc_codepage_func       1011f2a9 f   libcmt:initctyp.obj
 0001:0011e2cf       __gmtime64_s               1011f2cf f   libcmt:gmtime64.obj
 0001:0011e508       __gmtime64                 1011f508 f   libcmt:gmtime64.obj
 0001:0011e530       __alldiv                   1011f530 f   libcmt:lldiv.obj
 0001:0011e5e0       __allrem                   1011f5e0 f   libcmt:llrem.obj
 0001:0011e692       ___getgmtimebuf            1011f692 f   libcmt:gmtime.obj
 0001:0011e6d0       __aulldiv                  1011f6d0 f   libcmt:ulldiv.obj
 0001:0011e738       __setenvp                  1011f738 f   libcmt:stdenvp.obj
 0001:0011e9ae       __setargv                  1011f9ae f   libcmt:stdargv.obj
 0001:0011ea69       ___crtGetEnvironmentStringsA 1011fa69 f   libcmt:a_env.obj
 0001:0011eb00       __RTC_Initialize           1011fb00 f   libcmt:_initsect_.obj
 0001:0011eb26       __RTC_Terminate            1011fb26 f   libcmt:_initsect_.obj
 0001:0011eb4c       __XcptFilter               1011fb4c f   libcmt:winxfltr.obj
 0001:0011ec96       ___CppXcptFilter           1011fc96 f   libcmt:winxfltr.obj
 0001:0011ecb6       ___security_init_cookie    1011fcb6 f   libcmt:gs_support.obj
 0001:0011ed51       __crt_debugger_hook        1011fd51 f   libcmt:dbghook.obj
 0001:0011ed59       ?terminate@@YAXXZ          1011fd59 f   libcmt:hooks.obj
 0001:0011ed92       __initp_eh_hooks           1011fd92 f   libcmt:hooks.obj
 0001:0011eda3       __initp_misc_winsig        1011fda3 f   libcmt:winsig.obj
 0001:0011edf8       ___get_sigabrt             1011fdf8 f   libcmt:winsig.obj
 0001:0011ee05       _raise                     1011fe05 f   libcmt:winsig.obj
 0001:0011efa8       __initp_misc_rand_s        1011ffa8 f   libcmt:rand_s.obj
 0001:0011efb7       __initp_misc_purevirt      1011ffb7 f   libcmt:inithelp.obj
 0001:0011f07c       ___onexitinit              1012007c f   libcmt:onexit.obj
 0001:0011f0ad       __onexit                   101200ad f   libcmt:onexit.obj
 0001:0011f0e9       _atexit                    101200e9 f   libcmt:onexit.obj
 0001:0011f100       __initp_misc_cfltcvt_tab   10120100 f   libcmt:cmiscdat.obj
 0001:0011f130       __ValidateImageBase        10120130 f   libcmt:pesect.obj
 0001:0011f170       __FindPESection            10120170 f   libcmt:pesect.obj
 0001:0011f1c0       __IsNonwritableInCurrentImage 101201c0 f   libcmt:pesect.obj
 0001:0011f27c       ___crtMessageBoxW          1012027c f   libcmt:crtmboxw.obj
 0001:0011f3e8       _wcscat_s                  101203e8 f   libcmt:wcscat_s.obj
 0001:0011f45d       _wcsncpy_s                 1012045d f   libcmt:wcsncpy_s.obj
 0001:0011f52a       _wcslen                    1012052a f   libcmt:wcslen.obj
 0001:0011f545       _wcscpy_s                  10120545 f   libcmt:wcscpy_s.obj
 0001:0011f5a8       __set_error_mode           101205a8 f   libcmt:errmode.obj
 0001:0011f5e7       __fcloseall                101205e7 f   libcmt:closeall.obj
 0001:0011f683       __lseeki64_nolock          10120683 f   libcmt:lseeki64.obj
 0001:0011f708       __lseeki64                 10120708 f   libcmt:lseeki64.obj
 0001:0011f7f2       __getbuf                   101207f2 f   libcmt:_getbuf.obj
 0001:0011f83b       __isatty                   1012083b f   libcmt:isatty.obj
 0001:0011f891       __get_printf_count_output  10120891 f   libcmt:printf.obj
 0001:0011f8a7       __wctomb_s_l               101208a7 f   libcmt:wctomb.obj
 0001:0011f9fc       _wctomb_s                  101209fc f   libcmt:wctomb.obj
 0001:0011fa20       __aulldvrm                 10120a20 f   libcmt:ulldvrm.obj
 0001:001201ea       __wsopen_helper            101211ea f   libcmt:wopen.obj
 0001:001202ae       __wsopen_s                 101212ae f   libcmt:wopen.obj
 0001:001202ce       __wcsnicmp_l               101212ce f   libcmt:wcsnicmp.obj
 0001:001203b3       __wcsnicmp                 101213b3 f   libcmt:wcsnicmp.obj
 0001:00120451       _wcsncmp                   10121451 f   libcmt:wcsncmp.obj
 0001:0012048a       __set_osfhnd               1012148a f   libcmt:osfinfo.obj
 0001:0012050b       __free_osfhnd              1012150b f   libcmt:osfinfo.obj
 0001:00120591       __get_osfhandle            10121591 f   libcmt:osfinfo.obj
 0001:001205fa       ___lock_fhandle            101215fa f   libcmt:osfinfo.obj
 0001:00120699       __unlock_fhandle           10121699 f   libcmt:osfinfo.obj
 0001:001206c0       __alloc_osfhnd             101216c0 f   libcmt:osfinfo.obj
 0001:00120859       __VEC_memzero              10121859 f   libcmt:p4_memset.obj
 0001:00120913       ___sse2_available_init     10121913 f   libcmt:cpu_disp.obj
 0001:00120923       __putwch_nolock            10121923 f   libcmt:putwch.obj
 0001:00120965       __mbtowc_l                 10121965 f   libcmt:mbtowc.obj
 0001:00120a7b       _mbtowc                    10121a7b f   libcmt:mbtowc.obj
 0001:00120aa0       __alloca_probe             10121aa0     libcmt:chkstk.obj
 0001:00120aa0       __chkstk                   10121aa0 f   libcmt:chkstk.obj
 0001:00120acb       __commit                   10121acb f   libcmt:commit.obj
 0001:00120ba4       __VEC_memcpy               10121ba4 f   libcmt:p4_memcpy.obj
 0001:00120cb0       __allmul                   10121cb0 f   libcmt:llmul.obj
 0001:00120ecb       ___crtLCMapStringA         10121ecb f   libcmt:a_map.obj
 0001:00120ff8       ___crtGetStringTypeA       10121ff8 f   libcmt:a_str.obj
 0001:00121038       ___free_lc_time            10122038 f   libcmt:inittime.obj
 0001:001213af       ___free_lconv_num          101223af f   libcmt:initnum.obj
 0001:00121418       ___free_lconv_mon          10122418 f   libcmt:initmon.obj
 0001:00121516       _strcat_s                  10122516 f   libcmt:strcat_s.obj
 0001:00121590       _strcspn                   10122590 f   libcmt:strcspn.obj
 0001:001215e0       _strpbrk                   101225e0 f   libcmt:strpbrk.obj
 0001:00121620       __matherr                  10122620 f   libcmt:_matherr_.obj
 0001:00121623       __forcdecpt_l              10122623 f   libcmt:cvt.obj
 0001:00121697       __cropzeros_l              10122697 f   libcmt:cvt.obj
 0001:00121719       __positive                 10122719 f   libcmt:cvt.obj
 0001:00121735       __fassign_l                10122735 f   libcmt:cvt.obj
 0001:00121777       __fassign                  10122777 f   libcmt:cvt.obj
 0001:001217b0       __forcdecpt                101227b0 f   libcmt:cvt.obj
 0001:001217c3       __cropzeros                101227c3 f   libcmt:cvt.obj
 0001:00121937       __cftoe_l                  10122937 f   libcmt:cvt.obj
 0001:001219fe       __cftoe                    101229fe f   libcmt:cvt.obj
 0001:00121a1e       __cftoa_l                  10122a1e f   libcmt:cvt.obj
 0001:00121e97       __cftof_l                  10122e97 f   libcmt:cvt.obj
 0001:00121f58       __cftog_l                  10122f58 f   libcmt:cvt.obj
 0001:00122045       __cfltcvt_l                10123045 f   libcmt:cvt.obj
 0001:001220cd       __cfltcvt                  101230cd f   libcmt:cvt.obj
 0001:001220f0       __setdefaultprecision      101230f0 f   libcmt:fp8.obj
 0001:00122118       ___crtLCMapStringW         10123118 f   libcmt:w_map.obj
 0001:00122147       _iswctype                  10123147 f   libcmt:iswctype.obj
 0001:0012219c       __calloc_impl              1012319c f   libcmt:calloc_impl.obj
 0001:0012221e       _realloc                   1012321e f   libcmt:realloc.obj
 0001:001222cb       __recalloc                 101232cb f   libcmt:recalloc.obj
 0001:00122339       __mbsnbicoll_l             10123339 f   libcmt:mbsnbico.obj
 0001:00122417       __mbsnbicoll               10123417 f   libcmt:mbsnbico.obj
 0001:00122431       ___wtomb_environ           10123431 f   libcmt:wtombenv.obj
 0001:001224c8       _strnlen                   101234c8 f   libcmt:strlen_s.obj
 0001:00122538       __ismbblead                10123538 f   libcmt:ismbbyte.obj
 0001:00122550       _abort                     10123550 f   libcmt:abort.obj
 0001:00122583       __msize                    10123583 f   libcmt:msize.obj
 0001:001225b6       __fptrap                   101235b6 f   libcmt:crt0fp.obj
 0001:001225bf       __chsize_nolock            101235bf f   libcmt:chsize.obj
 0001:00122775       __setmode_nolock           10123775 f   libcmt:setmode.obj
 0001:00122830       __get_fmode                10123830 f   libcmt:setmode.obj
 0001:0012285d       ___initconout              1012385d f   libcmt:initcon.obj
 0001:0012287c       ___termconout              1012387c f   libcmt:initcon.obj
 0001:0012294d       __ultoa_s                  1012394d f   libcmt:xtoas.obj
 0001:00122970       _strrchr                   10123970 f   libcmt:strrchr.obj
 0001:0012299d       __atodbl_l                 1012399d f   libcmt:atodbl.obj
 0001:00122a45       __atoflt_l                 10123a45 f   libcmt:atodbl.obj
 0001:00122af0       _memmove                   10123af0 f   libcmt:memmove.obj
 0001:00122e51       __fptostr                  10123e51 f   libcmt:_fptostr.obj
 0001:00122f04       ___dtold                   10123f04 f   libcmt:_cfout_.obj
 0001:00122fb7       __fltout2                  10123fb7 f   libcmt:_cfout_.obj
 0001:00123050       __alldvrm                  10124050 f   libcmt:lldvrm.obj
 0001:00123130       __aullshr                  10124130 f   libcmt:ullshr.obj
 0001:0012314f       __controlfp_s              1012414f f   libcmt:_contrlfp_.obj
 0001:001231ae       _wcsnlen                   101241ae f   libcmt:wcslen_s.obj
 0001:0012343c       ___crtCompareStringA       1012443c f   libcmt:a_cmp.obj
 0001:0012347e       __strnicoll_l              1012447e f   libcmt:strnicol.obj
 0001:0012361a       ___crtsetenv               1012461a f   libcmt:setenv.obj
 0001:0012385c       __ld12tod                  1012485c f   libcmt:_intrncvt_.obj
 0001:00123dad       __ld12tof                  10124dad f   libcmt:_intrncvt_.obj
 0001:001242fe       ___strgtold12_l            101252fe f   libcmt:_strgtold_.obj
 0001:001249da       _$I10_OUTPUT               101259da f   libcmt:_x10fout_.obj
 0001:00125400       __control87                10126400 f i libcmt:_ieee87_.obj
 0001:00125712       __mbschr_l                 10126712 f   libcmt:mbschr.obj
 0001:001257c2       __mbschr                   101267c2 f   libcmt:mbschr.obj
 0001:001257d9       ___mtold12                 101267d9 f   libcmt:_mantold_.obj
 0001:001259d0       _strchr                    101269d0 f   libcmt:strchr.obj
 0001:001259d6       ___from_strstr_to_strchr   101269d6     libcmt:strchr.obj
 0001:00125a8e       _RtlUnwind@16              10126a8e f   kernel32:KERNEL32.dll
 0001:00125bd6       __tmpnam_helper            10126bd6 f   libcmt:tmpfile.obj
 0001:00125d12       _tmpnam                    10126d12 f   libcmt:tmpfile.obj
 0001:00125d39       __tmpfile_helper           10126d39 f   libcmt:tmpfile.obj
 0001:00125f2c       _tmpfile                   10126f2c f   libcmt:tmpfile.obj
 0001:00125f50       _ceil                      10126f50 f   libcmt:_ceil_pentium4_.obj
 0001:00125f90       __ceil_pentium4            10126f90 f   libcmt:_ceil_pentium4_.obj
 0001:0012606d       __atof_l                   1012706d f   libcmt:atof.obj
 0001:00126118       _atof                      10127118 f   libcmt:atof.obj
 0001:00126199       _sscanf                    10127199 f   libcmt:sscanf.obj
 0001:001261bb       _rewind                    101271bb f   libcmt:rewind.obj
 0001:00126310       _qsort                     10127310 f   libcmt:qsort.obj
 0001:001265a0       _strncpy                   101275a0 f   libcmt:strncpy.obj
 0001:001266c4       _strtok                    101276c4 f   libcmt:strtok.obj
 0001:00126781       __fsopen                   10127781 f   libcmt:fopen.obj
 0001:0012683d       _fopen                     1012783d f   libcmt:fopen.obj
 0001:00126860       _modf                      10127860 f   libcmt:_modf_pentium4_.obj
 0001:001268a0       __modf_pentium4            101278a0 f   libcmt:_modf_pentium4_.obj
 0001:001269a8       _remove                    101279a8 f   libcmt:unlink.obj
 0001:001269d8       __vsnprintf_l              101279d8 f   libcmt:vsnprint.obj
 0001:00126a84       __vsnprintf                10127a84 f   libcmt:vsnprint.obj
 0001:00126aa1       _bsearch                   10127aa1 f   libcmt:bsearch.obj
 0001:00126b55       _rand                      10127b55 f   libcmt:rand.obj
 0001:00126c2d       __input_l                  10127c2d f   libcmt:input.obj
 0001:00127c31       __getpid                   10128c31 f   libcmt:getpid.obj
 0001:00127c37       __mbsrchr_l                10128c37 f   libcmt:mbsrchr.obj
 0001:00127ce1       __mbsrchr                  10128ce1 f   libcmt:mbsrchr.obj
 0001:00127cf8       __rmtmp                    10128cf8 f   libcmt:rmtmp.obj
 0001:00127da1       __access_s                 10128da1 f   libcmt:access.obj
 0001:00128554       __sopen_helper             10129554 f   libcmt:open.obj
 0001:00128618       __sopen_s                  10129618 f   libcmt:open.obj
 0001:00128638       ___libm_error_support      10129638 f   libcmt:_libm_error_.obj
 0001:00128904       __sse2_mathfcns_init       10129904 f   libcmt:_mathfcns_.obj
 0001:00128914       __ceil_default             10129914 f   libcmt:_ceil_.obj
 0001:001289ec       __fltin2                   101299ec f   libcmt:_cfin_.obj
 0001:00128a93       __openfile                 10129a93 f   libcmt:_open.obj
 0001:00128d2a       __modf_default             10129d2a f   libcmt:_modf_.obj
 0001:00128e3f       __ungetc_nolock            10129e3f f   libcmt:ungetc.obj
 0001:00128f22       __frnd                     10129f22 f   libcmt:_frnd_.obj
 0001:00128f36       __mbsnbicmp_l              10129f36 f   libcmt:mbsnbicm.obj
 0001:0012913a       __mbsnbicmp                1012a13a f   libcmt:mbsnbicm.obj
 0001:00129154       __mbsnbcmp_l               1012a154 f   libcmt:mbsnbcmp.obj
 0001:001292a0       __mbsnbcmp                 1012a2a0 f   libcmt:mbsnbcmp.obj
 0001:001292ba       __copysign                 1012a2ba f   libcmt:_ieeemisc_.obj
 0001:001292e2       __fpclass                  1012a2e2 f   libcmt:_ieeemisc_.obj
 0001:00129380       __ftol2_sse                1012a380 f   libcmt:ftol2.obj
 0001:00129389       __ftol2_pentium4           1012a389 f   libcmt:ftol2.obj
 0001:0012939c       __ftol2_sse_excpt          1012a39c f   libcmt:ftol2.obj
 0001:001293b6       __ftol2                    1012a3b6 f   libcmt:ftol2.obj
 0001:00129430       _atan2                     1012a430 f   libcmt:_87ctriga_.obj
 0001:0012943a       __CIatan2                  1012a43a f   libcmt:_87ctriga_.obj
 0001:00129450       _log                       1012a450 f   libcmt:_log_.obj
 0001:00129490       __CIlog                    1012a490 f   libcmt:_log_.obj
 0001:001294cb       __CIlog_default            1012a4cb f   libcmt:_log_.obj
 0001:001294df       __log_default              1012a4df     libcmt:_log_.obj
 0001:001295a0       _exp                       1012a5a0 f   libcmt:_87ctran_.obj
 0001:001295dc       __CIexp                    1012a5dc f   libcmt:_87ctran_.obj
 0001:00129617       __exp_default              1012a617 f   libcmt:_87ctran_.obj
 0001:00129621       __CIexp_default            1012a621 f   libcmt:_87ctran_.obj
 0001:00129630       __CIsqrt                   1012a630 f   libcmt:_sqrt_.obj
 0001:00129644       _sqrt                      1012a644     libcmt:_sqrt_.obj
 0001:001296f0       _floor                     1012a6f0 f   libcmt:_floor_pentium4_.obj
 0001:00129730       __floor_pentium4           1012a730 f   libcmt:_floor_pentium4_.obj
 0001:00129820       _pow                       1012a820 f   libcmt:_pow_.obj
 0001:00129860       __CIpow                    1012a860 f   libcmt:_pow_.obj
 0001:0012989b       __CIpow_default            1012a89b f   libcmt:_pow_.obj
 0001:001298b4       __pow_default              1012a8b4     libcmt:_pow_.obj
 0001:00129ab0       _sin                       1012aab0 f   libcmt:_sin_.obj
 0001:00129af0       __CIsin                    1012aaf0 f   libcmt:_sin_.obj
 0001:00129b2b       __CIsin_default            1012ab2b f   libcmt:_sin_.obj
 0001:00129b3f       __sin_default              1012ab3f     libcmt:_sin_.obj
 0001:00129be0       _cos                       1012abe0 f   libcmt:_cos_.obj
 0001:00129c20       __CIcos                    1012ac20 f   libcmt:_cos_.obj
 0001:00129c5b       __CIcos_default            1012ac5b f   libcmt:_cos_.obj
 0001:00129c6f       __cos_default              1012ac6f     libcmt:_cos_.obj
 0001:00129d10       _log10                     1012ad10 f   libcmt:_log10_.obj
 0001:00129d50       __CIlog10                  1012ad50 f   libcmt:_log10_.obj
 0001:00129d8b       __CIlog10_default          1012ad8b f   libcmt:_log10_.obj
 0001:00129d9f       __log10_default            1012ad9f     libcmt:_log10_.obj
 0001:00129e60       __setjmp3                  1012ae60 f   libcmt:setjmp3.obj
 0001:00129ee0       __allshl                   1012aee0 f   libcmt:llshl.obj
 0001:00129f1c       __fFATN2                   1012af1c     libcmt:_87triga_.obj
 0001:00129f6c       __rtpiby2                  1012af6c     libcmt:_87triga_.obj
 0001:00129fb0       __cintrindisp2             1012afb0 f   libcmt:_87cdisp_.obj
 0001:00129fee       __cintrindisp1             1012afee f   libcmt:_87cdisp_.obj
 0001:0012a02b       __ctrandisp2               1012b02b f   libcmt:_87cdisp_.obj
 0001:0012a1ba       __ctrandisp1               1012b1ba f   libcmt:_87cdisp_.obj
 0001:0012a1ed       __fload                    1012b1ed f   libcmt:_87cdisp_.obj
 0001:0012a230       __CIlog_pentium4           1012b230 f   libcmt:_log_pentium4_.obj
 0001:0012a248       __log_pentium4             1012b248     libcmt:_log_pentium4_.obj
 0001:0012a4b1       __fFEXP                    1012b4b1     libcmt:_87tran_.obj
 0001:0012a508       __rtinfpopse               1012b508     libcmt:_87tran_.obj
 0001:0012a50a       __rtinfnpopse              1012b50a     libcmt:_87tran_.obj
 0001:0012a51a       __fFLN                     1012b51a     libcmt:_87tran_.obj
 0001:0012a5cf       __rtinfpop                 1012b5cf     libcmt:_87tran_.obj
 0001:0012a5d1       __rtinfnpop                1012b5d1     libcmt:_87tran_.obj
 0001:0012a5ee       __ffexpm1                  1012b5ee     libcmt:_87tran_.obj
 0001:0012a6a0       __trandisp1                1012b6a0 f   libcmt:_87disp_.obj
 0001:0012a707       __trandisp2                1012b707 f   libcmt:_87disp_.obj
 0001:0012a793       __rttospopde               1012b793     libcmt:_87disp_.obj
 0001:0012a798       __rttospop                 1012b798     libcmt:_87disp_.obj
 0001:0012a79a       __rtnospop                 1012b79a     libcmt:_87disp_.obj
 0001:0012a79c       __rttosnpop                1012b79c     libcmt:_87disp_.obj
 0001:0012a79d       __rtnospopde               1012b79d     libcmt:_87disp_.obj
 0001:0012a7a4       __rtzeropop                1012b7a4     libcmt:_87disp_.obj
 0001:0012a7a6       __rtzeronpop               1012b7a6     libcmt:_87disp_.obj
 0001:0012a7ab       __rtonepop                 1012b7ab     libcmt:_87disp_.obj
 0001:0012a7ad       __rtonenpop                1012b7ad     libcmt:_87disp_.obj
 0001:0012a7b2       __tosnan1                  1012b7b2     libcmt:_87disp_.obj
 0001:0012a7dd       __nosnan2                  1012b7dd     libcmt:_87disp_.obj
 0001:0012a7df       __tosnan2                  1012b7df     libcmt:_87disp_.obj
 0001:0012a807       __nan2                     1012b807     libcmt:_87disp_.obj
 0001:0012a846       __rtindfpop                1012b846     libcmt:_87disp_.obj
 0001:0012a848       __rtindfnpop               1012b848     libcmt:_87disp_.obj
 0001:0012a859       __rttosnpopde              1012b859     libcmt:_87disp_.obj
 0001:0012a863       __rtchsifneg               1012b863     libcmt:_87disp_.obj
 0001:0012a870       __twoToTOS                 1012b870 f   libcmt:_common_.obj
 0001:0012a885       __load_CW                  1012b885 f   libcmt:_common_.obj
 0001:0012a89c       __convertTOStoQNaN         1012b89c f   libcmt:_common_.obj
 0001:0012a8b5       __fload_withFB             1012b8b5 f   libcmt:_common_.obj
 0001:0012a8f8       __checkTOS_withFB          1012b8f8 f   libcmt:_common_.obj
 0001:0012a90e       __fast_exit                1012b90e f   libcmt:_common_.obj
 0001:0012a91b       __math_exit                1012b91b f   libcmt:_common_.obj
 0001:0012a945       __check_overflow_exit      1012b945 f   libcmt:_common_.obj
 0001:0012a959       __check_range_exit         1012b959 f   libcmt:_common_.obj
 0001:0012aa00       __startTwoArgErrorHandling 1012ba00 f   libcmt:_genexcep_.obj
 0001:0012aa17       __startOneArgErrorHandling 1012ba17 f   libcmt:_genexcep_.obj
 0001:0012aa60       __CIexp_pentium4           1012ba60 f   libcmt:_exp_pentium4_.obj
 0001:0012aa78       __exp_pentium4             1012ba78     libcmt:_exp_pentium4_.obj
 0001:0012ad20       __floor_default            1012bd20 f   libcmt:_floor_.obj
 0001:0012ae00       __CIpow_pentium4           1012be00 f   libcmt:_pow_pentium4_.obj
 0001:0012ae19       __pow_pentium4             1012be19     libcmt:_pow_pentium4_.obj
 0001:0012b960       __d_inttype                1012c960 f   libcmt:_powhlp_.obj
 0001:0012b9ca       __powhlp                   1012c9ca f   libcmt:_powhlp_.obj
 0001:0012bb00       __CIsin_pentium4           1012cb00 f   libcmt:_sin_pentium4_.obj
 0001:0012bb18       __sin_pentium4             1012cb18     libcmt:_sin_pentium4_.obj
 0001:0012bcd0       __CIcos_pentium4           1012ccd0 f   libcmt:_cos_pentium4_.obj
 0001:0012bce8       __cos_pentium4             1012cce8     libcmt:_cos_pentium4_.obj
 0001:0012be80       __CIlog10_pentium4         1012ce80 f   libcmt:_log10_pentium4_.obj
 0001:0012be98       __log10_pentium4           1012ce98     libcmt:_log10_pentium4_.obj
 0001:0012c110       __87except                 1012d110 f   libcmt:_87except_.obj
 0002:00000000       __imp__GetOEMCP@0          1012e000     kernel32:KERNEL32.dll
 0002:00000004       __imp__DeleteFileA@4       1012e004     kernel32:KERNEL32.dll
 0002:00000008       __imp__GetSystemTime@4     1012e008     kernel32:KERNEL32.dll
 0002:0000000c       __imp__GetLastError@0      1012e00c     kernel32:KERNEL32.dll
 0002:00000010       __imp__HeapFree@12         1012e010     kernel32:KERNEL32.dll
 0002:00000014       __imp__HeapAlloc@12        1012e014     kernel32:KERNEL32.dll
 0002:00000018       __imp__RtlUnwind@16        1012e018     kernel32:KERNEL32.dll
 0002:0000001c       __imp__MultiByteToWideChar@24 1012e01c     kernel32:KERNEL32.dll
 0002:00000020       __imp__WideCharToMultiByte@32 1012e020     kernel32:KERNEL32.dll
 0002:00000024       __imp__GetTimeFormatA@24   1012e024     kernel32:KERNEL32.dll
 0002:00000028       __imp__GetDateFormatA@24   1012e028     kernel32:KERNEL32.dll
 0002:0000002c       __imp__GetTimeZoneInformation@4 1012e02c     kernel32:KERNEL32.dll
 0002:00000030       __imp__GetSystemTimeAsFileTime@4 1012e030     kernel32:KERNEL32.dll
 0002:00000034       __imp__GetCurrentThreadId@0 1012e034     kernel32:KERNEL32.dll
 0002:00000038       __imp__DecodePointer@4     1012e038     kernel32:KERNEL32.dll
 0002:0000003c       __imp__GetCommandLineA@0   1012e03c     kernel32:KERNEL32.dll
 0002:00000040       __imp__TerminateProcess@8  1012e040     kernel32:KERNEL32.dll
 0002:00000044       __imp__GetCurrentProcess@0 1012e044     kernel32:KERNEL32.dll
 0002:00000048       __imp__UnhandledExceptionFilter@4 1012e048     kernel32:KERNEL32.dll
 0002:0000004c       __imp__SetUnhandledExceptionFilter@4 1012e04c     kernel32:KERNEL32.dll
 0002:00000050       __imp__IsDebuggerPresent@0 1012e050     kernel32:KERNEL32.dll
 0002:00000054       __imp__HeapCreate@12       1012e054     kernel32:KERNEL32.dll
 0002:00000058       __imp__HeapDestroy@4       1012e058     kernel32:KERNEL32.dll
 0002:0000005c       __imp__GetProcAddress@8    1012e05c     kernel32:KERNEL32.dll
 0002:00000060       __imp__GetModuleHandleW@4  1012e060     kernel32:KERNEL32.dll
 0002:00000064       __imp__ExitProcess@4       1012e064     kernel32:KERNEL32.dll
 0002:00000068       __imp__WriteFile@20        1012e068     kernel32:KERNEL32.dll
 0002:0000006c       __imp__GetStdHandle@4      1012e06c     kernel32:KERNEL32.dll
 0002:00000070       __imp__GetModuleFileNameW@12 1012e070     kernel32:KERNEL32.dll
 0002:00000074       __imp__EncodePointer@4     1012e074     kernel32:KERNEL32.dll
 0002:00000078       __imp__EnterCriticalSection@4 1012e078     kernel32:KERNEL32.dll
 0002:0000007c       __imp__LeaveCriticalSection@4 1012e07c     kernel32:KERNEL32.dll
 0002:00000080       __imp__SetHandleCount@4    1012e080     kernel32:KERNEL32.dll
 0002:00000084       __imp__InitializeCriticalSectionAndSpinCount@8 1012e084     kernel32:KERNEL32.dll
 0002:00000088       __imp__GetFileType@4       1012e088     kernel32:KERNEL32.dll
 0002:0000008c       __imp__GetStartupInfoW@4   1012e08c     kernel32:KERNEL32.dll
 0002:00000090       __imp__DeleteCriticalSection@4 1012e090     kernel32:KERNEL32.dll
 0002:00000094       __imp__ReadFile@20         1012e094     kernel32:KERNEL32.dll
 0002:00000098       __imp__GetConsoleCP@0      1012e098     kernel32:KERNEL32.dll
 0002:0000009c       __imp__GetConsoleMode@8    1012e09c     kernel32:KERNEL32.dll
 0002:000000a0       __imp__SetFilePointer@16   1012e0a0     kernel32:KERNEL32.dll
 0002:000000a4       __imp__CloseHandle@4       1012e0a4     kernel32:KERNEL32.dll
 0002:000000a8       __imp__GetCPInfo@8         1012e0a8     kernel32:KERNEL32.dll
 0002:000000ac       __imp__InterlockedIncrement@4 1012e0ac     kernel32:KERNEL32.dll
 0002:000000b0       __imp__InterlockedDecrement@4 1012e0b0     kernel32:KERNEL32.dll
 0002:000000b4       __imp__GetACP@0            1012e0b4     kernel32:KERNEL32.dll
 0002:000000b8       __imp__GetFileAttributesA@4 1012e0b8     kernel32:KERNEL32.dll
 0002:000000bc       __imp__IsValidCodePage@4   1012e0bc     kernel32:KERNEL32.dll
 0002:000000c0       __imp__TlsAlloc@0          1012e0c0     kernel32:KERNEL32.dll
 0002:000000c4       __imp__TlsGetValue@4       1012e0c4     kernel32:KERNEL32.dll
 0002:000000c8       __imp__TlsSetValue@8       1012e0c8     kernel32:KERNEL32.dll
 0002:000000cc       __imp__TlsFree@4           1012e0cc     kernel32:KERNEL32.dll
 0002:000000d0       __imp__SetLastError@4      1012e0d0     kernel32:KERNEL32.dll
 0002:000000d4       __imp__RaiseException@16   1012e0d4     kernel32:KERNEL32.dll
 0002:000000d8       __imp__Sleep@4             1012e0d8     kernel32:KERNEL32.dll
 0002:000000dc       __imp__GetModuleFileNameA@12 1012e0dc     kernel32:KERNEL32.dll
 0002:000000e0       __imp__FreeEnvironmentStringsW@4 1012e0e0     kernel32:KERNEL32.dll
 0002:000000e4       __imp__GetEnvironmentStringsW@0 1012e0e4     kernel32:KERNEL32.dll
 0002:000000e8       __imp__QueryPerformanceCounter@4 1012e0e8     kernel32:KERNEL32.dll
 0002:000000ec       __imp__GetTickCount@0      1012e0ec     kernel32:KERNEL32.dll
 0002:000000f0       __imp__GetCurrentProcessId@0 1012e0f0     kernel32:KERNEL32.dll
 0002:000000f4       __imp__LoadLibraryW@4      1012e0f4     kernel32:KERNEL32.dll
 0002:000000f8       __imp__CreateFileW@28      1012e0f8     kernel32:KERNEL32.dll
 0002:000000fc       __imp__SetStdHandle@8      1012e0fc     kernel32:KERNEL32.dll
 0002:00000100       __imp__IsProcessorFeaturePresent@4 1012e100     kernel32:KERNEL32.dll
 0002:00000104       __imp__WriteConsoleW@20    1012e104     kernel32:KERNEL32.dll
 0002:00000108       __imp__FlushFileBuffers@4  1012e108     kernel32:KERNEL32.dll
 0002:0000010c       __imp__LCMapStringW@24     1012e10c     kernel32:KERNEL32.dll
 0002:00000110       __imp__GetStringTypeW@16   1012e110     kernel32:KERNEL32.dll
 0002:00000114       __imp__HeapReAlloc@16      1012e114     kernel32:KERNEL32.dll
 0002:00000118       __imp__HeapSize@12         1012e118     kernel32:KERNEL32.dll
 0002:0000011c       __imp__SetEndOfFile@4      1012e11c     kernel32:KERNEL32.dll
 0002:00000120       __imp__GetProcessHeap@0    1012e120     kernel32:KERNEL32.dll
 0002:00000124       __imp__CompareStringW@24   1012e124     kernel32:KERNEL32.dll
 0002:00000128       __imp__SetEnvironmentVariableA@8 1012e128     kernel32:KERNEL32.dll
 0002:0000012c       __imp__CreateFileA@28      1012e12c     kernel32:KERNEL32.dll
 0002:00000130       \177KERNEL32_NULL_THUNK_DATA 1012e130     kernel32:KERNEL32.dll
 0002:00000134       __imp__deflateInit2_       1012e134     zlib1:zlib1.dll
 0002:00000138       __imp__deflate             1012e138     zlib1:zlib1.dll
 0002:0000013c       __imp__inflateEnd          1012e13c     zlib1:zlib1.dll
 0002:00000140       __imp__inflate             1012e140     zlib1:zlib1.dll
 0002:00000144       __imp__adler32             1012e144     zlib1:zlib1.dll
 0002:00000148       __imp__crc32               1012e148     zlib1:zlib1.dll
 0002:0000014c       __imp__inflateReset        1012e14c     zlib1:zlib1.dll
 0002:00000150       __imp__deflateReset        1012e150     zlib1:zlib1.dll
 0002:00000154       __imp__deflateEnd          1012e154     zlib1:zlib1.dll
 0002:00000158       __imp__inflateInit_        1012e158     zlib1:zlib1.dll
 0002:0000015c       \177zlib1_NULL_THUNK_DATA  1012e15c     zlib1:zlib1.dll
 0002:00000160       ___xc_a                    1012e160     libcmt:crt0init.obj
 0002:00000164       ___xc_z                    1012e164     libcmt:crt0init.obj
 0002:00000168       ___xi_a                    1012e168     libcmt:crt0init.obj
 0002:00000180       ___xi_z                    1012e180     libcmt:crt0init.obj
 0002:00000184       ___xp_a                    1012e184     libcmt:crt0init.obj
 0002:00000194       ___xp_z                    1012e194     libcmt:crt0init.obj
 0002:00000198       ___xt_a                    1012e198     libcmt:crt0init.obj
 0002:0000019c       ___xt_z                    1012e19c     libcmt:crt0init.obj
 0002:000001c0       __real@3ff0000000000000    1012e1c0     libcmt:_frexp_.obj
 0002:000001c8       ??_C@_03EBAPMIKO@a?1p?$AA@ 1012e1c8     libcmt:strftime.obj
 0002:000001cc       ??_C@_05JAMEPDIN@am?1pm?$AA@ 1012e1cc     libcmt:strftime.obj
 0002:000001d4       ??_C@_02CLFPBFFP@TZ?$AA@   1012e1d4     libcmt:tzset.obj
 0002:000001d8       __pDefaultRawDllMain       1012e1d8     libcmt:dllcrt0.obj
 0002:000001d8       __pRawDllMain              1012e1d8     libcmt:dllcrt0.obj
 0002:000001e4       ??_C@_0P@MIGLKIOC@CorExitProcess?$AA@ 1012e1e4     libcmt:crt0dat.obj
 0002:000001f4       ??_C@_1BI@BGOHAHKC@?$AAm?$AAs?$AAc?$AAo?$AAr?$AAe?$AAe?$AA?4?$AAd?$AAl?$AAl?$AA?$AA@ 1012e1f4     libcmt:crt0dat.obj
 0002:0000020c       ??_C@_1BO@BKOMIGKJ@?$AAr?$AAu?$AAn?$AAt?$AAi?$AAm?$AAe?$AA?5?$AAe?$AAr?$AAr?$AAo?$AAr?$AA?5?$AA?$AA@ 1012e20c     libcmt:crt0msg.obj
 0002:0000022c       ??_C@_15JNBOKNOG@?$AA?$AN?$AA?6?$AA?$AA@ 1012e22c     libcmt:crt0msg.obj
 0002:00000234       ??_C@_1BM@JBBEPPHI@?$AAT?$AAL?$AAO?$AAS?$AAS?$AA?5?$AAe?$AAr?$AAr?$AAo?$AAr?$AA?$AN?$AA?6?$AA?$AA@ 1012e234     libcmt:crt0msg.obj
 0002:00000250       ??_C@_1BK@KMOMNAAI@?$AAS?$AAI?$AAN?$AAG?$AA?5?$AAe?$AAr?$AAr?$AAo?$AAr?$AA?$AN?$AA?6?$AA?$AA@ 1012e250     libcmt:crt0msg.obj
 0002:0000026c       ??_C@_1BO@BFCDCGC@?$AAD?$AAO?$AAM?$AAA?$AAI?$AAN?$AA?5?$AAe?$AAr?$AAr?$AAo?$AAr?$AA?$AN?$AA?6?$AA?$AA@ 1012e26c     libcmt:crt0msg.obj
 0002:00000290       ??_C@_1BOO@KGEDBGAJ@?$AAR?$AA6?$AA0?$AA3?$AA3?$AA?$AN?$AA?6?$AA?9?$AA?5?$AAA?$AAt?$AAt?$AAe?$AAm?$AAp?$AAt?$AA?5?$AAt?$AAo?$AA?5?$AAu?$AAs?$AAe?$AA?5?$AAM?$AAS?$AAI?$AAL?$AA?5?$AAc?$AAo?$AAd@ 1012e290     libcmt:crt0msg.obj
 0002:00000480       ??_C@_1GG@GOPILAJP@?$AAR?$AA6?$AA0?$AA3?$AA2?$AA?$AN?$AA?6?$AA?9?$AA?5?$AAn?$AAo?$AAt?$AA?5?$AAe?$AAn?$AAo?$AAu?$AAg?$AAh?$AA?5?$AAs?$AAp?$AAa?$AAc?$AAe?$AA?5?$AAf?$AAo?$AAr?$AA?5?$AAl?$AAo@ 1012e480     libcmt:crt0msg.obj
 0002:000004e8       ??_C@_1MG@ENCOOIDF@?$AAR?$AA6?$AA0?$AA3?$AA1?$AA?$AN?$AA?6?$AA?9?$AA?5?$AAA?$AAt?$AAt?$AAe?$AAm?$AAp?$AAt?$AA?5?$AAt?$AAo?$AA?5?$AAi?$AAn?$AAi?$AAt?$AAi?$AAa?$AAl?$AAi?$AAz?$AAe?$AA?5?$AAt@ 1012e4e8     libcmt:crt0msg.obj
 0002:000005b0       ??_C@_1DO@BMFCDCD@?$AAR?$AA6?$AA0?$AA3?$AA0?$AA?$AN?$AA?6?$AA?9?$AA?5?$AAC?$AAR?$AAT?$AA?5?$AAn?$AAo?$AAt?$AA?5?$AAi?$AAn?$AAi?$AAt?$AAi?$AAa?$AAl?$AAi?$AAz?$AAe?$AAd?$AA?$AN?$AA?6?$AA?$AA@ 1012e5b0     libcmt:crt0msg.obj
 0002:000005f0       ??_C@_1EK@HHFLMAOL@?$AAR?$AA6?$AA0?$AA2?$AA8?$AA?$AN?$AA?6?$AA?9?$AA?5?$AAu?$AAn?$AAa?$AAb?$AAl?$AAe?$AA?5?$AAt?$AAo?$AA?5?$AAi?$AAn?$AAi?$AAt?$AAi?$AAa?$AAl?$AAi?$AAz?$AAe?$AA?5?$AAh?$AAe@ 1012e5f0     libcmt:crt0msg.obj
 0002:00000640       ??_C@_1GK@MFGOKLAG@?$AAR?$AA6?$AA0?$AA2?$AA7?$AA?$AN?$AA?6?$AA?9?$AA?5?$AAn?$AAo?$AAt?$AA?5?$AAe?$AAn?$AAo?$AAu?$AAg?$AAh?$AA?5?$AAs?$AAp?$AAa?$AAc?$AAe?$AA?5?$AAf?$AAo?$AAr?$AA?5?$AAl?$AAo@ 1012e640     libcmt:crt0msg.obj
 0002:000006b0       ??_C@_1GK@MCAAGJMO@?$AAR?$AA6?$AA0?$AA2?$AA6?$AA?$AN?$AA?6?$AA?9?$AA?5?$AAn?$AAo?$AAt?$AA?5?$AAe?$AAn?$AAo?$AAu?$AAg?$AAh?$AA?5?$AAs?$AAp?$AAa?$AAc?$AAe?$AA?5?$AAf?$AAo?$AAr?$AA?5?$AAs?$AAt@ 1012e6b0     libcmt:crt0msg.obj
 0002:00000720       ??_C@_1EM@MAADIHMB@?$AAR?$AA6?$AA0?$AA2?$AA5?$AA?$AN?$AA?6?$AA?9?$AA?5?$AAp?$AAu?$AAr?$AAe?$AA?5?$AAv?$AAi?$AAr?$AAt?$AAu?$AAa?$AAl?$AA?5?$AAf?$AAu?$AAn?$AAc?$AAt?$AAi?$AAo?$AAn?$AA?5?$AAc@ 1012e720     libcmt:crt0msg.obj
 0002:00000770       ??_C@_1GK@FHCKBEFA@?$AAR?$AA6?$AA0?$AA2?$AA4?$AA?$AN?$AA?6?$AA?9?$AA?5?$AAn?$AAo?$AAt?$AA?5?$AAe?$AAn?$AAo?$AAu?$AAg?$AAh?$AA?5?$AAs?$AAp?$AAa?$AAc?$AAe?$AA?5?$AAf?$AAo?$AAr?$AA?5?$AA_?$AAo@ 1012e770     libcmt:crt0msg.obj
 0002:000007e0       ??_C@_1FC@ECHBIFBC@?$AAR?$AA6?$AA0?$AA1?$AA9?$AA?$AN?$AA?6?$AA?9?$AA?5?$AAu?$AAn?$AAa?$AAb?$AAl?$AAe?$AA?5?$AAt?$AAo?$AA?5?$AAo?$AAp?$AAe?$AAn?$AA?5?$AAc?$AAo?$AAn?$AAs?$AAo?$AAl?$AAe?$AA?5@ 1012e7e0     libcmt:crt0msg.obj
 0002:00000838       ??_C@_1EC@JIBHAOPH@?$AAR?$AA6?$AA0?$AA1?$AA8?$AA?$AN?$AA?6?$AA?9?$AA?5?$AAu?$AAn?$AAe?$AAx?$AAp?$AAe?$AAc?$AAt?$AAe?$AAd?$AA?5?$AAh?$AAe?$AAa?$AAp?$AA?5?$AAe?$AAr?$AAr?$AAo?$AAr?$AA?$AN?$AA?6@ 1012e838     libcmt:crt0msg.obj
 0002:00000880       ??_C@_1FK@BEOGODMC@?$AAR?$AA6?$AA0?$AA1?$AA7?$AA?$AN?$AA?6?$AA?9?$AA?5?$AAu?$AAn?$AAe?$AAx?$AAp?$AAe?$AAc?$AAt?$AAe?$AAd?$AA?5?$AAm?$AAu?$AAl?$AAt?$AAi?$AAt?$AAh?$AAr?$AAe?$AAa?$AAd?$AA?5@ 1012e880     libcmt:crt0msg.obj
 0002:000008e0       ??_C@_1FI@LOGNIKDM@?$AAR?$AA6?$AA0?$AA1?$AA6?$AA?$AN?$AA?6?$AA?9?$AA?5?$AAn?$AAo?$AAt?$AA?5?$AAe?$AAn?$AAo?$AAu?$AAg?$AAh?$AA?5?$AAs?$AAp?$AAa?$AAc?$AAe?$AA?5?$AAf?$AAo?$AAr?$AA?5?$AAt?$AAh@ 1012e8e0     libcmt:crt0msg.obj
 0002:00000938       ??_C@_1EG@BEHAGFJD@?$AAR?$AA6?$AA0?$AA1?$AA0?$AA?$AN?$AA?6?$AA?9?$AA?5?$AAa?$AAb?$AAo?$AAr?$AAt?$AA?$CI?$AA?$CJ?$AA?5?$AAh?$AAa?$AAs?$AA?5?$AAb?$AAe?$AAe?$AAn?$AA?5?$AAc?$AAa?$AAl?$AAl?$AAe?$AAd@ 1012e938     libcmt:crt0msg.obj
 0002:00000980       ??_C@_1FI@HONFMGBI@?$AAR?$AA6?$AA0?$AA0?$AA9?$AA?$AN?$AA?6?$AA?9?$AA?5?$AAn?$AAo?$AAt?$AA?5?$AAe?$AAn?$AAo?$AAu?$AAg?$AAh?$AA?5?$AAs?$AAp?$AAa?$AAc?$AAe?$AA?5?$AAf?$AAo?$AAr?$AA?5?$AAe?$AAn@ 1012e980     libcmt:crt0msg.obj
 0002:000009d8       ??_C@_1FE@LLNEDJMD@?$AAR?$AA6?$AA0?$AA0?$AA8?$AA?$AN?$AA?6?$AA?9?$AA?5?$AAn?$AAo?$AAt?$AA?5?$AAe?$AAn?$AAo?$AAu?$AAg?$AAh?$AA?5?$AAs?$AAp?$AAa?$AAc?$AAe?$AA?5?$AAf?$AAo?$AAr?$AA?5?$AAa?$AAr@ 1012e9d8     libcmt:crt0msg.obj
 0002:00000a30       ??_C@_1FK@PGACCAFB@?$AAR?$AA6?$AA0?$AA0?$AA2?$AA?$AN?$AA?6?$AA?9?$AA?5?$AAf?$AAl?$AAo?$AAa?$AAt?$AAi?$AAn?$AAg?$AA?5?$AAp?$AAo?$AAi?$AAn?$AAt?$AA?5?$AAs?$AAu?$AAp?$AAp?$AAo?$AAr?$AAt?$AA?5@ 1012ea30     libcmt:crt0msg.obj
 0002:00000b40       ??_C@_1EK@MBDPDCGA@?$AAM?$AAi?$AAc?$AAr?$AAo?$AAs?$AAo?$AAf?$AAt?$AA?5?$AAV?$AAi?$AAs?$AAu?$AAa?$AAl?$AA?5?$AAC?$AA?$CL?$AA?$CL?$AA?5?$AAR?$AAu?$AAn?$AAt?$AAi?$AAm?$AAe?$AA?5?$AAL?$AAi?$AAb@ 1012eb40     libcmt:crt0msg.obj
 0002:00000b8c       ??_C@_15IABLJNFO@?$AA?6?$AA?6?$AA?$AA@ 1012eb8c     libcmt:crt0msg.obj
 0002:00000b94       ??_C@_17LGKOMLJ@?$AA?4?$AA?4?$AA?4?$AA?$AA@ 1012eb94     libcmt:crt0msg.obj
 0002:00000b9c       ??_C@_1CO@EAEJAADC@?$AA?$DM?$AAp?$AAr?$AAo?$AAg?$AAr?$AAa?$AAm?$AA?5?$AAn?$AAa?$AAm?$AAe?$AA?5?$AAu?$AAn?$AAk?$AAn?$AAo?$AAw?$AAn?$AA?$DO?$AA?$AA@ 1012eb9c     libcmt:crt0msg.obj
 0002:00000bcc       ??_C@_1DE@JNGNBFGO@?$AAR?$AAu?$AAn?$AAt?$AAi?$AAm?$AAe?$AA?5?$AAE?$AAr?$AAr?$AAo?$AAr?$AA?$CB?$AA?6?$AA?6?$AAP?$AAr?$AAo?$AAg?$AAr?$AAa?$AAm?$AA?3?$AA?5?$AA?$AA@ 1012ebcc     libcmt:crt0msg.obj
 0002:00000c00       ??_C@_1O@CEDCILHN@?$AA?$CI?$AAn?$AAu?$AAl?$AAl?$AA?$CJ?$AA?$AA@ 1012ec00     libcmt:output.obj
 0002:00000c10       ??_C@_06OJHGLDPL@?$CInull?$CJ?$AA@ 1012ec10     libcmt:output.obj
 0002:00000c18       ___lookuptable             1012ec18     libcmt:output.obj
 0002:00000cac       ??_C@_1BC@GDGBMEMK@?$AAH?$AAH?$AA?3?$AAm?$AAm?$AA?3?$AAs?$AAs?$AA?$AA@ 1012ecac     libcmt:nlsdata2.obj
 0002:00000cc0       ??_C@_1CI@KNAKOEBC@?$AAd?$AAd?$AAd?$AAd?$AA?0?$AA?5?$AAM?$AAM?$AAM?$AAM?$AA?5?$AAd?$AAd?$AA?0?$AA?5?$AAy?$AAy?$AAy?$AAy?$AA?$AA@ 1012ecc0     libcmt:nlsdata2.obj
 0002:00000ce8       ??_C@_1BC@IEBCMHCM@?$AAM?$AAM?$AA?1?$AAd?$AAd?$AA?1?$AAy?$AAy?$AA?$AA@ 1012ece8     libcmt:nlsdata2.obj
 0002:00000cfc       ??_C@_15CLMNNGEL@?$AAP?$AAM?$AA?$AA@ 1012ecfc     libcmt:nlsdata2.obj
 0002:00000d04       ??_C@_15ODEHAHHF@?$AAA?$AAM?$AA?$AA@ 1012ed04     libcmt:nlsdata2.obj
 0002:00000d0c       ??_C@_1BC@FEMKIFH@?$AAD?$AAe?$AAc?$AAe?$AAm?$AAb?$AAe?$AAr?$AA?$AA@ 1012ed0c     libcmt:nlsdata2.obj
 0002:00000d20       ??_C@_1BC@BGLIFPF@?$AAN?$AAo?$AAv?$AAe?$AAm?$AAb?$AAe?$AAr?$AA?$AA@ 1012ed20     libcmt:nlsdata2.obj
 0002:00000d34       ??_C@_1BA@EPANDLNG@?$AAO?$AAc?$AAt?$AAo?$AAb?$AAe?$AAr?$AA?$AA@ 1012ed34     libcmt:nlsdata2.obj
 0002:00000d44       ??_C@_1BE@DKAAMBJL@?$AAS?$AAe?$AAp?$AAt?$AAe?$AAm?$AAb?$AAe?$AAr?$AA?$AA@ 1012ed44     libcmt:nlsdata2.obj
 0002:00000d58       ??_C@_1O@PAHLKOAC@?$AAA?$AAu?$AAg?$AAu?$AAs?$AAt?$AA?$AA@ 1012ed58     libcmt:nlsdata2.obj
 0002:00000d68       ??_C@_19BIFMLPCD@?$AAJ?$AAu?$AAl?$AAy?$AA?$AA@ 1012ed68     libcmt:nlsdata2.obj
 0002:00000d74       ??_C@_19EPFLPGAP@?$AAJ?$AAu?$AAn?$AAe?$AA?$AA@ 1012ed74     libcmt:nlsdata2.obj
 0002:00000d80       ??_C@_1M@GJNLMHFD@?$AAA?$AAp?$AAr?$AAi?$AAl?$AA?$AA@ 1012ed80     libcmt:nlsdata2.obj
 0002:00000d8c       ??_C@_1M@IKEENEDF@?$AAM?$AAa?$AAr?$AAc?$AAh?$AA?$AA@ 1012ed8c     libcmt:nlsdata2.obj
 0002:00000d98       ??_C@_1BC@JGDDFFAM@?$AAF?$AAe?$AAb?$AAr?$AAu?$AAa?$AAr?$AAy?$AA?$AA@ 1012ed98     libcmt:nlsdata2.obj
 0002:00000dac       ??_C@_1BA@EFMEIEBA@?$AAJ?$AAa?$AAn?$AAu?$AAa?$AAr?$AAy?$AA?$AA@ 1012edac     libcmt:nlsdata2.obj
 0002:00000dbc       ??_C@_17EGKACKIF@?$AAD?$AAe?$AAc?$AA?$AA@ 1012edbc     libcmt:nlsdata2.obj
 0002:00000dc4       ??_C@_17BBDMLCIG@?$AAN?$AAo?$AAv?$AA?$AA@ 1012edc4     libcmt:nlsdata2.obj
 0002:00000dcc       ??_C@_17FNLKOI@?$AAO?$AAc?$AAt?$AA?$AA@ 1012edcc     libcmt:nlsdata2.obj
 0002:00000dd4       ??_C@_17HCHCOKMG@?$AAS?$AAe?$AAp?$AA?$AA@ 1012edd4     libcmt:nlsdata2.obj
 0002:00000ddc       ??_C@_17ICPELBCN@?$AAA?$AAu?$AAg?$AA?$AA@ 1012eddc     libcmt:nlsdata2.obj
 0002:00000de4       ??_C@_17IJPCKHK@?$AAJ?$AAu?$AAl?$AA?$AA@ 1012ede4     libcmt:nlsdata2.obj
 0002:00000dec       ??_C@_17KCJGOCPB@?$AAJ?$AAu?$AAn?$AA?$AA@ 1012edec     libcmt:nlsdata2.obj
 0002:00000df4       ??_C@_17PNNKMEED@?$AAM?$AAa?$AAy?$AA?$AA@ 1012edf4     libcmt:nlsdata2.obj
 0002:00000dfc       ??_C@_17LFPOIHDD@?$AAA?$AAp?$AAr?$AA?$AA@ 1012edfc     libcmt:nlsdata2.obj
 0002:00000e04       ??_C@_17CKNLEDEC@?$AAM?$AAa?$AAr?$AA?$AA@ 1012ee04     libcmt:nlsdata2.obj
 0002:00000e0c       ??_C@_17LMDJEKJN@?$AAF?$AAe?$AAb?$AA?$AA@ 1012ee0c     libcmt:nlsdata2.obj
 0002:00000e14       ??_C@_17DKNBKCHM@?$AAJ?$AAa?$AAn?$AA?$AA@ 1012ee14     libcmt:nlsdata2.obj
 0002:00000e1c       ??_C@_1BC@ENMNNPAJ@?$AAS?$AAa?$AAt?$AAu?$AAr?$AAd?$AAa?$AAy?$AA?$AA@ 1012ee1c     libcmt:nlsdata2.obj
 0002:00000e30       ??_C@_1O@PDICJHAG@?$AAF?$AAr?$AAi?$AAd?$AAa?$AAy?$AA?$AA@ 1012ee30     libcmt:nlsdata2.obj
 0002:00000e40       ??_C@_1BC@HHMNLIHE@?$AAT?$AAh?$AAu?$AAr?$AAs?$AAd?$AAa?$AAy?$AA?$AA@ 1012ee40     libcmt:nlsdata2.obj
 0002:00000e54       ??_C@_1BE@EBOGMDOH@?$AAW?$AAe?$AAd?$AAn?$AAe?$AAs?$AAd?$AAa?$AAy?$AA?$AA@ 1012ee54     libcmt:nlsdata2.obj
 0002:00000e68       ??_C@_1BA@ENFBFFEK@?$AAT?$AAu?$AAe?$AAs?$AAd?$AAa?$AAy?$AA?$AA@ 1012ee68     libcmt:nlsdata2.obj
 0002:00000e78       ??_C@_1O@MMNBFLIA@?$AAM?$AAo?$AAn?$AAd?$AAa?$AAy?$AA?$AA@ 1012ee78     libcmt:nlsdata2.obj
 0002:00000e88       ??_C@_1O@IHNHDHPB@?$AAS?$AAu?$AAn?$AAd?$AAa?$AAy?$AA?$AA@ 1012ee88     libcmt:nlsdata2.obj
 0002:00000e98       ??_C@_17GGIBDPIH@?$AAS?$AAa?$AAt?$AA?$AA@ 1012ee98     libcmt:nlsdata2.obj
 0002:00000ea0       ??_C@_17HFOLPPLP@?$AAF?$AAr?$AAi?$AA?$AA@ 1012eea0     libcmt:nlsdata2.obj
 0002:00000ea8       ??_C@_17PDPHAADD@?$AAT?$AAh?$AAu?$AA?$AA@ 1012eea8     libcmt:nlsdata2.obj
 0002:00000eb0       ??_C@_17CJEDCEPE@?$AAW?$AAe?$AAd?$AA?$AA@ 1012eeb0     libcmt:nlsdata2.obj
 0002:00000eb8       ??_C@_17BMKGEGOJ@?$AAT?$AAu?$AAe?$AA?$AA@ 1012eeb8     libcmt:nlsdata2.obj
 0002:00000ec0       ??_C@_17KBOMKBF@?$AAM?$AAo?$AAn?$AA?$AA@ 1012eec0     libcmt:nlsdata2.obj
 0002:00000ec8       ??_C@_17MBGCMIPB@?$AAS?$AAu?$AAn?$AA?$AA@ 1012eec8     libcmt:nlsdata2.obj
 0002:00000ed0       ??_C@_08JCCMCCIL@HH?3mm?3ss?$AA@ 1012eed0     libcmt:nlsdata2.obj
 0002:00000edc       ??_C@_0BE@CKGJFCPC@dddd?0?5MMMM?5dd?0?5yyyy?$AA@ 1012eedc     libcmt:nlsdata2.obj
 0002:00000ef0       ??_C@_08BPBNCDIB@MM?1dd?1yy?$AA@ 1012eef0     libcmt:nlsdata2.obj
 0002:00000efc       ??_C@_02CJNFDJBF@PM?$AA@   1012eefc     libcmt:nlsdata2.obj
 0002:00000f00       ??_C@_02DEDBPAFC@AM?$AA@   1012ef00     libcmt:nlsdata2.obj
 0002:00000f04       ??_C@_08EDHMEBNP@December?$AA@ 1012ef04     libcmt:nlsdata2.obj
 0002:00000f10       ??_C@_08HCHEGEOA@November?$AA@ 1012ef10     libcmt:nlsdata2.obj
 0002:00000f1c       ??_C@_07JJNFCEND@October?$AA@ 1012ef1c     libcmt:nlsdata2.obj
 0002:00000f24       ??_C@_09BHHEALKD@September?$AA@ 1012ef24     libcmt:nlsdata2.obj
 0002:00000f30       ??_C@_06LBBHFDDG@August?$AA@ 1012ef30     libcmt:nlsdata2.obj
 0002:00000f38       ??_C@_04MIEPOIFP@July?$AA@ 1012ef38     libcmt:nlsdata2.obj
 0002:00000f40       ??_C@_04CNLMGBGM@June?$AA@ 1012ef40     libcmt:nlsdata2.obj
 0002:00000f48       ??_C@_05DMJDNLEJ@April?$AA@ 1012ef48     libcmt:nlsdata2.obj
 0002:00000f50       ??_C@_05HPCKOFNC@March?$AA@ 1012ef50     libcmt:nlsdata2.obj
 0002:00000f58       ??_C@_08GNJGEPFN@February?$AA@ 1012ef58     libcmt:nlsdata2.obj
 0002:00000f64       ??_C@_07CGJPFGJA@January?$AA@ 1012ef64     libcmt:nlsdata2.obj
 0002:00000f6c       ??_C@_03MKABNOCG@Dec?$AA@  1012ef6c     libcmt:nlsdata2.obj
 0002:00000f70       ??_C@_03JPJOFNIA@Nov?$AA@  1012ef70     libcmt:nlsdata2.obj
 0002:00000f74       ??_C@_03BMAOKBAD@Oct?$AA@  1012ef74     libcmt:nlsdata2.obj
 0002:00000f78       ??_C@_03GGCAPAJC@Sep?$AA@  1012ef78     libcmt:nlsdata2.obj
 0002:00000f7c       ??_C@_03IFJFEIGA@Aug?$AA@  1012ef7c     libcmt:nlsdata2.obj
 0002:00000f80       ??_C@_03LBGABGKK@Jul?$AA@  1012ef80     libcmt:nlsdata2.obj
 0002:00000f84       ??_C@_03IDFGHECI@Jun?$AA@  1012ef84     libcmt:nlsdata2.obj
 0002:00000f88       ??_C@_03CNMDKL@May?$AA@    1012ef88     libcmt:nlsdata2.obj
 0002:00000f8c       ??_C@_03LEOLGMJP@Apr?$AA@  1012ef8c     libcmt:nlsdata2.obj
 0002:00000f90       ??_C@_03ODNJBKGA@Mar?$AA@  1012ef90     libcmt:nlsdata2.obj
 0002:00000f94       ??_C@_03HJBDCHOM@Feb?$AA@  1012ef94     libcmt:nlsdata2.obj
 0002:00000f98       ??_C@_03JIHJHPIE@Jan?$AA@  1012ef98     libcmt:nlsdata2.obj
 0002:00000f9c       ??_C@_08INBOOONO@Saturday?$AA@ 1012ef9c     libcmt:nlsdata2.obj
 0002:00000fa8       ??_C@_06JECMNKMI@Friday?$AA@ 1012efa8     libcmt:nlsdata2.obj
 0002:00000fb0       ??_C@_08HACCIKIA@Thursday?$AA@ 1012efb0     libcmt:nlsdata2.obj
 0002:00000fbc       ??_C@_09DLIGFAKA@Wednesday?$AA@ 1012efbc     libcmt:nlsdata2.obj
 0002:00000fc8       ??_C@_07BAAGCFCM@Tuesday?$AA@ 1012efc8     libcmt:nlsdata2.obj
 0002:00000fd0       ??_C@_06JLEDEDGH@Monday?$AA@ 1012efd0     libcmt:nlsdata2.obj
 0002:00000fd8       ??_C@_06OOPIFAJ@Sunday?$AA@ 1012efd8     libcmt:nlsdata2.obj
 0002:00000fe0       ??_C@_03FEFJNEK@Sat?$AA@   1012efe0     libcmt:nlsdata2.obj
 0002:00000fe4       ??_C@_03IDIOELNC@Fri?$AA@  1012efe4     libcmt:nlsdata2.obj
 0002:00000fe8       ??_C@_03IOFIKPDN@Thu?$AA@  1012efe8     libcmt:nlsdata2.obj
 0002:00000fec       ??_C@_03MHOMLAJA@Wed?$AA@  1012efec     libcmt:nlsdata2.obj
 0002:00000ff0       ??_C@_03NAGEINEP@Tue?$AA@  1012eff0     libcmt:nlsdata2.obj
 0002:00000ff4       ??_C@_03PDAGKDH@Mon?$AA@   1012eff4     libcmt:nlsdata2.obj
 0002:00000ff8       ??_C@_03KOEHGMDN@Sun?$AA@  1012eff8     libcmt:nlsdata2.obj
 0002:00000ffc       ??_C@_1BK@DBDEIDLH@?$AAK?$AAE?$AAR?$AAN?$AAE?$AAL?$AA3?$AA2?$AA?4?$AAD?$AAL?$AAL?$AA?$AA@ 1012effc     libcmt:tidtable.obj
 0002:00001018       ??_C@_07PEJMOBNF@FlsFree?$AA@ 1012f018     libcmt:tidtable.obj
 0002:00001020       ??_C@_0M@JCPCPOEF@FlsSetValue?$AA@ 1012f020     libcmt:tidtable.obj
 0002:0000102c       ??_C@_0M@GDNOONDI@FlsGetValue?$AA@ 1012f02c     libcmt:tidtable.obj
 0002:00001038       ??_C@_08KNHFBNJ@FlsAlloc?$AA@ 1012f038     libcmt:tidtable.obj
 0002:000010c8       ??_C@_01LFCBOECM@?4?$AA@   1012f0c8     libcmt:setlocal.obj
 0002:000010cc       ??_C@_0L@KDOEJCKC@_nextafter?$AA@ 1012f0cc     libcmt:_fpexcept_.obj
 0002:000010d8       ??_C@_05JGDBENOH@_logb?$AA@ 1012f0d8     libcmt:_fpexcept_.obj
 0002:000010e0       ??_C@_03ONILCKOB@_yn?$AA@  1012f0e0     libcmt:_fpexcept_.obj
 0002:000010e4       ??_C@_03NAKIGLHK@_y1?$AA@  1012f0e4     libcmt:_fpexcept_.obj
 0002:000010e8       ??_C@_03MJLDFKDL@_y0?$AA@  1012f0e8     libcmt:_fpexcept_.obj
 0002:000010ec       ??_C@_05GKKHEGJL@frexp?$AA@ 1012f0ec     libcmt:_fpexcept_.obj
 0002:000010f4       ??_C@_04KEPJIHGP@fmod?$AA@ 1012f0f4     libcmt:_fpexcept_.obj
 0002:000010fc       ??_C@_06MEIMCGCF@_hypot?$AA@ 1012f0fc     libcmt:_fpexcept_.obj
 0002:00001104       ??_C@_05KBKMEMPO@_cabs?$AA@ 1012f104     libcmt:_fpexcept_.obj
 0002:0000110c       ??_C@_05CEJMAHNP@ldexp?$AA@ 1012f10c     libcmt:_fpexcept_.obj
 0002:00001114       ??_C@_04EHEDPDJG@modf?$AA@ 1012f114     libcmt:_fpexcept_.obj
 0002:0000111c       ??_C@_04ODHECPBC@fabs?$AA@ 1012f11c     libcmt:_fpexcept_.obj
 0002:00001124       ??_C@_05PBJFFIGL@floor?$AA@ 1012f124     libcmt:_fpexcept_.obj
 0002:0000112c       ??_C@_04GFPJNGEK@ceil?$AA@ 1012f12c     libcmt:_fpexcept_.obj
 0002:00001134       ??_C@_03IIINPABG@tan?$AA@  1012f134     libcmt:_fpexcept_.obj
 0002:00001138       ??_C@_03LALBNOCG@cos?$AA@  1012f138     libcmt:_fpexcept_.obj
 0002:0000113c       ??_C@_03BLEJJJBH@sin?$AA@  1012f13c     libcmt:_fpexcept_.obj
 0002:00001140       ??_C@_04EIAKFFMI@sqrt?$AA@ 1012f140     libcmt:_fpexcept_.obj
 0002:00001148       ??_C@_05KNGEOGJB@atan2?$AA@ 1012f148     libcmt:_fpexcept_.obj
 0002:00001150       ??_C@_04MLLJIGOK@atan?$AA@ 1012f150     libcmt:_fpexcept_.obj
 0002:00001158       ??_C@_04PDIFKINK@acos?$AA@ 1012f158     libcmt:_fpexcept_.obj
 0002:00001160       ??_C@_04FIHNOPOL@asin?$AA@ 1012f160     libcmt:_fpexcept_.obj
 0002:00001168       ??_C@_04FJHINJAO@tanh?$AA@ 1012f168     libcmt:_fpexcept_.obj
 0002:00001170       ??_C@_04HPJJNFIM@cosh?$AA@ 1012f170     libcmt:_fpexcept_.obj
 0002:00001178       ??_C@_04COOMCNPB@sinh?$AA@ 1012f178     libcmt:_fpexcept_.obj
 0002:00001180       ??_C@_05HGHHAHAP@log10?$AA@ 1012f180     libcmt:_fpexcept_.obj
 0002:00001188       ??_C@_03MGHMBJCF@log?$AA@  1012f188     libcmt:_fpexcept_.obj
 0002:0000118c       ??_C@_03JGHBODFD@pow?$AA@  1012f18c     libcmt:_fpexcept_.obj
 0002:00001190       ??_C@_03KHJOGHMM@exp?$AA@  1012f190     libcmt:_fpexcept_.obj
 0002:00001194       __FPinit                   1012f194     libcmt:_fpinit_.obj
 0002:00001198       ___dnames                  1012f198     libcmt:timeset.obj
 0002:000011b0       ___mnames                  1012f1b0     libcmt:timeset.obj
 0002:000011d8       __XcptActTab               1012f1d8     libcmt:winxfltr.obj
 0002:00001268       __First_FPE_Indx           1012f268     libcmt:winxfltr.obj
 0002:0000126c       __Num_FPE                  1012f26c     libcmt:winxfltr.obj
 0002:00001270       __XcptActTabSize           1012f270     libcmt:winxfltr.obj
 0002:00001274       __XcptActTabCount          1012f274     libcmt:winxfltr.obj
 0002:00001278       ??_C@_0BI@DFKBFLJE@GetProcessWindowStation?$AA@ 1012f278     libcmt:crtmboxw.obj
 0002:00001290       ??_C@_0BK@DEKFELLI@GetUserObjectInformationW?$AA@ 1012f290     libcmt:crtmboxw.obj
 0002:000012ac       ??_C@_0BD@HHGDFDBJ@GetLastActivePopup?$AA@ 1012f2ac     libcmt:crtmboxw.obj
 0002:000012c0       ??_C@_0BA@HNOPNCHB@GetActiveWindow?$AA@ 1012f2c0     libcmt:crtmboxw.obj
 0002:000012d0       ??_C@_0M@DLDCCGNP@MessageBoxW?$AA@ 1012f2d0     libcmt:crtmboxw.obj
 0002:000012dc       ??_C@_1BG@GOEBHBDC@?$AAU?$AAS?$AAE?$AAR?$AA3?$AA2?$AA?4?$AAD?$AAL?$AAL?$AA?$AA@ 1012f2dc     libcmt:crtmboxw.obj
 0002:000012f8       ___lookuptable_s           1012f2f8     libcmt:outputs.obj
 0002:00001358       ___newctype                1012f358     libcmt:ctype.obj
 0002:00001658       __wctype                   1012f658     libcmt:ctype.obj
 0002:00001860       ___newclmap                1012f860     libcmt:ctype.obj
 0002:000019e0       ___newcumap                1012f9e0     libcmt:ctype.obj
 0002:00001b60       ??_C@_05KLBDPFGC@e?$CL000?$AA@ 1012fb60     libcmt:cvt.obj
 0002:00001b68       ??_C@_1BA@BALFACEM@?$AAC?$AAO?$AAN?$AAO?$AAU?$AAT?$AA$?$AA?$AA@ 1012fb68     libcmt:initcon.obj
 0002:00001b78       ??_C@_06IMKFLFPG@1?$CDQNAN?$AA@ 1012fb78     libcmt:_x10fout_.obj
 0002:00001b80       ??_C@_05DNEBIAHO@1?$CDINF?$AA@ 1012fb80     libcmt:_x10fout_.obj
 0002:00001b88       ??_C@_05PHHOCPM@1?$CDIND?$AA@ 1012fb88     libcmt:_x10fout_.obj
 0002:00001b90       ??_C@_06PGGFOGJG@1?$CDSNAN?$AA@ 1012fb90     libcmt:_x10fout_.obj
 0002:00001b98       ??_C@_01KICIPPFI@?2?$AA@   1012fb98     libcmt:tmpfile.obj
 0002:00001c98       ??_C@_05EOHGHCHD@exp10?$AA@ 1012fc98     libcmt:_libm_error_.obj
 0002:00001ca0       ??_C@_0BG@KLEAJEFJ@Illegal?5byte?5sequence?$AA@ 1012fca0     libcmt:syserr.obj
 0002:00001cb8       ??_C@_0BE@ICMCHPHH@Directory?5not?5empty?$AA@ 1012fcb8     libcmt:syserr.obj
 0002:00001ccc       ??_C@_0BJ@IHEHINLI@Function?5not?5implemented?$AA@ 1012fccc     libcmt:syserr.obj
 0002:00001ce8       ??_C@_0BD@CLHBCGPB@No?5locks?5available?$AA@ 1012fce8     libcmt:syserr.obj
 0002:00001cfc       ??_C@_0BC@BEDIHIDK@Filename?5too?5long?$AA@ 1012fcfc     libcmt:syserr.obj
 0002:00001d10       ??_C@_0BK@JAEBMJJM@Resource?5deadlock?5avoided?$AA@ 1012fd10     libcmt:syserr.obj
 0002:00001d2c       ??_C@_0BB@FCBJFCAJ@Result?5too?5large?$AA@ 1012fd2c     libcmt:syserr.obj
 0002:00001d40       ??_C@_0N@MMJPGLJK@Domain?5error?$AA@ 1012fd40     libcmt:syserr.obj
 0002:00001d50       ??_C@_0M@LHEPIIOM@Broken?5pipe?$AA@ 1012fd50     libcmt:syserr.obj
 0002:00001d5c       ??_C@_0P@PKCJJLLM@Too?5many?5links?$AA@ 1012fd5c     libcmt:syserr.obj
 0002:00001d6c       ??_C@_0BG@DDBFNKBH@Read?9only?5file?5system?$AA@ 1012fd6c     libcmt:syserr.obj
 0002:00001d84       ??_C@_0N@FEHLOILP@Invalid?5seek?$AA@ 1012fd84     libcmt:syserr.obj
 0002:00001d94       ??_C@_0BI@FEALHKLD@No?5space?5left?5on?5device?$AA@ 1012fd94     libcmt:syserr.obj
 0002:00001dac       ??_C@_0P@LFMMIPAE@File?5too?5large?$AA@ 1012fdac     libcmt:syserr.obj
 0002:00001dbc       ??_C@_0CE@ONOKNLPF@Inappropriate?5I?1O?5control?5operat@ 1012fdbc     libcmt:syserr.obj
 0002:00001de0       ??_C@_0BE@INBJMKGG@Too?5many?5open?5files?$AA@ 1012fde0     libcmt:syserr.obj
 0002:00001df4       ??_C@_0BO@IIFBODJE@Too?5many?5open?5files?5in?5system?$AA@ 1012fdf4     libcmt:syserr.obj
 0002:00001e14       ??_C@_0BB@HMGGCEBG@Invalid?5argument?$AA@ 1012fe14     libcmt:syserr.obj
 0002:00001e28       ??_C@_0P@NDHGCGKE@Is?5a?5directory?$AA@ 1012fe28     libcmt:syserr.obj
 0002:00001e38       ??_C@_0BA@CJBACOOL@Not?5a?5directory?$AA@ 1012fe38     libcmt:syserr.obj
 0002:00001e48       ??_C@_0P@NLEIANHE@No?5such?5device?$AA@ 1012fe48     libcmt:syserr.obj
 0002:00001e58       ??_C@_0O@OAMDNOCP@Improper?5link?$AA@ 1012fe58     libcmt:syserr.obj
 0002:00001e68       ??_C@_0M@NAAJNNGH@File?5exists?$AA@ 1012fe68     libcmt:syserr.obj
 0002:00001e74       ??_C@_0BA@BIBLIOEK@Resource?5device?$AA@ 1012fe74     libcmt:syserr.obj
 0002:00001e84       ??_C@_0M@LOEHLCJD@Bad?5address?$AA@ 1012fe84     libcmt:syserr.obj
 0002:00001e90       ??_C@_0BC@HFNFNKAI@Permission?5denied?$AA@ 1012fe90     libcmt:syserr.obj
 0002:00001ea4       ??_C@_0BB@IMDKMPFB@Not?5enough?5space?$AA@ 1012fea4     libcmt:syserr.obj
 0002:00001eb8       ??_C@_0CB@EPFKGNAK@Resource?5temporarily?5unavailable@ 1012feb8     libcmt:syserr.obj
 0002:00001edc       ??_C@_0BD@LOHELEP@No?5child?5processes?$AA@ 1012fedc     libcmt:syserr.obj
 0002:00001ef0       ??_C@_0BE@NFGDDCEF@Bad?5file?5descriptor?$AA@ 1012fef0     libcmt:syserr.obj
 0002:00001f04       ??_C@_0BC@HKPNECK@Exec?5format?5error?$AA@ 1012ff04     libcmt:syserr.obj
 0002:00001f18       ??_C@_0BC@MFFGCDFL@Arg?5list?5too?5long?$AA@ 1012ff18     libcmt:syserr.obj
 0002:00001f2c       ??_C@_0BK@DPKMCKJ@No?5such?5device?5or?5address?$AA@ 1012ff2c     libcmt:syserr.obj
 0002:00001f48       ??_C@_0BD@KKNFOBBD@Input?1output?5error?$AA@ 1012ff48     libcmt:syserr.obj
 0002:00001f5c       ??_C@_0BK@FJBOAFDK@Interrupted?5function?5call?$AA@ 1012ff5c     libcmt:syserr.obj
 0002:00001f78       ??_C@_0BA@FKIAIBGA@No?5such?5process?$AA@ 1012ff78     libcmt:syserr.obj
 0002:00001f88       ??_C@_0BK@FMDHKPNF@No?5such?5file?5or?5directory?$AA@ 1012ff88     libcmt:syserr.obj
 0002:00001fa4       ??_C@_0BI@BJFCGOHL@Operation?5not?5permitted?$AA@ 1012ffa4     libcmt:syserr.obj
 0002:00001fe8       ??_C@_04HLKGINEK@DDS?5?$AA@ 1012ffe8     il_dds-save.obj
 0002:00001ff0       ??_C@_0BE@POHOKPPI@1?42?4840?410008?41?42?42?$AA@ 1012fff0     il_dicom.obj
 0002:00002004       ??_C@_0BE@NFFDPMDL@1?42?4840?410008?41?42?41?$AA@ 10130004     il_dicom.obj
 0002:00002018       ??_C@_0BC@GCBEMKJD@1?42?4840?410008?41?42?$AA@ 10130018     il_dicom.obj
 0002:0000202c       ??_C@_04EFLJODAN@DICM?$AA@ 1013002c     il_dicom.obj
 0002:00002034       ??_C@_15JJPIMNBO@?$AAr?$AAb?$AA?$AA@ 10130034     il_files.obj
 0002:0000203c       ??_C@_15MJDFFMKN@?$AAw?$AAb?$AA?$AA@ 1013003c     il_files.obj
 0002:00002044       ??_C@_04DABCPBGL@END?5?$AA@ 10130044     il_fits.obj
 0002:0000204c       ??_C@_07CJCFLOGM@SIMPLE?5?$AA@ 1013004c     il_fits.obj
 0002:00002054       ??_C@_07JOMNBMJL@BITPIX?5?$AA@ 10130054     il_fits.obj
 0002:0000205c       ??_C@_06KHKCNAJK@NAXIS?5?$AA@ 1013005c     il_fits.obj
 0002:00002064       ??_C@_07JIBNDFGP@NAXIS1?5?$AA@ 10130064     il_fits.obj
 0002:0000206c       ??_C@_07JKFLILDG@NAXIS2?5?$AA@ 1013006c     il_fits.obj
 0002:00002074       ??_C@_07JLJJOBAB@NAXIS3?5?$AA@ 10130074     il_fits.obj
 0002:0000207c       ??_C@_06OBACMACE@GIF87A?$AA@ 1013007c     il_gif.obj
 0002:00002084       ??_C@_06OLJMONCO@GIF89A?$AA@ 10130084     il_gif.obj
 0002:0000208c       ??_C@_0L@NCPEAJBD@?$CD?$DPRADIANCE?$AA@ 1013008c     il_hdr.obj
 0002:00002098       ??_C@_03FOKDFDHG@?$CLX?5?$AA@ 10130098     il_hdr.obj
 0002:0000209c       ??_C@_03HKAKGGJN@?9Y?5?$AA@ 1013009c     il_hdr.obj
 0002:000020a0       ??_C@_04IDNNBGCD@RGBE?$AA@ 101300a0     il_hdr.obj
 0002:000020a8       ??_C@_05NHMAGHBM@?$CD?$DP?$CFs?6?$AA@ 101300a8     il_hdr.obj
 0002:000020b0       ??_C@_09IDJAJAEM@GAMMA?$DN?$CFg?6?$AA@ 101300b0     il_hdr.obj
 0002:000020bc       ??_C@_0N@LJLNMDHK@EXPOSURE?$DN?$CFg?6?$AA@ 101300bc     il_hdr.obj
 0002:000020cc       ??_C@_0BJ@DHPKEMFC@FORMAT?$DN32?9bit_rle_rgbe?6?6?$AA@ 101300cc     il_hdr.obj
 0002:000020e8       ??_C@_0N@LMGBBLFE@?9Y?5?$CFd?5?$CLX?5?$CFd?6?$AA@ 101300e8     il_hdr.obj
 0002:000020f8       ??_C@_0BG@JDMLHGFD@?1?1?$CDinclude?5?$DMil?1il?4h?$DO?6?$AA@ 101300f8     il_header.obj
 0002:00002110       ??_C@_0BG@MMOFCFNP@?1?1?5C?5Image?5Header?3?6?6?6?$AA@ 10130110     il_header.obj
 0002:00002128       ??_C@_0DA@CAMGEIFE@?1?1?5IMAGE_BPP?5is?5in?5bytes?5per?5pix@ 10130128     il_header.obj
 0002:00002158       ??_C@_0BG@LAJHCOHD@?$CDdefine?5IMAGE_BPP?5?$CFd?6?$AA@ 10130158     il_header.obj
 0002:00002170       ??_C@_0BK@MCLDCBAO@?$CDdefine?5IMAGE_WIDTH?5?5?5?$CFd?6?$AA@ 10130170     il_header.obj
 0002:0000218c       ??_C@_0BK@MOLBMAHI@?$CDdefine?5IMAGE_HEIGHT?5?5?$CFd?6?$AA@ 1013018c     il_header.obj
 0002:000021a8       ??_C@_0BM@KKOFOEPA@?$CDdefine?5IMAGE_DEPTH?5?5?5?$CFd?6?6?6?$AA@ 101301a8     il_header.obj
 0002:000021c4       ??_C@_0BM@COMADECP@?$CDdefine?5IMAGE_TYPE?5?5?5?50x?$CFX?6?$AA@ 101301c4     il_header.obj
 0002:000021e0       ??_C@_0BO@IFKOMJNC@?$CDdefine?5IMAGE_FORMAT?5?50x?$CFX?6?6?6?$AA@ 101301e0     il_header.obj
 0002:00002200       ??_C@_0BC@CDNKOIFI@ILubyte?5?$CFs?$FL?$FN?5?$DN?5?$HL?6?$AA@ 10130200     il_header.obj
 0002:00002214       ??_C@_01GPOEFGEJ@?7?$AA@   10130214     il_header.obj
 0002:00002218       ??_C@_03GLKEJMAA@?$CF4d?$AA@ 10130218     il_header.obj
 0002:0000221c       ??_C@_04DJFKMPDC@?$CF4d?0?$AA@ 1013021c     il_header.obj
 0002:00002224       ??_C@_01EEMJAFIK@?6?$AA@   10130224     il_header.obj
 0002:00002228       ??_C@_03JFDPLKFJ@?$HN?$DL?6?$AA@ 10130228     il_header.obj
 0002:0000222c       ??_C@_02PHMGELLB@?6?6?$AA@ 1013022c     il_header.obj
 0002:00002230       ??_C@_0BL@CFDFDGJF@?$CDdefine?5IMAGE_PALSIZE?5?$CFu?6?6?$AA@ 10130230     il_header.obj
 0002:0000224c       ??_C@_0BN@FCFFMBGJ@?$CDdefine?5IMAGE_PALTYPE?50x?$CFX?6?6?$AA@ 1013024c     il_header.obj
 0002:0000226c       ??_C@_0BF@BHEMGMJE@ILubyte?5?$CFsPal?$FL?$FN?5?$DN?5?$HL?6?$AA@ 1013026c     il_header.obj
 0002:00002284       ??_C@_04ENADJLAF@?5?$CF4d?$AA@ 10130284     il_header.obj
 0002:0000228c       ??_C@_05EJBGJMLK@?5?$CF4d?0?$AA@ 1013028c     il_header.obj
 0002:00002294       ??_C@_04MCDHIJCM@icns?$AA@ 10130294     il_icns.obj
 0002:0000229c       ??_C@_04ICPPCFKN@it32?$AA@ 1013029c     il_icns.obj
 0002:000022a4       ??_C@_04MGBGHELM@t8mk?$AA@ 101302a4     il_icns.obj
 0002:000022ac       ??_C@_04JIDAMNIK@ih32?$AA@ 101302ac     il_icns.obj
 0002:000022b4       ??_C@_04GDAGAODP@h8mk?$AA@ 101302b4     il_icns.obj
 0002:000022bc       ??_C@_04BHFCFKNN@il32?$AA@ 101302bc     il_icns.obj
 0002:000022c4       ??_C@_04JGIGKIPP@l8mk?$AA@ 101302c4     il_icns.obj
 0002:000022cc       ??_C@_04BPCIBNBE@is32?$AA@ 101302cc     il_icns.obj
 0002:000022d4       ??_C@_04HEDGKIKM@s8mk?$AA@ 101302d4     il_icns.obj
 0002:000022dc       ??_C@_04KOIDCNBJ@ic09?$AA@ 101302dc     il_icns.obj
 0002:000022e4       ??_C@_04LHJIBMFI@ic08?$AA@ 101302e4     il_icns.obj
 0002:000022ec       ??_C@_03NAIKFGEJ@PNG?$AA@  101302ec     il_icon.obj
 0002:000022f0       ??_C@_05BGPNFKBM@1?46?49?$AA@ 101302f0     il_icon.obj
 0002:000022f8       ??_C@_04IEBDBADI@CMAP?$AA@ 101302f8     il_ilbm.obj
 0002:00002300       ??_C@_0BJ@MIFFGNKI@error?5reading?5BODY?5chunk?$AA@ 10130300     il_ilbm.obj
 0002:0000231c       ??_C@_17CEKMBAHI@?$AAt?$AAg?$AAa?$AA?$AA@ 1013031c     il_io.obj
 0002:00002324       ??_C@_17OABNGFKL@?$AAv?$AAd?$AAa?$AA?$AA@ 10130324     il_io.obj
 0002:0000232c       ??_C@_17EKDGNJHK@?$AAi?$AAc?$AAb?$AA?$AA@ 1013032c     il_io.obj
 0002:00002334       ??_C@_17JJAJPACF@?$AAv?$AAs?$AAt?$AA?$AA@ 10130334     il_io.obj
 0002:0000233c       ??_C@_17HGCFFOJO@?$AAj?$AAp?$AAg?$AA?$AA@ 1013033c     il_io.obj
 0002:00002344       ??_C@_17NMCMJGBF@?$AAj?$AAp?$AAe?$AA?$AA@ 10130344     il_io.obj
 0002:0000234c       ??_C@_19IICIMDPD@?$AAj?$AAp?$AAe?$AAg?$AA?$AA@ 1013034c     il_io.obj
 0002:00002358       ??_C@_17OKEAGKKI@?$AAj?$AAi?$AAf?$AA?$AA@ 10130358     il_io.obj
 0002:00002360       ??_C@_19PNICFMEB@?$AAj?$AAf?$AAi?$AAf?$AA?$AA@ 10130360     il_io.obj
 0002:0000236c       ??_C@_17IKPGKBAO@?$AAj?$AAp?$AA2?$AA?$AA@ 1013036c     il_io.obj
 0002:00002374       ??_C@_17HOFPBJFH@?$AAj?$AAp?$AAx?$AA?$AA@ 10130374     il_io.obj
 0002:0000237c       ??_C@_17HOGDEKEB@?$AAj?$AA2?$AAk?$AA?$AA@ 1013037c     il_io.obj
 0002:00002384       ??_C@_17LLNHGCKO@?$AAj?$AA2?$AAc?$AA?$AA@ 10130384     il_io.obj
 0002:0000238c       ??_C@_17CEJDMMOJ@?$AAd?$AAd?$AAs?$AA?$AA@ 1013038c     il_io.obj
 0002:00002394       ??_C@_17KCICBAJG@?$AAp?$AAn?$AAg?$AA?$AA@ 10130394     il_io.obj
 0002:0000239c       ??_C@_17NHEGDLEI@?$AAb?$AAm?$AAp?$AA?$AA@ 1013039c     il_io.obj
 0002:000023a4       ??_C@_17HAKIOPMN@?$AAd?$AAi?$AAb?$AA?$AA@ 101303a4     il_io.obj
 0002:000023ac       ??_C@_17HBEFHPHJ@?$AAg?$AAi?$AAf?$AA?$AA@ 101303ac     il_io.obj
 0002:000023b4       ??_C@_17BMBKOION@?$AAb?$AAl?$AAp?$AA?$AA@ 101303b4     il_io.obj
 0002:000023bc       ??_C@_17HLALCMHH@?$AAc?$AAu?$AAt?$AA?$AA@ 101303bc     il_io.obj
 0002:000023c4       ??_C@_17IJFANMPN@?$AAd?$AAc?$AAm?$AA?$AA@ 101303c4     il_io.obj
 0002:000023cc       ??_C@_1M@OMAGHEFE@?$AAd?$AAi?$AAc?$AAo?$AAm?$AA?$AA@ 101303cc     il_io.obj
 0002:000023d8       ??_C@_17GLNFALGF@?$AAd?$AAp?$AAx?$AA?$AA@ 101303d8     il_io.obj
 0002:000023e0       ??_C@_17CEJBGJPC@?$AAe?$AAx?$AAr?$AA?$AA@ 101303e0     il_io.obj
 0002:000023e8       ??_C@_17EHPPOAPD@?$AAf?$AAi?$AAt?$AA?$AA@ 101303e8     il_io.obj
 0002:000023f0       ??_C@_19OGBBBIIL@?$AAf?$AAi?$AAt?$AAs?$AA?$AA@ 101303f0     il_io.obj
 0002:000023fc       ??_C@_17LCGBEOAO@?$AAf?$AAt?$AAx?$AA?$AA@ 101303fc     il_io.obj
 0002:00002404       ??_C@_17MLIALOMD@?$AAh?$AAd?$AAr?$AA?$AA@ 10130404     il_io.obj
 0002:0000240c       ??_C@_17JFJJNPJO@?$AAi?$AAf?$AAf?$AA?$AA@ 1013040c     il_io.obj
 0002:00002414       ??_C@_19DKLDIMEI@?$AAi?$AAl?$AAb?$AAm?$AA?$AA@ 10130414     il_io.obj
 0002:00002420       ??_C@_17JBOJBEON@?$AAl?$AAb?$AAm?$AA?$AA@ 10130420     il_io.obj
 0002:00002428       ??_C@_17JDDHGILJ@?$AAh?$AAa?$AAm?$AA?$AA@ 10130428     il_io.obj
 0002:00002430       ??_C@_17LIFMABKH@?$AAi?$AAc?$AAo?$AA?$AA@ 10130430     il_io.obj
 0002:00002438       ??_C@_17FOGAHDKL@?$AAc?$AAu?$AAr?$AA?$AA@ 10130438     il_io.obj
 0002:00002440       ??_C@_19CEJHHODD@?$AAi?$AAc?$AAn?$AAs?$AA?$AA@ 10130440     il_io.obj
 0002:0000244c       ??_C@_17FHABOPG@?$AAi?$AAw?$AAi?$AA?$AA@ 1013044c     il_io.obj
 0002:00002454       ??_C@_17EPPJDNHF@?$AAj?$AAn?$AAg?$AA?$AA@ 10130454     il_io.obj
 0002:0000245c       ??_C@_17CMCPGDCP@?$AAl?$AAi?$AAf?$AA?$AA@ 1013045c     il_io.obj
 0002:00002464       ??_C@_17DDKGJAAL@?$AAm?$AAd?$AAl?$AA?$AA@ 10130464     il_io.obj
 0002:0000246c       ??_C@_17EFDMDEGM@?$AAm?$AAn?$AAg?$AA?$AA@ 1013046c     il_io.obj
 0002:00002474       ??_C@_17DIIPMPHC@?$AAm?$AAp?$AA3?$AA?$AA@ 10130474     il_io.obj
 0002:0000247c       ??_C@_17MKJKMKG@?$AAp?$AAc?$AAd?$AA?$AA@ 1013047c     il_io.obj
 0002:00002484       ??_C@_17BGGGEEIB@?$AAp?$AAc?$AAx?$AA?$AA@ 10130484     il_io.obj
 0002:0000248c       ??_C@_17DAOFLHHJ@?$AAp?$AAi?$AAc?$AA?$AA@ 1013048c     il_io.obj
 0002:00002494       ??_C@_17LHPNGHOH@?$AAp?$AAi?$AAx?$AA?$AA@ 10130494     il_io.obj
 0002:0000249c       ??_C@_17LKPNDAIJ@?$AAp?$AAb?$AAm?$AA?$AA@ 1013049c     il_io.obj
 0002:000024a4       ??_C@_17OKDAKBDK@?$AAp?$AAg?$AAm?$AA?$AA@ 101304a4     il_io.obj
 0002:000024ac       ??_C@_17MNDPPAPC@?$AAp?$AAn?$AAm?$AA?$AA@ 101304ac     il_io.obj
 0002:000024b4       ??_C@_17PEODJDBJ@?$AAp?$AAp?$AAm?$AA?$AA@ 101304b4     il_io.obj
 0002:000024bc       ??_C@_17PHPKODN@?$AAp?$AAs?$AAd?$AA?$AA@ 101304bc     il_io.obj
 0002:000024c4       ??_C@_17BBKMJMBO@?$AAp?$AAd?$AAd?$AA?$AA@ 101304c4     il_io.obj
 0002:000024cc       ??_C@_17NAAEGOPF@?$AAp?$AAs?$AAp?$AA?$AA@ 101304cc     il_io.obj
 0002:000024d4       ??_C@_17BAMKFGLN@?$AAp?$AAx?$AAr?$AA?$AA@ 101304d4     il_io.obj
 0002:000024dc       ??_C@_17GJFHDMDP@?$AAr?$AAo?$AAt?$AA?$AA@ 101304dc     il_io.obj
 0002:000024e4       ??_C@_17OLNNDBIO@?$AAs?$AAg?$AAi?$AA?$AA@ 101304e4     il_io.obj
 0002:000024ec       ??_C@_15PNOJGICI@?$AAb?$AAw?$AA?$AA@ 101304ec     il_io.obj
 0002:000024f4       ??_C@_17PAHGLGBB@?$AAr?$AAg?$AAb?$AA?$AA@ 101304f4     il_io.obj
 0002:000024fc       ??_C@_19PCEBFFLJ@?$AAr?$AAg?$AAb?$AAa?$AA?$AA@ 101304fc     il_io.obj
 0002:00002508       ??_C@_17DIBEKKKH@?$AAs?$AAu?$AAn?$AA?$AA@ 10130508     il_io.obj
 0002:00002510       ??_C@_17MOIKGFPG@?$AAr?$AAa?$AAs?$AA?$AA@ 10130510     il_io.obj
 0002:00002518       ??_C@_15HBFNPNOE@?$AAr?$AAs?$AA?$AA@ 10130518     il_io.obj
 0002:00002520       ??_C@_17KJIEBIEG@?$AAi?$AAm?$AA1?$AA?$AA@ 10130520     il_io.obj
 0002:00002528       ??_C@_17NEIMFHMM@?$AAi?$AAm?$AA8?$AA?$AA@ 10130528     il_io.obj
 0002:00002530       ??_C@_19EMJCMEAJ@?$AAi?$AAm?$AA2?$AA4?$AA?$AA@ 10130530     il_io.obj
 0002:0000253c       ??_C@_19KCKFEIHA@?$AAi?$AAm?$AA3?$AA2?$AA?$AA@ 1013053c     il_io.obj
 0002:00002548       ??_C@_1BA@GDCLEMJH@?$AAt?$AAe?$AAx?$AAt?$AAu?$AAr?$AAe?$AA?$AA@ 10130548     il_io.obj
 0002:00002558       ??_C@_17IDHBEJLB@?$AAt?$AAi?$AAf?$AA?$AA@ 10130558     il_io.obj
 0002:00002560       ??_C@_19OMJDENGD@?$AAt?$AAi?$AAf?$AAf?$AA?$AA@ 10130560     il_io.obj
 0002:0000256c       ??_C@_17MIBFPKIG@?$AAt?$AAp?$AAl?$AA?$AA@ 1013056c     il_io.obj
 0002:00002574       ??_C@_17EAFFHIMG@?$AAu?$AAt?$AAx?$AA?$AA@ 10130574     il_io.obj
 0002:0000257c       ??_C@_17HOBMFPIJ@?$AAv?$AAt?$AAf?$AA?$AA@ 1013057c     il_io.obj
 0002:00002584       ??_C@_17IOBACMFL@?$AAw?$AAa?$AAl?$AA?$AA@ 10130584     il_io.obj
 0002:0000258c       ??_C@_19EFHLBCLG@?$AAw?$AAb?$AAm?$AAp?$AA?$AA@ 1013058c     il_io.obj
 0002:00002598       ??_C@_17MEBCFFMP@?$AAw?$AAd?$AAp?$AA?$AA@ 10130598     il_io.obj
 0002:000025a0       ??_C@_17GBIJHGEI@?$AAh?$AAd?$AAp?$AA?$AA@ 101305a0     il_io.obj
 0002:000025a8       ??_C@_17CHAGIIKM@?$AAx?$AAp?$AAm?$AA?$AA@ 101305a8     il_io.obj
 0002:000025b0       ??_C@_0BK@BBFPBJOA@Paint?5Shop?5Pro?5Image?5File?$AA@ 101305b0     il_io.obj
 0002:000025cc       ??_C@_04EMMGILHP@SDPX?$AA@ 101305cc     il_io.obj
 0002:000025d4       ??_C@_06MHBJNELB@SIMPLE?$AA@ 101305d4     il_io.obj
 0002:000025dc       ??_C@_04DLBGLKGO@XDPX?$AA@ 101305dc     il_io.obj
 0002:000025e4       ??_C@_17IENFCFEC@?$AAp?$AAa?$AAl?$AA?$AA@ 101305e4     il_io.obj
 0002:000025ec       ??_C@_08JDCPMIPA@IL_IMAGE?$AA@ 101305ec     il_io.obj
 0002:000025f8       ??_C@_03DDKBALKF@jp2?$AA@  101305f8     il_jp2.obj
 0002:000025fc       ??_C@_03LLFPHHHI@ID3?$AA@  101305fc     il_mp3.obj
 0002:00002600       ??_C@_04DDFMNMDA@APIC?$AA@ 10130600     il_mp3.obj
 0002:00002608       ??_C@_0L@PJKHLKFB@image?1jpeg?$AA@ 10130608     il_mp3.obj
 0002:00002614       ??_C@_09NGJJJBGE@image?1png?$AA@ 10130614     il_mp3.obj
 0002:00002620       ??_C@_17EMOLHCPK@?$AAc?$AAo?$AAl?$AA?$AA@ 10130620     il_pal.obj
 0002:00002628       ??_C@_17OMKBMKIM@?$AAa?$AAc?$AAt?$AA?$AA@ 10130628     il_pal.obj
 0002:00002630       ??_C@_17KNOGEJOM@?$AAp?$AAl?$AAt?$AA?$AA@ 10130630     il_pal.obj
 0002:00002638       ??_C@_15OMIKMFFN@?$AAr?$AAt?$AA?$AA@ 10130638     il_pal.obj
 0002:00002640       ??_C@_08PDEECILK@JASC?9PAL?$AA@ 10130640     il_pal.obj
 0002:0000264c       ??_C@_04CLEGPMMD@0100?$AA@ 1013064c     il_pal.obj
 0002:00002654       ??_C@_15LMEHFEOO@?$AAw?$AAt?$AA?$AA@ 10130654     il_pal.obj
 0002:0000265c       ??_C@_0BD@KBICJOKB@JASC?9PAL?60100?6256?6?$AA@ 1013065c     il_pal.obj
 0002:00002670       ??_C@_09KAAEENOK@?$CFd?5?$CFd?5?$CFd?6?$AA@ 10130670     il_pal.obj
 0002:0000267c       ??_C@_06BCMLJKEH@0?50?50?6?$AA@ 1013067c     il_pal.obj
 0002:00002690       __real@0000000000000000    10130690     libcmt:_frexp_.obj
 0002:000026a8       ??_C@_04ELNJHLFH@PICT?$AA@ 101306a8     il_pic.obj
 0002:000026b0       ??_C@_0N@EOMMMFHJ@Generated?5by?$AA@ 101306b0     il_png.obj
 0002:000026c0       ??_C@_0DD@DMHNBIAJ@Generated?5by?5the?5Developer?8s?5Ima@ 101306c0     il_png.obj
 0002:000026f4       ??_C@_06HHECMMLE@Author?$AA@ 101306f4     il_png.obj
 0002:000026fc       ??_C@_0M@OHKMKKDH@Description?$AA@ 101306fc     il_png.obj
 0002:00002708       ??_C@_05PABKJLOM@Title?$AA@ 10130708     il_png.obj
 0002:00002710       ??_C@_03MKPAEIGM@P1?6?$AA@ 10130710     il_pnm.obj
 0002:00002714       ??_C@_03MILGPGDF@P2?6?$AA@ 10130714     il_pnm.obj
 0002:00002718       ??_C@_03MNPJOALA@P5?6?$AA@ 10130718     il_pnm.obj
 0002:0000271c       ??_C@_03MJHEJMAC@P3?6?$AA@ 1013071c     il_pnm.obj
 0002:00002720       ??_C@_03MPLPFOOJ@P6?6?$AA@ 10130720     il_pnm.obj
 0002:00002724       ??_C@_06IPGPIAII@?$CFd?5?$CFd?6?$AA@ 10130724     il_pnm.obj
 0002:0000272c       ??_C@_03PMGGPEJJ@?$CFd?6?$AA@ 1013072c     il_pnm.obj
 0002:00002730       ??_C@_03JDANDILB@?$CFd?5?$AA@ 10130730     il_pnm.obj
 0002:00002734       ??_C@_01KDCPPGHE@r?$AA@    10130734     il_profiles.obj
 0002:00002738       ??_C@_04GELLELDE@8BPS?$AA@ 10130738     il_psd.obj
 0002:00002740       ??_C@_04KDANOMBE@8BIM?$AA@ 10130740     il_psd.obj
 0002:00002748       ??_C@_0BM@IHKPDFHO@Paint?5Shop?5Pro?5Image?5File?6?$BK?$AA@ 10130748     il_psp.obj
 0002:00002768       ??_C@_0HK@JNNBGLKD@bmp?5dib?5h?5dds?5hdr?5jp2?5jpg?5jpe?5jp@ 10130768     il_states.obj
 0002:000027e8       ??_C@_0OP@ICGFKMLD@bmp?5dib?5cut?5dcx?5dds?5dicom?5dcmdds@ 101307e8     il_states.obj
 0002:000028d8       ??_C@_1FA@DMAGJCPP@?$AAD?$AAe?$AAv?$AAe?$AAl?$AAo?$AAp?$AAe?$AAr?$AA?8?$AAs?$AA?5?$AAI?$AAm?$AAa?$AAg?$AAe?$AA?5?$AAL?$AAi?$AAb?$AAr?$AAa?$AAr?$AAy?$AA?5?$AA?$CI?$AAD?$AAe?$AAv?$AAI?$AAL@ 101308d8     il_states.obj
 0002:00002928       ??_C@_1CC@FLLNLNFB@?$AAA?$AAb?$AAy?$AAs?$AAm?$AAa?$AAl?$AA?5?$AAS?$AAo?$AAf?$AAt?$AAw?$AAa?$AAr?$AAe?$AA?$AA@ 10130928     il_states.obj
 0002:0000294c       ??_C@_0BD@IPJPEEBK@TRUEVISION?9XFILE?4?$AA?$AA@ 1013094c     il_targa.obj
 0002:00002960       ??_C@_0CC@DDKIHLCK@Developer?8s?5Image?5Library?5?$CIDevIL@ 10130960     il_targa.obj
 0002:00002984       ??_C@_0M@DPNIGCNP@TIFFMemFile?$AA@ 10130984     il_tiff.obj
 0002:00002990       ??_C@_01NOFIACDB@w?$AA@    10130990     il_tiff.obj
 0002:00002994       ??_C@_0BF@BEFJJLON@Tiff?5generated?5by?5?$CFs?$AA@ 10130994     il_tiff.obj
 0002:000029ac       ??_C@_0BC@GEFKKOJO@?$CFY?3?$CFm?3?$CFd?5?$CFH?3?$CFM?3?$CFS?$AA@ 101309ac     il_tiff.obj
 0002:000029c0       ??_C@_03PNELBOHC@VTF?$AA@  101309c0     il_vtf.obj
 0002:000029c4       ??_C@_09HHKJMCAF@?1?$CK?5XPM?5?$CK?1?$AA@ 101309c4     il_xpm.obj
 0002:000029d0       ??_C@_04CGFJFPFD@none?$AA@ 101309d0     il_xpm.obj
 0002:000029d8       ??_C@_05BIMBDNDC@black?$AA@ 101309d8     il_xpm.obj
 0002:000029e0       ??_C@_05PMAELIEO@white?$AA@ 101309e0     il_xpm.obj
 0002:000029e8       ??_C@_03FAAAOPJM@red?$AA@  101309e8     il_xpm.obj
 0002:000029ec       ??_C@_05GBEEJKMC@green?$AA@ 101309ec     il_xpm.obj
 0002:000029f4       ??_C@_04OBGPFBCN@blue?$AA@ 101309f4     il_xpm.obj
 0002:000029fc       ??_C@_06ENJNJKEL@yellow?$AA@ 101309fc     il_xpm.obj
 0002:00002a04       ??_C@_04EDBDANFH@cyan?$AA@ 10130a04     il_xpm.obj
 0002:00002a0c       ??_C@_04GEBBKIAA@gray?$AA@ 10130a0c     il_xpm.obj
 0002:00002a14       ??_C@_01CLKCMJKC@?5?$AA@   10130a14     libjasper:jas_seq.obj
 0002:00002a16       ??_C@_00CNPNBAHC@?$AA@     10130a16     libjasper:jas_seq.obj
 0002:00002a18       ??_C@_05HAJCMBLP@?5?$CF02x?$AA@ 10130a18     libjasper:jas_stream.obj
 0002:00002a20       ??_C@_0BG@BINBIIBO@My?5Image?5Format?5?$CIMIF?$CJ?$AA@ 10130a20     libjasper:jas_init.obj
 0002:00002a38       ??_C@_03GDFGDDLD@mif?$AA@  10130a38     libjasper:jas_init.obj
 0002:00002a3c       ??_C@_0BO@FHNBPHJP@Portable?5Graymap?1Pixmap?5?$CIPNM?$CJ?$AA@ 10130a3c     libjasper:jas_init.obj
 0002:00002a5c       ??_C@_03CHJOHDLP@pnm?$AA@  10130a5c     libjasper:jas_init.obj
 0002:00002a60       ??_C@_03CIEPEIDA@pgm?$AA@  10130a60     libjasper:jas_init.obj
 0002:00002a64       ??_C@_03DBCGPNMF@ppm?$AA@  10130a64     libjasper:jas_init.obj
 0002:00002a68       ??_C@_0BH@NFPJKAMN@Microsoft?5Bitmap?5?$CIBMP?$CJ?$AA@ 10130a68     libjasper:jas_init.obj
 0002:00002a80       ??_C@_03CAKEDOOO@bmp?$AA@  10130a80     libjasper:jas_init.obj
 0002:00002a84       ??_C@_0BF@NCBIGPFK@Sun?5Rasterfile?5?$CIRAS?$CJ?$AA@ 10130a84     libjasper:jas_init.obj
 0002:00002a9c       ??_C@_03FCIKMDNG@ras?$AA@  10130a9c     libjasper:jas_init.obj
 0002:00002aa0       ??_C@_0DD@NBFDCEND@JPEG?92000?5JP2?5File?5Format?5Syntax@ 10130aa0     libjasper:jas_init.obj
 0002:00002ad4       ??_C@_0CP@IPAKMLEI@JPEG?92000?5Code?5Stream?5Syntax?5?$CIIS@ 10130ad4     libjasper:jas_init.obj
 0002:00002b04       ??_C@_03JAABGHLA@jpc?$AA@  10130b04     libjasper:jas_init.obj
 0002:00002b08       ??_C@_0BH@GBJPHONK@JPEG?5?$CIISO?1IEC?510918?91?$CJ?$AA@ 10130b08     libjasper:jas_init.obj
 0002:00002b20       ??_C@_03PEGNKCLE@jpg?$AA@  10130b20     libjasper:jas_init.obj
 0002:00002b24       ??_C@_0BK@KAMCJLGD@JPEG?92000?5VM?5Format?5?$CIPGX?$CJ?$AA@ 10130b24     libjasper:jas_init.obj
 0002:00002b40       ??_C@_03BPPKKOCE@pgx?$AA@  10130b40     libjasper:jas_init.obj
 0002:00002b44       ??_C@_04DGGKDJMA@real?$AA@ 10130b44     libjasper:jpc_enc.obj
 0002:00002b4c       ??_C@_03JBIPMCLC@int?$AA@  10130b4c     libjasper:jpc_enc.obj
 0002:00002b50       ??_C@_04BCENDNHG@cprl?$AA@ 10130b50     libjasper:jpc_enc.obj
 0002:00002b58       ??_C@_04HHKBCIFF@pcrl?$AA@ 10130b58     libjasper:jpc_enc.obj
 0002:00002b60       ??_C@_04FCCJEKAD@rpcl?$AA@ 10130b60     libjasper:jpc_enc.obj
 0002:00002b68       ??_C@_04KOJBPPHJ@rlcp?$AA@ 10130b68     libjasper:jpc_enc.obj
 0002:00002b70       ??_C@_04MBIHPGDG@lrcp?$AA@ 10130b70     libjasper:jpc_enc.obj
 0002:00002b78       ??_C@_0N@BFIPPCEF@_jp2overhead?$AA@ 10130b78     libjasper:jpc_enc.obj
 0002:00002b88       ??_C@_09PNDGHDI@ilyrrates?$AA@ 10130b88     libjasper:jpc_enc.obj
 0002:00002b94       ??_C@_04HCCHHEEF@rate?$AA@ 10130b94     libjasper:jpc_enc.obj
 0002:00002b9c       ??_C@_08GEEBEKEJ@numgbits?$AA@ 10130b9c     libjasper:jpc_enc.obj
 0002:00002ba8       ??_C@_09LPHLLBMB@resetprob?$AA@ 10130ba8     libjasper:jpc_enc.obj
 0002:00002bb4       ??_C@_05MCJDLLHH@pterm?$AA@ 10130bb4     libjasper:jpc_enc.obj
 0002:00002bbc       ??_C@_07EBPBNHHH@vcausal?$AA@ 10130bbc     libjasper:jpc_enc.obj
 0002:00002bc4       ??_C@_06DOMBJGME@segsym?$AA@ 10130bc4     libjasper:jpc_enc.obj
 0002:00002bcc       ??_C@_07EHBOEFAB@termall?$AA@ 10130bcc     libjasper:jpc_enc.obj
 0002:00002bd4       ??_C@_04EBBOCNPB@lazy?$AA@ 10130bd4     libjasper:jpc_enc.obj
 0002:00002bdc       ??_C@_03CLJGKOCN@eph?$AA@  10130bdc     libjasper:jpc_enc.obj
 0002:00002be0       ??_C@_03MLIFNKHK@sop?$AA@  10130be0     libjasper:jpc_enc.obj
 0002:00002be4       ??_C@_08JCCFNCAB@numrlvls?$AA@ 10130be4     libjasper:jpc_enc.obj
 0002:00002bf0       ??_C@_05KPCPDGLP@nomct?$AA@ 10130bf0     libjasper:jpc_enc.obj
 0002:00002bf8       ??_C@_03MIENMBCB@prg?$AA@  10130bf8     libjasper:jpc_enc.obj
 0002:00002bfc       ??_C@_04GMGOKAFF@mode?$AA@ 10130bfc     libjasper:jpc_enc.obj
 0002:00002c04       ??_C@_0L@GAKOMELN@cblkheight?$AA@ 10130c04     libjasper:jpc_enc.obj
 0002:00002c10       ??_C@_09JCFIEFAB@cblkwidth?$AA@ 10130c10     libjasper:jpc_enc.obj
 0002:00002c1c       ??_C@_09LFCJDOJN@prcheight?$AA@ 10130c1c     libjasper:jpc_enc.obj
 0002:00002c28       ??_C@_08HFODIBCD@prcwidth?$AA@ 10130c28     libjasper:jpc_enc.obj
 0002:00002c34       ??_C@_0L@KAJPMDA@tileheight?$AA@ 10130c34     libjasper:jpc_enc.obj
 0002:00002c40       ??_C@_09IFEADKBA@tilewidth?$AA@ 10130c40     libjasper:jpc_enc.obj
 0002:00002c4c       ??_C@_0L@OKAJFEKL@tilegrdtly?$AA@ 10130c4c     libjasper:jpc_enc.obj
 0002:00002c58       ??_C@_0L@PDBCGFOK@tilegrdtlx?$AA@ 10130c58     libjasper:jpc_enc.obj
 0002:00002c64       ??_C@_0L@GDEKODAA@imgareatly?$AA@ 10130c64     libjasper:jpc_enc.obj
 0002:00002c70       ??_C@_0L@HKFBNCEB@imgareatlx?$AA@ 10130c70     libjasper:jpc_enc.obj
 0002:00002c7c       ??_C@_05GFCDIDHO@debug?$AA@ 10130c7c     libjasper:jpc_enc.obj
 0002:00002c84       ??_C@_0BM@NLMNNFKK@invalid?5JP?5encoder?5options?6?$AA@ 10130c84     libjasper:jpc_enc.obj
 0002:00002ca0       ??_C@_0BJ@LDOGKFHL@cannot?5write?5EOI?5marker?6?$AA@ 10130ca0     libjasper:jpc_enc.obj
 0002:00002cbc       ??_C@_0BI@NGKIIF@unsupported?5image?5type?6?$AA@ 10130cbc     libjasper:jpc_enc.obj
 0002:00002cd4       ??_C@_0BK@DIEFCFBJ@ignoring?5invalid?5mode?5?$CFs?6?$AA@ 10130cd4     libjasper:jpc_enc.obj
 0002:00002cf0       ??_C@_0CH@KOJJNGOP@ignoring?5invalid?5progression?5ord@ 10130cf0     libjasper:jpc_enc.obj
 0002:00002d18       ??_C@_0CA@DFCJOFEC@ignoring?5bad?5rate?5specifier?5?$CFs?6?$AA@ 10130d18     libjasper:jpc_enc.obj
 0002:00002d38       ??_C@_0EC@OBCMBFGA@warning?3?5invalid?5intermediate?5la@ 10130d38     libjasper:jpc_enc.obj
 0002:00002d7c       ??_C@_0CF@CLAEHOIP@warning?3?5ignoring?5invalid?5option@ 10130d7c     libjasper:jpc_enc.obj
 0002:00002da4       ??_C@_0CG@ONHHAIBB@warning?3?5overriding?5imgareatlx?5v@ 10130da4     libjasper:jpc_enc.obj
 0002:00002dcc       ??_C@_0CG@PKAMBMFC@warning?3?5overriding?5imgareatly?5v@ 10130dcc     libjasper:jpc_enc.obj
 0002:00002df4       ??_C@_0CJ@NENCCEPO@warning?3?5color?5space?5apparently?5@ 10130df4     libjasper:jpc_enc.obj
 0002:00002e20       ??_C@_0BI@PNAIGKFF@invalid?5tile?5width?5?$CFlu?6?$AA@ 10130e20     libjasper:jpc_enc.obj
 0002:00002e38       ??_C@_0BJ@FFDOABIC@invalid?5tile?5height?5?$CFlu?6?$AA@ 10130e38     libjasper:jpc_enc.obj
 0002:00002e54       ??_C@_0CF@JKJPCJPJ@invalid?5tile?5grid?5offset?5?$CI?$CFlu?0?5?$CF@ 10130e54     libjasper:jpc_enc.obj
 0002:00002e7c       ??_C@_0CK@BMMICAPA@cannot?5use?5real?5mode?5for?5lossles@ 10130e7c     libjasper:jpc_enc.obj
 0002:00002ea8       ??_C@_0BI@PCOCOOHM@invalid?5precinct?5width?6?$AA@ 10130ea8     libjasper:jpc_enc.obj
 0002:00002ec0       ??_C@_0BJ@ECEMFFG@invalid?5precinct?5height?6?$AA@ 10130ec0     libjasper:jpc_enc.obj
 0002:00002edc       ??_C@_0BN@GEIGGFM@invalid?5code?5block?5width?5?$CFd?6?$AA@ 10130edc     libjasper:jpc_enc.obj
 0002:00002efc       ??_C@_0BO@ICGDKAMM@invalid?5code?5block?5height?5?$CFd?6?$AA@ 10130efc     libjasper:jpc_enc.obj
 0002:00002f1c       ??_C@_0BL@CANDCDFN@code?5block?5size?5too?5large?6?$AA@ 10130f1c     libjasper:jpc_enc.obj
 0002:00002f38       ??_C@_0BB@IHOGPIGI@too?5many?5layers?6?$AA@ 10130f38     libjasper:jpc_enc.obj
 0002:00002f4c       ??_C@_0CH@OMLNCFFK@must?5be?5at?5least?5one?5resolution?5@ 10130f4c     libjasper:jpc_enc.obj
 0002:00002f74       ??_C@_0BO@EDFMHBON@invalid?5number?5of?5guard?5bits?6?$AA@ 10130f74     libjasper:jpc_enc.obj
 0002:00002f94       ??_C@_0DL@CFKDCNNI@warning?3?5specified?5rate?5is?5unrea@ 10130f94     libjasper:jpc_enc.obj
 0002:00002fd0       ??_C@_0DG@MKAFEJBJ@intermediate?5layer?5rates?5must?5in@ 10130fd0     libjasper:jpc_enc.obj
 0002:00003008       ??_C@_0EC@LEEPNBGN@warning?3?5intermediate?5layer?5rate@ 10131008     libjasper:jpc_enc.obj
 0002:0000304c       ??_C@_0BJ@EHOBHNKO@cannot?5write?5SOC?5marker?6?$AA@ 1013104c     libjasper:jpc_enc.obj
 0002:00003068       ??_C@_0BJ@HEOPBNMP@cannot?5write?5SIZ?5marker?6?$AA@ 10131068     libjasper:jpc_enc.obj
 0002:00003084       ??_C@_0BL@DNKLKPEG@Creator?3?5JasPer?5Version?5?$CFs?$AA@ 10131084     libjasper:jpc_enc.obj
 0002:000030a0       ??_C@_0BJ@FFDAKAOB@cannot?5write?5COM?5marker?6?$AA@ 101310a0     libjasper:jpc_enc.obj
 0002:000030bc       ??_C@_0BJ@KJCFILCL@cannot?5write?5COD?5marker?6?$AA@ 101310bc     libjasper:jpc_enc.obj
 0002:000030d8       ??_C@_0CO@GOMABAIG@error?3?5too?5few?5guard?5bits?5?$CIneed?5@ 101310d8     libjasper:jpc_enc.obj
 0002:00003108       ??_C@_0BG@BOKDKHOO@cannot?5open?5tmp?5file?6?$AA@ 10131108     libjasper:jpc_enc.obj
 0002:00003120       ??_C@_0BJ@ICJDOHDP@cannot?5write?5SOT?5marker?6?$AA@ 10131120     libjasper:jpc_enc.obj
 0002:0000313c       ??_C@_0BJ@KFDNGGNH@cannot?5write?5SOD?5marker?6?$AA@ 1013113c     libjasper:jpc_enc.obj
 0002:00003158       ??_C@_0P@OLNFEIFA@dotile?5failed?6?$AA@ 10131158     libjasper:jpc_enc.obj
 0002:00003168       ??_C@_0O@BFOFHJDE@lyrno?5?$DN?5?$CF02d?6?$AA@ 10131168     libjasper:jpc_enc.obj
 0002:00003178       ??_C@_0FD@PCLEIINM@lyrno?$DN?$CF02d?5cmptno?$DN?$CF02d?5rlvlno?$DN?$CF0@ 10131178     libjasper:jpc_enc.obj
 0002:000031cc       ??_C@_0CD@GLIKLCKD@min?5rdslope?5?$DN?5?$CFf?5max?5rdslope?5?$DN?5?$CF@ 101311cc     libjasper:jpc_enc.obj
 0002:000031f0       ??_C@_0CI@HGJOHCHI@maxlen?$DN?$CF08ld?5actuallen?$DN?$CF08ld?5thr@ 101311f0     libjasper:jpc_enc.obj
 0002:00003218       ??_C@_0CA@JACADENN@warning?3?5empty?5layer?5generated?6?$AA@ 10131218     libjasper:jpc_enc.obj
 0002:00003238       ??_C@_0BK@BPGEOEKO@success?5?$CFd?5goodthresh?5?$CFf?6?$AA@ 10131238     libjasper:jpc_enc.obj
 0002:00003254       ??_C@_0BJ@DCKAFDKE@?5?5tcmpt?5?$CF5d?5?$CF5d?5?$CF5d?5?$CF5d?6?$AA@ 10131254     libjasper:jpc_enc.obj
 0002:00003270       ??_C@_0BK@EAHHHLAC@?5?5?5?5rlvl?5?$CF5d?5?$CF5d?5?$CF5d?5?$CF5d?6?$AA@ 10131270     libjasper:jpc_enc.obj
 0002:0000328c       ??_C@_0BM@JACHODND@?5?5?5?5?5?5band?5?$CF5d?5?$CF5d?5?$CF5d?5?$CF5d?6?$AA@ 1013128c     libjasper:jpc_enc.obj
 0002:000032a8       ??_C@_0CH@ONMGAAFL@?5?5?5?5?5?5?5?5prc?5?$CF5d?5?$CF5d?5?$CF5d?5?$CF5d?5?$CI?$CF5d@ 101312a8     libjasper:jpc_enc.obj
 0002:000032d0       ??_C@_0BP@KMINEGMF@?5?5?5?5?5?5?5?5?5cblk?5?$CF5d?5?$CF5d?5?$CF5d?5?$CF5d?6?$AA@ 101312d0     libjasper:jpc_enc.obj
 0002:000032f0       ??_C@_07FJJMCHHF@maxpkts?$AA@ 101312f0     libjasper:jpc_dec.obj
 0002:000032f8       ??_C@_07CBBLOFA@maxlyrs?$AA@ 101312f8     libjasper:jpc_dec.obj
 0002:00003300       ??_C@_0BL@MMJACADA@cannot?5get?5marker?5segment?6?$AA@ 10131300     libjasper:jpc_dec.obj
 0002:0000331c       ??_C@_0CA@FDNLPJFF@unexpected?5marker?5segment?5type?6?$AA@ 1013131c     libjasper:jpc_dec.obj
 0002:0000333c       ??_C@_0CL@MGGKPNCP@invalid?5tile?5number?5in?5SOT?5marke@ 1013133c     libjasper:jpc_dec.obj
 0002:00003368       ??_C@_0BL@CLDBCEKE@jpc_dec_decodepkts?5failed?6?$AA@ 10131368     libjasper:jpc_dec.obj
 0002:00003384       ??_C@_0DA@JOKDCPDF@warning?3?5ignoring?5trailing?5garba@ 10131384     libjasper:jpc_dec.obj
 0002:000033b4       ??_C@_0M@HJKNAOPH@read?5error?6?$AA@ 101313b4     libjasper:jpc_dec.obj
 0002:000033c0       ??_C@_0CL@GAEKEDPJ@warning?3?5not?5enough?5tile?5data?5?$CI?$CF@ 101313c0     libjasper:jpc_dec.obj
 0002:000033ec       ??_C@_0BM@MJLBGBLJ@jpc_dec_decodecblks?5failed?6?$AA@ 101313ec     libjasper:jpc_dec.obj
 0002:00003408       ??_C@_0BI@ELJMMMMC@write?5component?5failed?6?$AA@ 10131408     libjasper:jpc_dec.obj
 0002:00003420       ??_C@_0DA@NNOFECPJ@invalid?5component?5number?5in?5COC?5@ 10131420     libjasper:jpc_dec.obj
 0002:00003450       ??_C@_0DA@KCEOAAPE@invalid?5component?5number?5in?5RGN?5@ 10131450     libjasper:jpc_dec.obj
 0002:00003480       ??_C@_0DA@BHCEIPDH@invalid?5component?5number?5in?5QCC?5@ 10131480     libjasper:jpc_dec.obj
 0002:000034b0       ??_C@_0CK@EKKDIJFN@warning?3?5ignoring?5unknown?5marker@ 101314b0     libjasper:jpc_dec.obj
 0002:000034dc       ??_C@_0CH@FFIPEJEJ@warning?3?5possibly?5corrupt?5code?5s@ 101314dc     libjasper:jpc_dec.obj
 0002:00003504       ??_C@_0BF@BALOJPJO@RESOLUTION?5LEVEL?5?$CFd?6?$AA@ 10131504     libjasper:jpc_dec.obj
 0002:0000351c       ??_C@_0DD@KGBKPLCO@xs?5?$DN?$CFd?0?5ys?5?$DN?5?$CFd?0?5xe?5?$DN?5?$CFd?0?5ye?5?$DN?5?$CF@ 1013151c     libjasper:jpc_dec.obj
 0002:00003550       ??_C@_08GPEELPID@BAND?5?$CFd?6?$AA@ 10131550     libjasper:jpc_dec.obj
 0002:0000355c       ??_C@_0BF@BEAAFEFM@CODE?5BLOCK?5GROUP?5?$CFd?6?$AA@ 1013155c     libjasper:jpc_dec.obj
 0002:00003574       ??_C@_0P@BGNLIDOL@CODE?5BLOCK?5?$CFd?6?$AA@ 10131574     libjasper:jpc_dec.obj
 0002:00003584       ??_C@_0CH@LGGAIJM@warning?3?5ignoring?5BMP?5encoder?5op@ 10131584     libjasper:bmp_enc.obj
 0002:000035ac       ??_C@_0BL@BADJPOOD@warning?3?5inaccurate?5color?6?$AA@ 101315ac     libjasper:bmp_enc.obj
 0002:000035c8       ??_C@_0DA@DIIDFEO@error?3?5BMP?5format?5does?5not?5suppo@ 101315c8     libjasper:bmp_enc.obj
 0002:000035f8       ??_C@_0CA@CBAIOHGG@error?3?5missing?5color?5component?6?$AA@ 101315f8     libjasper:bmp_enc.obj
 0002:00003618       ??_C@_0EJ@KGJDPAI@The?5BMP?5format?5cannot?5be?5used?5to@ 10131618     libjasper:bmp_enc.obj
 0002:00003664       ??_C@_0CM@MBNAHOKC@no?5palettized?5image?5support?5for?5@ 10131664     libjasper:bmp_enc.obj
 0002:00003690       ??_C@_0CH@DAOCKBDC@warning?3?5ignoring?5RAS?5encoder?5op@ 10131690     libjasper:ras_enc.obj
 0002:000036b8       ??_C@_0CA@IAONDDJP@error?3?5unsupported?5color?5space?6?$AA@ 101316b8     libjasper:ras_enc.obj
 0002:000036d8       ??_C@_0EJ@KLGOEHLA@The?5RAS?5format?5cannot?5be?5used?5to@ 101316d8     libjasper:ras_enc.obj
 0002:00003724       ??_C@_07DADGLCBN@quality?$AA@ 10131724     libjasper:jpg_enc.obj
 0002:0000372c       ??_C@_0DA@NONJGBND@error?3?5JPG?5format?5does?5not?5suppo@ 1013172c     libjasper:jpg_enc.obj
 0002:00003760       ??_C@_0ED@BLIABODC@error?3?5The?5JPG?5encoder?5cannot?5ha@ 10131760     libjasper:jpg_enc.obj
 0002:000037a4       ??_C@_02DPKJAMEF@?$CFd?$AA@ 101317a4     libjasper:jpg_enc.obj
 0002:000037a8       ??_C@_0CD@DJFIEKJ@ignoring?5bad?5quality?5specifier?5?$CF@ 101317a8     libjasper:jpg_enc.obj
 0002:000037cc       ??_C@_04PJOLNDGD@data?$AA@ 101317cc     libjasper:mif_cod.obj
 0002:000037d4       ??_C@_04GCIGBFMO@sgnd?$AA@ 101317d4     libjasper:mif_cod.obj
 0002:000037dc       ??_C@_04BPFLBJF@prec?$AA@  101317dc     libjasper:mif_cod.obj
 0002:000037e4       ??_C@_08HBHIANPP@samppery?$AA@ 101317e4     libjasper:mif_cod.obj
 0002:000037f0       ??_C@_08GIGDDMLO@sampperx?$AA@ 101317f0     libjasper:mif_cod.obj
 0002:000037fc       ??_C@_06LNLHEAAG@height?$AA@ 101317fc     libjasper:mif_cod.obj
 0002:00003804       ??_C@_05IGKADHGO@width?$AA@ 10131804     libjasper:mif_cod.obj
 0002:0000380c       ??_C@_03IFNGOHND@tly?$AA@  1013180c     libjasper:mif_cod.obj
 0002:00003810       ??_C@_03JMMNNGJC@tlx?$AA@  10131810     libjasper:mif_cod.obj
 0002:00003814       ??_C@_03JBJLGPFL@end?$AA@  10131814     libjasper:mif_cod.obj
 0002:00003818       ??_C@_09NILLCKIE@component?$AA@ 10131818     libjasper:mif_cod.obj
 0002:00003824       ??_C@_02JDPG@rb?$AA@       10131824     libjasper:mif_cod.obj
 0002:00003828       ??_C@_0CH@LNFNOJFG@warning?3?5ignoring?5unsupported?5op@ 10131828     libjasper:mif_cod.obj
 0002:00003850       ??_C@_0BN@DGDPIHFA@error?3?5PNM?5support?5required?6?$AA@ 10131850     libjasper:mif_cod.obj
 0002:00003870       ??_C@_0BG@MAAPIJD@error?3?5bad?5signature?6?$AA@ 10131870     libjasper:mif_cod.obj
 0002:00003888       ??_C@_0FJ@IBDEEEIJ@component?5tlx?$DN?$CFld?5tly?$DN?$CFld?5samppe@ 10131888     libjasper:mif_cod.obj
 0002:000038e4       ??_C@_08OOFDBPIK@?5data?$DN?$CFs?$AA@ 101318e4     libjasper:mif_cod.obj
 0002:000038f0       ??_C@_04GMHPLJJ@end?6?$AA@ 101318f0     libjasper:mif_cod.obj
 0002:000038f8       ??_C@_0BL@HEDOHFFA@warning?3?5ignoring?5options?6?$AA@ 101318f8     libjasper:pnm_dec.obj
 0002:00003914       ??_C@_04CIMGMMMG@text?$AA@ 10131914     libjasper:pnm_enc.obj
 0002:0000391c       ??_C@_0CH@CIMLEPEK@invalid?5PNM?5encoder?5options?5spec@ 1013191c     libjasper:pnm_enc.obj
 0002:00003948       ??_C@_0EJ@DELGLAON@The?5PNM?5format?5cannot?5be?5used?5to@ 10131948     libjasper:pnm_enc.obj
 0002:00003998       ??_C@_0FN@KHAPJCFG@warning?3?5support?5for?5signed?5samp@ 10131998     libjasper:pnm_enc.obj
 0002:000039f8       ??_C@_0FO@LBCDGDCG@You?5may?5not?5be?5able?5to?5read?5or?5c@ 101319f8     libjasper:pnm_enc.obj
 0002:00003a58       ??_C@_0O@CCFLLFOG@?6?$CFlu?5?$CFlu?6?$CFld?6?$AA@ 10131a58     libjasper:pnm_enc.obj
 0002:00003a68       ??_C@_05HAJOJDCN@?$CFs?$CFld?$AA@ 10131a68     libjasper:pnm_enc.obj
 0002:00003a70       ??_C@_02DKCKIIND@?$CFs?$AA@ 10131a70     libjasper:pnm_enc.obj
 0002:00003a74       ??_C@_0CH@NGBLOIGC@warning?3?5ignoring?5BMP?5decoder?5op@ 10131a74     libjasper:bmp_dec.obj
 0002:00003aa0       ??_C@_0NM@DMIACCKE@THE?5BMP?5FORMAT?5IS?5NOT?5FULLY?5SUPP@ 10131aa0     libjasper:bmp_dec.obj
 0002:00003b7c       ??_C@_0BD@EMFPOPNC@cannot?5get?5header?6?$AA@ 10131b7c     libjasper:bmp_dec.obj
 0002:00003b90       ??_C@_0BB@INKGIFDE@cannot?5get?5info?6?$AA@ 10131b90     libjasper:bmp_dec.obj
 0002:00003ba4       ??_C@_0CB@POHJLDLI@error?3?5unsupported?5BMP?5encoding?6@ 10131ba4     libjasper:bmp_dec.obj
 0002:00003bc8       ??_C@_0CE@HFAGHGDL@error?3?5possibly?5bad?5bitmap?5offse@ 10131bc8     libjasper:bmp_dec.obj
 0002:00003bec       ??_C@_0CD@IMBLLKCJ@skipping?5unknown?5data?5in?5BMP?5fil@ 10131bec     libjasper:bmp_dec.obj
 0002:00003c10       ??_C@_0BK@OFIAIIGB@unsupported?5BMP?5encoding?6?$AA@ 10131c10     libjasper:bmp_dec.obj
 0002:00003c2c       ??_C@_0CH@ONJPEBMM@warning?3?5ignoring?5RAS?5decoder?5op@ 10131c2c     libjasper:ras_dec.obj
 0002:00003c54       ??_C@_0CK@BGBBJMEC@error?3?5RLE?5encoding?5method?5not?5s@ 10131c54     libjasper:ras_dec.obj
 0002:00003c80       ??_C@_0CG@CMCBGIGG@error?3?5encoding?5method?5not?5suppo@ 10131c80     libjasper:ras_dec.obj
 0002:00003ca8       ??_C@_0DA@ECMCMCKJ@warning?3?5palettized?5images?5not?5f@ 10131ca8     libjasper:ras_dec.obj
 0002:00003cd8       ??_C@_07NFANNNEC@UNKNOWN?$AA@ 10131cd8     libjasper:jpc_cs.obj
 0002:00003ce0       ??_C@_03GJALCMIF@COM?$AA@  10131ce0     libjasper:jpc_cs.obj
 0002:00003ce4       ??_C@_03IHBKPECM@CRG?$AA@  10131ce4     libjasper:jpc_cs.obj
 0002:00003ce8       ??_C@_03CGGNGDFB@EPH?$AA@  10131ce8     libjasper:jpc_cs.obj
 0002:00003cec       ??_C@_03MGHOBHAG@SOP?$AA@  10131cec     libjasper:jpc_cs.obj
 0002:00003cf0       ??_C@_03KHNNJJKB@PPT?$AA@  10131cf0     libjasper:jpc_cs.obj
 0002:00003cf4       ??_C@_03DMNNDALJ@PPM?$AA@  10131cf4     libjasper:jpc_cs.obj
 0002:00003cf8       ??_C@_03CJOBGKKN@PLM?$AA@  10131cf8     libjasper:jpc_cs.obj
 0002:00003cfc       ??_C@_03KGIDPNPK@TLM?$AA@  10131cfc     libjasper:jpc_cs.obj
 0002:00003d00       ??_C@_03LFCEPJHK@POC?$AA@  10131d00     libjasper:jpc_cs.obj
 0002:00003d04       ??_C@_03EICGHHL@QCC?$AA@   10131d04     libjasper:jpc_cs.obj
 0002:00003d08       ??_C@_03ELMDPBLM@QCD?$AA@  10131d08     libjasper:jpc_cs.obj
 0002:00003d0c       ??_C@_03KEJABOAE@RGN?$AA@  10131d0c     libjasper:jpc_cs.obj
 0002:00003d10       ??_C@_03PHIIABAL@COC?$AA@  10131d10     libjasper:jpc_cs.obj
 0002:00003d14       ??_C@_03LIMJJHMM@COD?$AA@  10131d14     libjasper:jpc_cs.obj
 0002:00003d18       ??_C@_03DIBMIDDO@SIZ?$AA@  10131d18     libjasper:jpc_cs.obj
 0002:00003d1c       ??_C@_03NCODFONH@EOC?$AA@  10131d1c     libjasper:jpc_cs.obj
 0002:00003d20       ??_C@_03OINAMAFD@SOD?$AA@  10131d20     libjasper:jpc_cs.obj
 0002:00003d24       ??_C@_03KCBCNCAC@SOT?$AA@  10131d24     libjasper:jpc_cs.obj
 0002:00003d28       ??_C@_03KHJBFGJE@SOC?$AA@  10131d28     libjasper:jpc_cs.obj
 0002:00003d2c       ??_C@_0DJ@BBGCCJDH@warning?3?5trailing?5garbage?5in?5mar@ 10131d2c     libjasper:jpc_cs.obj
 0002:00003d68       ??_C@_0BE@JKPBDEKP@type?5?$DN?50x?$CF04x?5?$CI?$CFs?$CJ?$DL?$AA@ 10131d68     libjasper:jpc_cs.obj
 0002:00003d7c       ??_C@_0L@FILCICHL@?5len?5?$DN?5?$CFd?$DL?$AA@ 10131d7c     libjasper:jpc_cs.obj
 0002:00003d88       ??_C@_0DD@BPCANCBK@tileno?5?$DN?5?$CFd?$DL?5len?5?$DN?5?$CFd?$DL?5partno?5?$DN?5@ 10131d88     libjasper:jpc_cs.obj
 0002:00003dbc       ??_C@_0BA@MOALLEOH@caps?5?$DN?50x?$CF02x?$DL?6?$AA@ 10131dbc     libjasper:jpc_cs.obj
 0002:00003dcc       ??_C@_0DA@FOMPOGDL@width?5?$DN?5?$CFd?$DL?5height?5?$DN?5?$CFd?$DL?5xoff?5?$DN?5@ 10131dcc     libjasper:jpc_cs.obj
 0002:00003e00       ??_C@_0EA@NBPKNCBN@tilewidth?5?$DN?5?$CFd?$DL?5tileheight?5?$DN?5?$CFd?$DL@ 10131e00     libjasper:jpc_cs.obj
 0002:00003e40       ??_C@_0DO@DCLCLKAI@prec?$FL?$CFd?$FN?5?$DN?5?$CFd?$DL?5sgnd?$FL?$CFd?$FN?5?$DN?5?$CFd?$DL?5hs@ 10131e40     libjasper:jpc_cs.obj
 0002:00003e80       ??_C@_0BA@BBMHDAE@csty?5?$DN?50x?$CF02x?$DL?6?$AA@ 10131e80     libjasper:jpc_cs.obj
 0002:00003e90       ??_C@_0CK@LCHKMLOD@numdlvls?5?$DN?5?$CFd?$DL?5qmfbid?5?$DN?5?$CFd?$DL?5mctr@ 10131e90     libjasper:jpc_cs.obj
 0002:00003ebc       ??_C@_0BJ@IAHNDOIK@prg?5?$DN?5?$CFd?$DL?5numlyrs?5?$DN?5?$CFd?$DL?6?$AA@ 10131ebc     libjasper:jpc_cs.obj
 0002:00003ed8       ??_C@_0DK@JHEABCKF@cblkwidthval?5?$DN?5?$CFd?$DL?5cblkheightval@ 10131ed8     libjasper:jpc_cs.obj
 0002:00003f14       ??_C@_0CH@IALOBCMF@prcwidth?$FL?$CFd?$FN?5?$DN?5?$CFd?0?5prcheight?$FL?$CFd?$FN@ 10131f14     libjasper:jpc_cs.obj
 0002:00003f3c       ??_C@_0CM@NPEMPNML@compno?5?$DN?5?$CFd?$DL?5csty?5?$DN?50x?$CF02x?$DL?5numd@ 10131f3c     libjasper:jpc_cs.obj
 0002:00003f68       ??_C@_0EH@HBCCBHFM@cblkwidthval?5?$DN?5?$CFd?$DL?5cblkheightval@ 10131f68     libjasper:jpc_cs.obj
 0002:00003fb0       ??_C@_0CJ@GIHDLMHI@compno?5?$DN?5?$CFd?$DL?5roisty?5?$DN?5?$CFd?$DL?5roishi@ 10131fb0     libjasper:jpc_cs.obj
 0002:00003fdc       ??_C@_0CP@JIHPNOBP@qntsty?5?$DN?5?$CFd?$DL?5numguard?5?$DN?5?$CFd?$DL?5nums@ 10131fdc     libjasper:jpc_cs.obj
 0002:0000400c       ??_C@_0CH@GKJFKNLA@expn?$FL?$CFd?$FN?5?$DN?50x?$CF04x?$DL?5mant?$FL?$CFd?$FN?5?$DN?50x@ 1013200c     libjasper:jpc_cs.obj
 0002:00004034       ??_C@_0DM@CLAKNCPJ@compno?5?$DN?5?$CFd?$DL?5qntsty?5?$DN?5?$CFd?$DL?5numgua@ 10132034     libjasper:jpc_cs.obj
 0002:00004070       ??_C@_0N@GMMGMEID@seqno?5?$DN?5?$CFd?$DL?6?$AA@ 10132070     libjasper:jpc_cs.obj
 0002:00004080       ??_C@_0BD@OBKIIFFE@ind?$DN?$CFd?$DL?5len?5?$DN?5?$CFd?$DL?6?$AA@ 10132080     libjasper:jpc_cs.obj
 0002:00004094       ??_C@_07KBDCOJNL@data?5?$DN?6?$AA@ 10132094     libjasper:jpc_cs.obj
 0002:0000409c       ??_C@_0O@DLCKKIKL@po?$FL?$CFd?$FN?5?$DN?5?$CFd?$DL?5?$AA@ 1013209c     libjasper:jpc_cs.obj
 0002:000040ac       ??_C@_0BL@HDOKIKLF@cs?$FL?$CFd?$FN?5?$DN?5?$CFd?$DL?5ce?$FL?$CFd?$FN?5?$DN?5?$CFd?$DL?5?$AA@ 101320ac     libjasper:jpc_cs.obj
 0002:000040c8       ??_C@_0BL@LIKPOHLL@rs?$FL?$CFd?$FN?5?$DN?5?$CFd?$DL?5re?$FL?$CFd?$FN?5?$DN?5?$CFd?$DL?5?$AA@ 101320c8     libjasper:jpc_cs.obj
 0002:000040e4       ??_C@_0N@HNDBLDBK@le?$FL?$CFd?$FN?5?$DN?5?$CFd?6?$AA@ 101320e4     libjasper:jpc_cs.obj
 0002:000040f4       ??_C@_0BO@IAPMEAGP@hoff?$FL?$CFd?$FN?5?$DN?5?$CFd?$DL?5voff?$FL?$CFd?$FN?5?$DN?5?$CFd?6?$AA@ 101320f4     libjasper:jpc_cs.obj
 0002:00004114       ??_C@_0N@JHJKJGCK@regid?5?$DN?5?$CFd?$DL?6?$AA@ 10132114     libjasper:jpc_cs.obj
 0002:00004124       ??_C@_07MOFJCFPD@data?5?$DN?5?$AA@ 10132124     libjasper:jpc_cs.obj
 0002:0000412c       ??_C@_05CNDJFPDP@?$CF02x?5?$AA@ 1013212c     libjasper:jpc_cs.obj
 0002:00004134       ??_C@_0BH@JEEFCDMI@error?3?5cannot?5get?5box?6?$AA@ 10132134     libjasper:jp2_dec.obj
 0002:0000414c       ??_C@_0CA@BEODLCJN@error?3?5expecting?5signature?5box?6?$AA@ 1013214c     libjasper:jp2_dec.obj
 0002:0000416c       ??_C@_0BI@GKIEJDBK@incorrect?5magic?5number?6?$AA@ 1013216c     libjasper:jp2_dec.obj
 0002:00004184       ??_C@_0BJ@LOBEBIOH@expecting?5file?5type?5box?6?$AA@ 10132184     libjasper:jp2_dec.obj
 0002:000041a0       ??_C@_0N@JPCKINFM@box?5type?5?$CFs?6?$AA@ 101321a0     libjasper:jp2_dec.obj
 0002:000041b0       ??_C@_0BN@LMLFFOJG@error?3?5no?5code?5stream?5found?6?$AA@ 101321b0     libjasper:jp2_dec.obj
 0002:000041d0       ??_C@_0CC@MJMLJIKK@error?3?5cannot?5decode?5code?5stream@ 101321d0     libjasper:jp2_dec.obj
 0002:000041f4       ??_C@_0BJ@NNGHJHPJ@error?3?5missing?5IHDR?5box?6?$AA@ 101321f4     libjasper:jp2_dec.obj
 0002:00004210       ??_C@_0CI@ONMKNHOF@warning?3?5number?5of?5components?5mi@ 10132210     libjasper:jp2_dec.obj
 0002:00004238       ??_C@_0BG@FJJMEMA@error?3?5no?5components?6?$AA@ 10132238     libjasper:jp2_dec.obj
 0002:00004250       ??_C@_0CH@HGPKEEGL@warning?3?5component?5data?5type?5mis@ 10132250     libjasper:jp2_dec.obj
 0002:00004278       ??_C@_0CF@NEEKPABM@error?3?5unsupported?5compression?5t@ 10132278     libjasper:jp2_dec.obj
 0002:000042a0       ??_C@_0BP@BLJHJAFJ@warning?3?5superfluous?5BPCC?5box?6?$AA@ 101322a0     libjasper:jp2_dec.obj
 0002:000042c0       ??_C@_0BE@OIIKIOH@error?3?5no?5COLR?5box?6?$AA@ 101322c0     libjasper:jp2_dec.obj
 0002:000042d4       ??_C@_0BF@PDDKPNND@ICC?5Profile?5CS?5?$CF08x?6?$AA@ 101322d4     libjasper:jp2_dec.obj
 0002:000042ec       ??_C@_0DD@NMIJMBHB@warning?3?5missing?5PCLR?5box?5or?5sup@ 101322ec     libjasper:jp2_dec.obj
 0002:00004320       ??_C@_0DD@DIDJNHIM@warning?3?5missing?5CMAP?5box?5or?5sup@ 10132320     libjasper:jp2_dec.obj
 0002:00004354       ??_C@_0CN@MLANOPFP@error?3?5invalid?5component?5number?5@ 10132354     libjasper:jp2_dec.obj
 0002:00004384       ??_C@_0BP@GKCLLINE@error?3?5invalid?5CMAP?5LUT?5index?6?$AA@ 10132384     libjasper:jp2_dec.obj
 0002:000043a4       ??_C@_0BC@LGBFGJLO@error?3?5no?5memory?6?$AA@ 101323a4     libjasper:jp2_dec.obj
 0002:000043b8       ??_C@_0BF@CIMKKIIM@?$CFs?6_jp2overhead?$DN?$CFlu?6?$AA@ 101323b8     libjasper:jp2_enc.obj
 0002:000043d0       ??_C@_04GJDJEMBE@?$CFc?$CFc?$AA@ 101323d0     libjasper:pgx_enc.obj
 0002:000043d8       ??_C@_01JOAMLHOP@?9?$AA@   101323d8     libjasper:pgx_enc.obj
 0002:000043dc       ??_C@_01MIFGBAGJ@?$CL?$AA@ 101323dc     libjasper:pgx_enc.obj
 0002:000043e0       ??_C@_02CEDADIHH@ML?$AA@   101323e0     libjasper:pgx_enc.obj
 0002:000043e4       ??_C@_02DMOJGDAB@LM?$AA@   101323e4     libjasper:pgx_enc.obj
 0002:000043e8       ??_C@_0BD@NBLJBMEE@?5?$CFs?5?$CFs?5?$CFd?5?$CFld?5?$CFld?6?$AA@ 101323e8     libjasper:pgx_enc.obj
 0002:000043fc       ??_C@_0BG@LNMIDGMJ@cannot?5get?5tab?5table?6?$AA@ 101323fc     libjasper:jas_icc.obj
 0002:00004414       ??_C@_0O@HBNAGKFI@?$CI?$CFf?0?5?$CFf?0?5?$CFf?$CJ?6?$AA@ 10132414     libjasper:jas_icc.obj
 0002:00004424       ??_C@_0BI@OMCMPLCO@number?5of?5entires?5?$DN?5?$CFd?6?$AA@ 10132424     libjasper:jas_icc.obj
 0002:0000443c       ??_C@_0M@ELAPLOAG@gamma?5?$DN?5?$CFf?6?$AA@ 1013243c     libjasper:jas_icc.obj
 0002:00004448       ??_C@_0BA@MFBPFBON@entry?$FL?$CFd?$FN?5?$DN?5?$CFf?6?$AA@ 10132448     libjasper:jas_icc.obj
 0002:00004458       ??_C@_0O@MJGCENHO@ascii?5?$DN?5?$CC?$CFs?$CC?6?$AA@ 10132458     libjasper:jas_icc.obj
 0002:00004468       ??_C@_0BN@BCMJLDHA@uclangcode?5?$DN?5?$CFd?$DL?5uclen?5?$DN?5?$CFd?6?$AA@ 10132468     libjasper:jas_icc.obj
 0002:00004488       ??_C@_0N@EMGCBAON@sccode?5?$DN?5?$CFd?6?$AA@ 10132488     libjasper:jas_icc.obj
 0002:00004498       ??_C@_0N@EPJOJHAO@maclen?5?$DN?5?$CFd?6?$AA@ 10132498     libjasper:jas_icc.obj
 0002:000044a8       ??_C@_0P@DKGJMBFO@string?5?$DN?5?$CC?$CFs?$CC?6?$AA@ 101324a8     libjasper:jas_icc.obj
 0002:000044b8       ??_C@_0CL@FEBJAGHP@numinchans?$DN?$CFd?0?5numoutchans?$DN?$CFd?0?5c@ 101324b8     libjasper:jas_icc.obj
 0002:000044e4       ??_C@_0O@HNPHNLEJ@e?$FL?$CFd?$FN?$FL?$CFd?$FN?$DN?$CFf?5?$AA@ 101324e4     libjasper:jas_icc.obj
 0002:000044f4       ??_C@_0CD@LKGBCAGH@numintabents?$DN?$CFd?0?5numouttabents?$DN?$CF@ 101324f4     libjasper:jas_icc.obj
 0002:00004518       ??_C@_05LIHPPKDI@?$CF04x?3?$AA@ 10132518     libjasper:jas_debug.obj
 0002:00004520       ??_C@_07MKMJELKO@1?4900?41?$AA@ 10132520     libjasper:jas_version.obj
 0002:00004528       ??_C@_0BM@OHDLGLL@missing?5SOP?5marker?5segment?6?$AA@ 10132528     libjasper:jpc_t2dec.obj
 0002:00004544       ??_C@_0BC@HLKJHPOG@alignment?5failed?6?$AA@ 10132544     libjasper:jpc_t2dec.obj
 0002:00004558       ??_C@_0BJ@MKHNIPNI@hdrlen?$DN?$CFlu?5bodylen?$DN?$CFlu?5?6?$AA@ 10132558     libjasper:jpc_t2dec.obj
 0002:00004574       ??_C@_0CB@GOENCEOG@cannot?5get?5?$CIEPH?$CJ?5marker?5segment?6@ 10132574     libjasper:jpc_t2dec.obj
 0002:00004598       ??_C@_0BM@DLJNPJL@missing?5EPH?5marker?5segment?6?$AA@ 10132598     libjasper:jpc_t2dec.obj
 0002:000045b4       ??_C@_0BK@GAGOGGPO@packet?5body?5offset?$DN?$CF06ld?6?$AA@ 101325b4     libjasper:jpc_t2dec.obj
 0002:000045d0       ??_C@_0DD@KMIMNIIO@warning?3?5stopping?5decode?5prematu@ 101325d0     libjasper:jpc_t2dec.obj
 0002:00004608       ??_C@_0EK@IHGIOANI@packet?5offset?$DN?$CF08ld?5prg?$DN?$CFd?5cmptn@ 10132608     libjasper:jpc_t2dec.obj
 0002:00004654       ??_C@_0BO@DEOHMKHM@warning?3?5corrupt?5code?5stream?6?$AA@ 10132654     libjasper:jpc_t1dec.obj
 0002:00004674       ??_C@_0CL@GJDLGCKL@coding?5pass?5failed?5passtype?$DN?$CFd?5s@ 10132674     libjasper:jpc_t1dec.obj
 0002:000046a0       ??_C@_0CL@NOBECBKM@warning?3?5bad?5termination?5pattern@ 101326a0     libjasper:jpc_t1dec.obj
 0002:000046cc       ??_C@_0CC@PDFGOJOB@warning?3?5bad?5segmentation?5symbol@ 101326cc     libjasper:jpc_t1dec.obj
 0002:000046f0       ??_C@_07NBCGADJA@Unknown?$AA@ 101326f0     libjasper:jp2_cod.obj
 0002:000046f8       ??_C@_03BBJMCFKE@URL?$AA@  101326f8     libjasper:jp2_cod.obj
 0002:000046fc       ??_C@_04KIMBKHGF@ULST?$AA@ 101326fc     libjasper:jp2_cod.obj
 0002:00004704       ??_C@_04PDBFBHKH@UINF?$AA@ 10132704     libjasper:jp2_cod.obj
 0002:0000470c       ??_C@_04NOKDILIH@UUID?$AA@ 1013270c     libjasper:jp2_cod.obj
 0002:00004714       ??_C@_03PEIMBJDE@XML?$AA@  10132714     libjasper:jp2_cod.obj
 0002:00004718       ??_C@_04OGMHICBK@JP2I?$AA@ 10132718     libjasper:jp2_cod.obj
 0002:00004720       ??_C@_04BMCIGKJA@JP2C?$AA@ 10132720     libjasper:jp2_cod.obj
 0002:00004728       ??_C@_04CNCLCGKO@RESD?$AA@ 10132728     libjasper:jp2_cod.obj
 0002:00004730       ??_C@_04GCGKLAGJ@RESC?$AA@ 10132730     libjasper:jp2_cod.obj
 0002:00004738       ??_C@_03FIHIKGHG@RES?$AA@  10132738     libjasper:jp2_cod.obj
 0002:0000473c       ??_C@_04OCIKECLJ@CDEF?$AA@ 1013273c     libjasper:jp2_cod.obj
 0002:00004744       ??_C@_04HJGCHLII@PCLR?$AA@ 10132744     libjasper:jp2_cod.obj
 0002:0000474c       ??_C@_04BEPECJGC@COLR?$AA@ 1013274c     libjasper:jp2_cod.obj
 0002:00004754       ??_C@_04HJGLCDDG@BPCC?$AA@ 10132754     libjasper:jp2_cod.obj
 0002:0000475c       ??_C@_04MNIAFIMC@IHDR?$AA@ 1013275c     libjasper:jp2_cod.obj
 0002:00004764       ??_C@_04PPNMLDFL@JP2H?$AA@ 10132764     libjasper:jp2_cod.obj
 0002:0000476c       ??_C@_04HDNHHFJF@FTYP?$AA@ 1013276c     libjasper:jp2_cod.obj
 0002:00004774       ??_C@_02MHAIHDKP@JP?$AA@   10132774     libjasper:jp2_cod.obj
 0002:00004778       ??_C@_0DA@OGAJEJEH@warning?3?5cannot?5handle?5large?564?9@ 10132778     libjasper:jp2_cod.obj
 0002:000047a8       ??_C@_0BG@ICGHGINA@cannot?5copy?5box?5data?6?$AA@ 101327a8     libjasper:jp2_cod.obj
 0002:000047c0       ??_C@_0BH@HDKHBKFG@cannot?5parse?5box?5data?6?$AA@ 101327c0     libjasper:jp2_cod.obj
 0002:000047d8       ??_C@_09KDEHKOFA@JP2?5box?3?5?$AA@ 101327d8     libjasper:jp2_cod.obj
 0002:000047e4       ??_C@_0CB@PMEPCPNJ@type?$DN?$CFc?$CFs?$CFc?5?$CI0x?$CF08x?$CJ?$DL?5length?$DN?$CFd?6@ 101327e4     libjasper:jp2_cod.obj
 0002:00004808       ??_C@_0BO@HPGGJNGC@method?$DN?$CFd?$DL?5pri?$DN?$CFd?$DL?5approx?$DN?$CFd?6?$AA@ 10132808     libjasper:jp2_cod.obj
 0002:00004828       ??_C@_08KIOACMHE@csid?$DN?$CFd?6?$AA@ 10132828     libjasper:jp2_cod.obj
 0002:00004834       ??_C@_0BO@JENLIJAN@channo?$DN?$CFd?$DL?5type?$DN?$CFd?$DL?5assoc?$DN?$CFd?6?$AA@ 10132834     libjasper:jp2_cod.obj
 0002:00004854       ??_C@_0P@JLHHKJJ@numchans?5?$DN?5?$CFd?6?$AA@ 10132854     libjasper:jp2_cod.obj
 0002:00004864       ??_C@_0BM@OHNACHPP@cmptno?$DN?$CFd?$DL?5map?$DN?$CFd?$DL?5pcol?$DN?$CFd?6?$AA@ 10132864     libjasper:jp2_cod.obj
 0002:00004880       ??_C@_0BJ@DNNAJPKD@numents?$DN?$CFd?$DL?5numchans?$DN?$CFd?6?$AA@ 10132880     libjasper:jp2_cod.obj
 0002:0000489c       ??_C@_0BA@COIDCLNE@LUT?$FL?$CFd?$FN?$FL?$CFd?$FN?$DN?$CFd?6?$AA@ 1013289c     libjasper:jp2_cod.obj
 0002:000048ac       ??_C@_09DLBHBLLC@mng_write?$AA@ 101328ac     libmng:libmng_hlapi.obj
 0002:000048b8       ??_C@_0BB@DJLJBFFO@mng_version_text?$AA@ 101328b8     libmng:libmng_hlapi.obj
 0002:000048cc       ??_C@_0P@NHNEOBIB@mng_version_so?$AA@ 101328cc     libmng:libmng_hlapi.obj
 0002:000048dc       ??_C@_0BE@CNCFMAAK@mng_version_release?$AA@ 101328dc     libmng:libmng_hlapi.obj
 0002:000048f0       ??_C@_0BC@BFMLCEBC@mng_version_minor?$AA@ 101328f0     libmng:libmng_hlapi.obj
 0002:00004904       ??_C@_0BC@KKNJPIIE@mng_version_major?$AA@ 10132904     libmng:libmng_hlapi.obj
 0002:00004918       ??_C@_0BA@JMKIJCID@mng_version_dll?$AA@ 10132918     libmng:libmng_hlapi.obj
 0002:00004928       ??_C@_0BB@OILGGIAM@mng_version_beta?$AA@ 10132928     libmng:libmng_hlapi.obj
 0002:0000493c       ??_C@_0BI@PAPEKPLN@mng_updatemngsimplicity?$AA@ 1013293c     libmng:libmng_hlapi.obj
 0002:00004954       ??_C@_0BE@DGLDOIJC@mng_updatemngheader?$AA@ 10132954     libmng:libmng_hlapi.obj
 0002:00004968       ??_C@_0O@KMGNGLBB@mng_trapevent?$AA@ 10132968     libmng:libmng_hlapi.obj
 0002:00004978       ??_C@_0BC@PLKABHJP@mng_supports_func?$AA@ 10132978     libmng:libmng_hlapi.obj
 0002:0000498c       ??_C@_0BD@GNEJPLNC@mng_status_writing?$AA@ 1013298c     libmng:libmng_hlapi.obj
 0002:000049a0       ??_C@_0BG@KEOLFICB@mng_status_timerbreak?$AA@ 101329a0     libmng:libmng_hlapi.obj
 0002:000049b8       ??_C@_0BI@COMPEBCL@mng_status_suspendbreak?$AA@ 101329b8     libmng:libmng_hlapi.obj
 0002:000049d0       ??_C@_0BI@FGADJGGL@mng_status_runningevent?$AA@ 101329d0     libmng:libmng_hlapi.obj
 0002:000049e8       ??_C@_0BD@NHFLHEKD@mng_status_running?$AA@ 101329e8     libmng:libmng_hlapi.obj
 0002:000049fc       ??_C@_0BD@LGDECBJ@mng_status_reading?$AA@ 101329fc     libmng:libmng_hlapi.obj
 0002:00004a10       ??_C@_0BB@KBELCJLE@mng_status_error?$AA@ 10132a10     libmng:libmng_hlapi.obj
 0002:00004a24       ??_C@_0BD@MGDOPFHM@mng_status_dynamic?$AA@ 10132a24     libmng:libmng_hlapi.obj
 0002:00004a38       ??_C@_0BG@HBNOCJOD@mng_status_displaying?$AA@ 10132a38     libmng:libmng_hlapi.obj
 0002:00004a50       ??_C@_0BE@CNONLNEH@mng_status_creating?$AA@ 10132a50     libmng:libmng_hlapi.obj
 0002:00004a64       ??_C@_0BE@HBHAMBEK@mng_setcb_writedata?$AA@ 10132a64     libmng:libmng_hlapi.obj
 0002:00004a78       ??_C@_0BE@BOFCCEJM@mng_setcb_traceproc?$AA@ 10132a78     libmng:libmng_hlapi.obj
 0002:00004a8c       ??_C@_0BD@DPMBKLGL@mng_setcb_settimer?$AA@ 10132a8c     libmng:libmng_hlapi.obj
 0002:00004aa0       ??_C@_0BG@FGFFPMLD@mng_setcb_releasedata?$AA@ 10132aa0     libmng:libmng_hlapi.obj
 0002:00004ab8       ??_C@_0BC@COJCLPJH@mng_setcb_refresh?$AA@ 10132ab8     libmng:libmng_hlapi.obj
 0002:00004acc       ??_C@_0BD@NAMHPNAG@mng_setcb_readdata?$AA@ 10132acc     libmng:libmng_hlapi.obj
 0002:00004ae0       ??_C@_0BJ@NBBFENF@mng_setcb_processunknown?$AA@ 10132ae0     libmng:libmng_hlapi.obj
 0002:00004afc       ??_C@_0BG@CFGGIBDE@mng_setcb_processtext?$AA@ 10132afc     libmng:libmng_hlapi.obj
 0002:00004b14       ??_C@_0BG@LDPBKNPK@mng_setcb_processterm?$AA@ 10132b14     libmng:libmng_hlapi.obj
 0002:00004b2c       ??_C@_0BG@FBGKGDJI@mng_setcb_processsrgb?$AA@ 10132b2c     libmng:libmng_hlapi.obj
 0002:00004b44       ??_C@_0BG@EOOCGDJJ@mng_setcb_processseek?$AA@ 10132b44     libmng:libmng_hlapi.obj
 0002:00004b5c       ??_C@_0BG@EBGDMEGJ@mng_setcb_processsave?$AA@ 10132b5c     libmng:libmng_hlapi.obj
 0002:00004b74       ??_C@_0BG@FBAKCMGF@mng_setcb_processneed?$AA@ 10132b74     libmng:libmng_hlapi.obj
 0002:00004b8c       ??_C@_0BG@BKPPLJFE@mng_setcb_processmend?$AA@ 10132b8c     libmng:libmng_hlapi.obj
 0002:00004ba4       ??_C@_0BG@OMGCAEEO@mng_setcb_processiccp?$AA@ 10132ba4     libmng:libmng_hlapi.obj
 0002:00004bbc       ??_C@_0BI@OPBHCDEO@mng_setcb_processheader?$AA@ 10132bbc     libmng:libmng_hlapi.obj
 0002:00004bd4       ??_C@_0BH@FJIFCBHF@mng_setcb_processgamma?$AA@ 10132bd4     libmng:libmng_hlapi.obj
 0002:00004bec       ??_C@_0BI@MODDBOBD@mng_setcb_processchroma?$AA@ 10132bec     libmng:libmng_hlapi.obj
 0002:00004c04       ??_C@_0BG@HCOMBANG@mng_setcb_processarow?$AA@ 10132c04     libmng:libmng_hlapi.obj
 0002:00004c1c       ??_C@_0BF@JFJJJACG@mng_setcb_openstream?$AA@ 10132c1c     libmng:libmng_hlapi.obj
 0002:00004c34       ??_C@_0BC@BEGFJDDI@mng_setcb_memfree?$AA@ 10132c34     libmng:libmng_hlapi.obj
 0002:00004c48       ??_C@_0BD@NEIMDGGO@mng_setcb_memalloc?$AA@ 10132c48     libmng:libmng_hlapi.obj
 0002:00004c5c       ??_C@_0BH@OKJFJHEG@mng_setcb_gettickcount?$AA@ 10132c5c     libmng:libmng_hlapi.obj
 0002:00004c74       ??_C@_0BI@HCJIEOE@mng_setcb_getcanvasline?$AA@ 10132c74     libmng:libmng_hlapi.obj
 0002:00004c8c       ??_C@_0BG@NLOCDNLG@mng_setcb_getbkgdline?$AA@ 10132c8c     libmng:libmng_hlapi.obj
 0002:00004ca4       ??_C@_0BH@OBCHKEBM@mng_setcb_getalphaline?$AA@ 10132ca4     libmng:libmng_hlapi.obj
 0002:00004cbc       ??_C@_0BE@PNHJKANF@mng_setcb_errorproc?$AA@ 10132cbc     libmng:libmng_hlapi.obj
 0002:00004cd0       ??_C@_0BG@BEBCOHHL@mng_setcb_closestream?$AA@ 10132cd0     libmng:libmng_hlapi.obj
 0002:00004ce8       ??_C@_0BF@ICEHGLMP@mng_set_viewgammaint?$AA@ 10132ce8     libmng:libmng_hlapi.obj
 0002:00004d00       ??_C@_0BC@BHGBGIHI@mng_set_viewgamma?$AA@ 10132d00     libmng:libmng_hlapi.obj
 0002:00004d14       ??_C@_0BB@JALKEHOG@mng_set_userdata?$AA@ 10132d14     libmng:libmng_hlapi.obj
 0002:00004d28       ??_C@_0BA@EJCDMPPG@mng_set_usebkgd?$AA@ 10132d28     libmng:libmng_hlapi.obj
 0002:00004d38       ??_C@_0BH@BKEBBKLE@mng_set_suspensionmode?$AA@ 10132d38     libmng:libmng_hlapi.obj
 0002:00004d50       ??_C@_0BE@MJOPGDKJ@mng_set_storechunks?$AA@ 10132d50     libmng:libmng_hlapi.obj
 0002:00004d64       ??_C@_0BF@BBBMCGEI@mng_set_srgbprofile2?$AA@ 10132d64     libmng:libmng_hlapi.obj
 0002:00004d7c       ??_C@_0BE@NFPKEFFL@mng_set_srgbprofile?$AA@ 10132d7c     libmng:libmng_hlapi.obj
 0002:00004d90       ??_C@_0BF@HDLDDPBF@mng_set_srgbimplicit?$AA@ 10132d90     libmng:libmng_hlapi.obj
 0002:00004da8       ??_C@_0N@JIAKNLGI@mng_set_srgb?$AA@ 10132da8     libmng:libmng_hlapi.obj
 0002:00004db8       ??_C@_0O@JHOGMAHM@mng_set_speed?$AA@ 10132db8     libmng:libmng_hlapi.obj
 0002:00004dc8       ??_C@_0BG@MGOKFDAM@mng_set_sectionbreaks?$AA@ 10132dc8     libmng:libmng_hlapi.obj
 0002:00004de0       ??_C@_0BD@CACIFJBH@mng_set_outputsrgb?$AA@ 10132de0     libmng:libmng_hlapi.obj
 0002:00004df4       ??_C@_0BH@BPNNMEPC@mng_set_outputprofile2?$AA@ 10132df4     libmng:libmng_hlapi.obj
 0002:00004e0c       ??_C@_0BG@MPJAMNFD@mng_set_outputprofile?$AA@ 10132e0c     libmng:libmng_hlapi.obj
 0002:00004e24       ??_C@_0BH@HGAENKDL@mng_set_maxcanvaswidth?$AA@ 10132e24     libmng:libmng_hlapi.obj
 0002:00004e3c       ??_C@_0BG@CLBDEJIA@mng_set_maxcanvassize?$AA@ 10132e3c     libmng:libmng_hlapi.obj
 0002:00004e54       ??_C@_0BI@KGEGEBJA@mng_set_maxcanvasheight?$AA@ 10132e54     libmng:libmng_hlapi.obj
 0002:00004e6c       ??_C@_0BG@NNKCICOA@mng_set_doprogressive?$AA@ 10132e6c     libmng:libmng_hlapi.obj
 0002:00004e84       ??_C@_0BI@CJNAHOMD@mng_set_displaygammaint?$AA@ 10132e84     libmng:libmng_hlapi.obj
 0002:00004e9c       ??_C@_0BF@PIENKHND@mng_set_displaygamma?$AA@ 10132e9c     libmng:libmng_hlapi.obj
 0002:00004eb4       ??_C@_0BI@CGBJALNO@mng_set_dfltimggammaint?$AA@ 10132eb4     libmng:libmng_hlapi.obj
 0002:00004ecc       ??_C@_0BF@JEOFBPEG@mng_set_dfltimggamma?$AA@ 10132ecc     libmng:libmng_hlapi.obj
 0002:00004ee4       ??_C@_0BE@MLIEFJEG@mng_set_canvasstyle?$AA@ 10132ee4     libmng:libmng_hlapi.obj
 0002:00004ef8       ??_C@_0BG@IKGKMGAG@mng_set_cacheplayback?$AA@ 10132ef8     libmng:libmng_hlapi.obj
 0002:00004f10       ??_C@_0BC@IJFDNHMG@mng_set_bkgdstyle?$AA@ 10132f10     libmng:libmng_hlapi.obj
 0002:00004f24       ??_C@_0BA@NFJLEGD@mng_set_bgcolor?$AA@ 10132f24     libmng:libmng_hlapi.obj
 0002:00004f34       ??_C@_0BA@GFEDGIHM@mng_readdisplay?$AA@ 10132f34     libmng:libmng_hlapi.obj
 0002:00004f44       ??_C@_0BA@IIGOMIBJ@mng_read_resume?$AA@ 10132f44     libmng:libmng_hlapi.obj
 0002:00004f54       ??_C@_0BB@EKAICKCA@mng_read_pushsig?$AA@ 10132f54     libmng:libmng_hlapi.obj
 0002:00004f68       ??_C@_0BC@EONGAMFA@mng_read_pushdata?$AA@ 10132f68     libmng:libmng_hlapi.obj
 0002:00004f7c       ??_C@_0BD@EONJEHAF@mng_read_pushchunk?$AA@ 10132f7c     libmng:libmng_hlapi.obj
 0002:00004f90       ??_C@_08FBMEMEI@mng_read?$AA@ 10132f90     libmng:libmng_hlapi.obj
 0002:00004f9c       ??_C@_09MIIDJMDP@mng_reset?$AA@ 10132f9c     libmng:libmng_hlapi.obj
 0002:00004fa8       ??_C@_0BE@FHCEFNPH@mng_putimgdata_jhdr?$AA@ 10132fa8     libmng:libmng_hlapi.obj
 0002:00004fbc       ??_C@_0BE@BAIECHCH@mng_putimgdata_ihdr?$AA@ 10132fbc     libmng:libmng_hlapi.obj
 0002:00004fd0       ??_C@_0BC@IMKAGELJ@mng_putchunk_ztxt?$AA@ 10132fd0     libmng:libmng_hlapi.obj
 0002:00004fe4       ??_C@_0BE@CBEFGIDE@mng_putchunk_unkown?$AA@ 10132fe4     libmng:libmng_hlapi.obj
 0002:00004ff8       ??_C@_0BC@EBBBMMAB@mng_putchunk_trns?$AA@ 10132ff8     libmng:libmng_hlapi.obj
 0002:0000500c       ??_C@_0BC@NINHBHBB@mng_putchunk_time?$AA@ 1013300c     libmng:libmng_hlapi.obj
 0002:00005020       ??_C@_0BC@NLDFOKCC@mng_putchunk_text?$AA@ 10133020     libmng:libmng_hlapi.obj
 0002:00005034       ??_C@_0BC@ENKCMGOM@mng_putchunk_term?$AA@ 10133034     libmng:libmng_hlapi.obj
 0002:00005048       ??_C@_0BC@KPDJAIIO@mng_putchunk_srgb?$AA@ 10133048     libmng:libmng_hlapi.obj
 0002:0000505c       ??_C@_0BC@BFPNJKDD@mng_putchunk_splt?$AA@ 1013305c     libmng:libmng_hlapi.obj
 0002:00005070       ??_C@_0BC@KJDLAINJ@mng_putchunk_show?$AA@ 10133070     libmng:libmng_hlapi.obj
 0002:00005084       ??_C@_0BC@LALBAIIP@mng_putchunk_seek?$AA@ 10133084     libmng:libmng_hlapi.obj
 0002:00005098       ??_C@_0BC@OJCGMHMM@mng_putchunk_sbit?$AA@ 10133098     libmng:libmng_hlapi.obj
 0002:000050ac       ??_C@_0BI@NAFJHBAO@mng_putchunk_save_entry?$AA@ 101330ac     libmng:libmng_hlapi.obj
 0002:000050c4       ??_C@_0BC@LPDAKPHP@mng_putchunk_save?$AA@ 101330c4     libmng:libmng_hlapi.obj
 0002:000050d8       ??_C@_0BC@GBBCDPCJ@mng_putchunk_prom?$AA@ 101330d8     libmng:libmng_hlapi.obj
 0002:000050ec       ??_C@_0BI@ICIAEID@mng_putchunk_pplt_entry?$AA@ 101330ec     libmng:libmng_hlapi.obj
 0002:00005104       ??_C@_0BC@FCFNOAOD@mng_putchunk_pplt?$AA@ 10133104     libmng:libmng_hlapi.obj
 0002:00005118       ??_C@_0BC@JHONJBM@mng_putchunk_plte?$AA@ 10133118     libmng:libmng_hlapi.obj
 0002:0000512c       ??_C@_0BC@JCFMGIMP@mng_putchunk_phys?$AA@ 1013312c     libmng:libmng_hlapi.obj
 0002:00005140       ??_C@_0BC@LMPCLPJK@mng_putchunk_phyg?$AA@ 10133140     libmng:libmng_hlapi.obj
 0002:00005154       ??_C@_0BG@BMLDCDBH@mng_putchunk_past_src?$AA@ 10133154     libmng:libmng_hlapi.obj
 0002:0000516c       ??_C@_0BC@KNICDEFE@mng_putchunk_past?$AA@ 1013316c     libmng:libmng_hlapi.obj
 0002:00005180       ??_C@_0BI@EMGEEPCM@mng_putchunk_ordr_entry?$AA@ 10133180     libmng:libmng_hlapi.obj
 0002:00005198       ??_C@_0BC@ECKNNOAF@mng_putchunk_ordr?$AA@ 10133198     libmng:libmng_hlapi.obj
 0002:000051ac       ??_C@_0BC@KPFJEHHD@mng_putchunk_need?$AA@ 101331ac     libmng:libmng_hlapi.obj
 0002:000051c0       ??_C@_0BC@IADPPBKP@mng_putchunk_move?$AA@ 101331c0     libmng:libmng_hlapi.obj
 0002:000051d4       ??_C@_0BC@HMJDKJO@mng_putchunk_mhdr?$AA@ 101331d4     libmng:libmng_hlapi.obj
 0002:000051e8       ??_C@_0BC@OEKMNCEC@mng_putchunk_mend?$AA@ 101331e8     libmng:libmng_hlapi.obj
 0002:000051fc       ??_C@_0BC@JOPAJGBA@mng_putchunk_magn?$AA@ 101331fc     libmng:libmng_hlapi.obj
 0002:00005210       ??_C@_0BC@JJBNKGPE@mng_putchunk_loop?$AA@ 10133210     libmng:libmng_hlapi.obj
 0002:00005224       ??_C@_0BC@BAFDOKF@mng_putchunk_jsep?$AA@ 10133224     libmng:libmng_hlapi.obj
 0002:00005238       ??_C@_0BC@LFOJOGIO@mng_putchunk_jhdr?$AA@ 10133238     libmng:libmng_hlapi.obj
 0002:0000524c       ??_C@_0BC@KPKODMFL@mng_putchunk_jdat?$AA@ 1013324c     libmng:libmng_hlapi.obj
 0002:00005260       ??_C@_0BC@JIBLNKEP@mng_putchunk_jdaa?$AA@ 10133260     libmng:libmng_hlapi.obj
 0002:00005274       ??_C@_0BC@KLOAIJOL@mng_putchunk_itxt?$AA@ 10133274     libmng:libmng_hlapi.obj
 0002:00005288       ??_C@_0BC@FNMGIAOM@mng_putchunk_ipng?$AA@ 10133288     libmng:libmng_hlapi.obj
 0002:0000529c       ??_C@_0BC@GCGCDHBH@mng_putchunk_ijng?$AA@ 1013329c     libmng:libmng_hlapi.obj
 0002:000052b0       ??_C@_0BC@PCEJJMFO@mng_putchunk_ihdr?$AA@ 101332b0     libmng:libmng_hlapi.obj
 0002:000052c4       ??_C@_0BC@BBCMHEIC@mng_putchunk_iend?$AA@ 101332c4     libmng:libmng_hlapi.obj
 0002:000052d8       ??_C@_0BC@OIAOEGIL@mng_putchunk_idat?$AA@ 101332d8     libmng:libmng_hlapi.obj
 0002:000052ec       ??_C@_0BC@BCDBGPFI@mng_putchunk_iccp?$AA@ 101332ec     libmng:libmng_hlapi.obj
 0002:00005300       ??_C@_0BC@DIKGMAPI@mng_putchunk_hist?$AA@ 10133300     libmng:libmng_hlapi.obj
 0002:00005314       ??_C@_0BC@FOEPBHKI@mng_putchunk_gama?$AA@ 10133314     libmng:libmng_hlapi.obj
 0002:00005328       ??_C@_0BC@IECMHAAB@mng_putchunk_fram?$AA@ 10133328     libmng:libmng_hlapi.obj
 0002:0000533c       ??_C@_0BC@FECJGAKH@mng_putchunk_fpri?$AA@ 1013333c     libmng:libmng_hlapi.obj
 0002:00005350       ??_C@_0BC@NFLJOGPG@mng_putchunk_expi?$AA@ 10133350     libmng:libmng_hlapi.obj
 0002:00005364       ??_C@_0BI@PEGBDEML@mng_putchunk_evnt_entry?$AA@ 10133364     libmng:libmng_hlapi.obj
 0002:0000537c       ??_C@_0BC@NMLCHDKD@mng_putchunk_evnt?$AA@ 1013337c     libmng:libmng_hlapi.obj
 0002:00005390       ??_C@_0BC@MGJDBBFM@mng_putchunk_endl?$AA@ 10133390     libmng:libmng_hlapi.obj
 0002:000053a4       ??_C@_0BC@LBOGCHH@mng_putchunk_drop?$AA@ 101333a4     libmng:libmng_hlapi.obj
 0002:000053b8       ??_C@_0BC@PINFKJGP@mng_putchunk_disc?$AA@ 101333b8     libmng:libmng_hlapi.obj
 0002:000053cc       ??_C@_0BC@KNJFIOP@mng_putchunk_dhdr?$AA@ 101333cc     libmng:libmng_hlapi.obj
 0002:000053e0       ??_C@_0BC@FCABJPMG@mng_putchunk_defi?$AA@ 101333e0     libmng:libmng_hlapi.obj
 0002:000053f4       ??_C@_0BC@OKJKCBLA@mng_putchunk_dbyk?$AA@ 101333f4     libmng:libmng_hlapi.obj
 0002:00005408       ??_C@_0BC@NNLJKBBE@mng_putchunk_clon?$AA@ 10133408     libmng:libmng_hlapi.obj
 0002:0000541c       ??_C@_0BC@NHFOCHJ@mng_putchunk_clip?$AA@ 1013341c     libmng:libmng_hlapi.obj
 0002:00005430       ??_C@_0BC@GNAIFFKD@mng_putchunk_chrm?$AA@ 10133430     libmng:libmng_hlapi.obj
 0002:00005444       ??_C@_0BC@IJPCAJCP@mng_putchunk_bkgd?$AA@ 10133444     libmng:libmng_hlapi.obj
 0002:00005458       ??_C@_0BC@EIMOJMKK@mng_putchunk_basi?$AA@ 10133458     libmng:libmng_hlapi.obj
 0002:0000546c       ??_C@_0BC@GGNOFNFI@mng_putchunk_back?$AA@ 1013346c     libmng:libmng_hlapi.obj
 0002:00005480       ??_C@_0BD@IOPIAJAK@mng_iterate_chunks?$AA@ 10133480     libmng:libmng_hlapi.obj
 0002:00005494       ??_C@_0P@FGNOLJKG@mng_initialize?$AA@ 10133494     libmng:libmng_hlapi.obj
 0002:000054a4       ??_C@_0BB@JFAGJDOF@mng_getlasterror?$AA@ 101334a4     libmng:libmng_hlapi.obj
 0002:000054b8       ??_C@_0BD@FJEOADAP@mng_getimgdata_seq?$AA@ 101334b8     libmng:libmng_hlapi.obj
 0002:000054cc       ??_C@_0BI@JPLMGLCD@mng_getimgdata_chunkseq?$AA@ 101334cc     libmng:libmng_hlapi.obj
 0002:000054e4       ??_C@_0BF@KOPFBBAA@mng_getimgdata_chunk?$AA@ 101334e4     libmng:libmng_hlapi.obj
 0002:000054fc       ??_C@_0BC@DLNIFEMP@mng_getchunk_ztxt?$AA@ 101334fc     libmng:libmng_hlapi.obj
 0002:00005510       ??_C@_0BE@HOPJDBJA@mng_getchunk_unkown?$AA@ 10133510     libmng:libmng_hlapi.obj
 0002:00005524       ??_C@_0BC@PGGJPMHH@mng_getchunk_trns?$AA@ 10133524     libmng:libmng_hlapi.obj
 0002:00005538       ??_C@_0BC@GPKPCHGH@mng_getchunk_time?$AA@ 10133538     libmng:libmng_hlapi.obj
 0002:0000554c       ??_C@_0BC@GMENNKFE@mng_getchunk_text?$AA@ 1013354c     libmng:libmng_hlapi.obj
 0002:00005560       ??_C@_0BC@PKNKPGJK@mng_getchunk_term?$AA@ 10133560     libmng:libmng_hlapi.obj
 0002:00005574       ??_C@_0BC@BIEBDIPI@mng_getchunk_srgb?$AA@ 10133574     libmng:libmng_hlapi.obj
 0002:00005588       ??_C@_0BC@KCIFKKEF@mng_getchunk_splt?$AA@ 10133588     libmng:libmng_hlapi.obj
 0002:0000559c       ??_C@_0BC@BOEDDIKP@mng_getchunk_show?$AA@ 1013359c     libmng:libmng_hlapi.obj
 0002:000055b0       ??_C@_0BC@HMJDIPJ@mng_getchunk_seek?$AA@ 101335b0     libmng:libmng_hlapi.obj
 0002:000055c4       ??_C@_0BC@FOFOPHLK@mng_getchunk_sbit?$AA@ 101335c4     libmng:libmng_hlapi.obj
 0002:000055d8       ??_C@_0BI@MCJJEHLC@mng_getchunk_save_entry?$AA@ 101335d8     libmng:libmng_hlapi.obj
 0002:000055f0       ??_C@_0BC@IEIJPAJ@mng_getchunk_save?$AA@ 101335f0     libmng:libmng_hlapi.obj
 0002:00005604       ??_C@_0BC@NGGKAPFP@mng_getchunk_prom?$AA@ 10133604     libmng:libmng_hlapi.obj
 0002:00005618       ??_C@_0BI@BKOIDCDP@mng_getchunk_pplt_entry?$AA@ 10133618     libmng:libmng_hlapi.obj
 0002:00005630       ??_C@_0BC@OFCFNAJF@mng_getchunk_pplt?$AA@ 10133630     libmng:libmng_hlapi.obj
 0002:00005644       ??_C@_0BC@LOAGOJGK@mng_getchunk_plte?$AA@ 10133644     libmng:libmng_hlapi.obj
 0002:00005658       ??_C@_0BC@CFCEFILJ@mng_getchunk_phys?$AA@ 10133658     libmng:libmng_hlapi.obj
 0002:0000566c       ??_C@_0BC@LIKIPOM@mng_getchunk_phyg?$AA@ 1013366c     libmng:libmng_hlapi.obj
 0002:00005680       ??_C@_0BG@MEGPOMBG@mng_getchunk_past_src?$AA@ 10133680     libmng:libmng_hlapi.obj
 0002:00005698       ??_C@_0BC@BKPKAECC@mng_getchunk_past?$AA@ 10133698     libmng:libmng_hlapi.obj
 0002:000056ac       ??_C@_0BI@FOKEHJJA@mng_getchunk_ordr_entry?$AA@ 101336ac     libmng:libmng_hlapi.obj
 0002:000056c4       ??_C@_0BC@PFNFOOHD@mng_getchunk_ordr?$AA@ 101336c4     libmng:libmng_hlapi.obj
 0002:000056d8       ??_C@_0BC@BICBHHAF@mng_getchunk_need?$AA@ 101336d8     libmng:libmng_hlapi.obj
 0002:000056ec       ??_C@_0BC@DHEHMBNJ@mng_getchunk_move?$AA@ 101336ec     libmng:libmng_hlapi.obj
 0002:00005700       ??_C@_0BC@LALBAKOI@mng_getchunk_mhdr?$AA@ 10133700     libmng:libmng_hlapi.obj
 0002:00005714       ??_C@_0BC@FDNEOCDE@mng_getchunk_mend?$AA@ 10133714     libmng:libmng_hlapi.obj
 0002:00005728       ??_C@_0BC@CJIIKGGG@mng_getchunk_magn?$AA@ 10133728     libmng:libmng_hlapi.obj
 0002:0000573c       ??_C@_0BC@COGFJGIC@mng_getchunk_loop?$AA@ 1013373c     libmng:libmng_hlapi.obj
 0002:00005750       ??_C@_0BC@LGHNAOND@mng_getchunk_jsep?$AA@ 10133750     libmng:libmng_hlapi.obj
 0002:00005764       ??_C@_0BC@CJBNGPI@mng_getchunk_jhdr?$AA@ 10133764     libmng:libmng_hlapi.obj
 0002:00005778       ??_C@_0BC@BINGAMCN@mng_getchunk_jdat?$AA@ 10133778     libmng:libmng_hlapi.obj
 0002:0000578c       ??_C@_0BC@CPGDOKDJ@mng_getchunk_jdaa?$AA@ 1013378c     libmng:libmng_hlapi.obj
 0002:000057a0       ??_C@_0BC@BMJILJJN@mng_getchunk_itxt?$AA@ 101337a0     libmng:libmng_hlapi.obj
 0002:000057b4       ??_C@_0BC@OKLOLAJK@mng_getchunk_ipng?$AA@ 101337b4     libmng:libmng_hlapi.obj
 0002:000057c8       ??_C@_0BC@NFBKAHGB@mng_getchunk_ijng?$AA@ 101337c8     libmng:libmng_hlapi.obj
 0002:000057dc       ??_C@_0BC@EFDBKMCI@mng_getchunk_ihdr?$AA@ 101337dc     libmng:libmng_hlapi.obj
 0002:000057f0       ??_C@_0BC@KGFEEEPE@mng_getchunk_iend?$AA@ 101337f0     libmng:libmng_hlapi.obj
 0002:00005804       ??_C@_0BC@FPHGHGPN@mng_getchunk_idat?$AA@ 10133804     libmng:libmng_hlapi.obj
 0002:00005818       ??_C@_0BC@KFEJFPCO@mng_getchunk_iccp?$AA@ 10133818     libmng:libmng_hlapi.obj
 0002:0000582c       ??_C@_0BC@IPNOPAIO@mng_getchunk_hist?$AA@ 1013382c     libmng:libmng_hlapi.obj
 0002:00005840       ??_C@_0BC@OJDHCHNO@mng_getchunk_gama?$AA@ 10133840     libmng:libmng_hlapi.obj
 0002:00005854       ??_C@_0BC@DDFEEAHH@mng_getchunk_fram?$AA@ 10133854     libmng:libmng_hlapi.obj
 0002:00005868       ??_C@_0BC@ODFBFANB@mng_getchunk_fpri?$AA@ 10133868     libmng:libmng_hlapi.obj
 0002:0000587c       ??_C@_0BC@GCMBNGIA@mng_getchunk_expi?$AA@ 1013387c     libmng:libmng_hlapi.obj
 0002:00005890       ??_C@_0BI@OGKBACHH@mng_getchunk_evnt_entry?$AA@ 10133890     libmng:libmng_hlapi.obj
 0002:000058a8       ??_C@_0BC@GLMKEDNF@mng_getchunk_evnt?$AA@ 101338a8     libmng:libmng_hlapi.obj
 0002:000058bc       ??_C@_0BC@HBOLCBCK@mng_getchunk_endl?$AA@ 101338bc     libmng:libmng_hlapi.obj
 0002:000058d0       ??_C@_0BC@LMGGFCAB@mng_getchunk_drop?$AA@ 101338d0     libmng:libmng_hlapi.obj
 0002:000058e4       ??_C@_0BC@EPKNJJBJ@mng_getchunk_disc?$AA@ 101338e4     libmng:libmng_hlapi.obj
 0002:000058f8       ??_C@_0BC@LNKBGIJJ@mng_getchunk_dhdr?$AA@ 101338f8     libmng:libmng_hlapi.obj
 0002:0000590c       ??_C@_0BC@OFHJKPLA@mng_getchunk_defi?$AA@ 1013390c     libmng:libmng_hlapi.obj
 0002:00005920       ??_C@_0BC@FNOCBBMG@mng_getchunk_dbyk?$AA@ 10133920     libmng:libmng_hlapi.obj
 0002:00005934       ??_C@_0BC@GKMBJBGC@mng_getchunk_clon?$AA@ 10133934     libmng:libmng_hlapi.obj
 0002:00005948       ??_C@_0BC@LKANNCAP@mng_getchunk_clip?$AA@ 10133948     libmng:libmng_hlapi.obj
 0002:0000595c       ??_C@_0BC@NKHAGFNF@mng_getchunk_chrm?$AA@ 1013395c     libmng:libmng_hlapi.obj
 0002:00005970       ??_C@_0BC@DOIKDJFJ@mng_getchunk_bkgd?$AA@ 10133970     libmng:libmng_hlapi.obj
 0002:00005984       ??_C@_0BC@PPLGKMNM@mng_getchunk_basi?$AA@ 10133984     libmng:libmng_hlapi.obj
 0002:00005998       ??_C@_0BC@NBKGGNCO@mng_getchunk_back?$AA@ 10133998     libmng:libmng_hlapi.obj
 0002:000059ac       ??_C@_0BE@EDGGLDFD@mng_getcb_writedata?$AA@ 101339ac     libmng:libmng_hlapi.obj
 0002:000059c0       ??_C@_0BE@CMEEFGIF@mng_getcb_traceproc?$AA@ 101339c0     libmng:libmng_hlapi.obj
 0002:000059d4       ??_C@_0BD@PBNPFBEH@mng_getcb_settimer?$AA@ 101339d4     libmng:libmng_hlapi.obj
 0002:000059e8       ??_C@_0BG@HDFOHHKN@mng_getcb_releasedata?$AA@ 101339e8     libmng:libmng_hlapi.obj
 0002:00005a00       ??_C@_0BC@FBIMAMOA@mng_getcb_refresh?$AA@ 10133a00     libmng:libmng_hlapi.obj
 0002:00005a14       ??_C@_0BD@BONJAHCK@mng_getcb_readdata?$AA@ 10133a14     libmng:libmng_hlapi.obj
 0002:00005a28       ??_C@_0BJ@FEAMECIC@mng_getcb_processunknown?$AA@ 10133a28     libmng:libmng_hlapi.obj
 0002:00005a44       ??_C@_0BG@GNAKCK@mng_getcb_processtext?$AA@ 10133a44     libmng:libmng_hlapi.obj
 0002:00005a5c       ??_C@_0BG@JGPKCGOE@mng_getcb_processterm?$AA@ 10133a5c     libmng:libmng_hlapi.obj
 0002:00005a74       ??_C@_0BG@HEGBOIIG@mng_getcb_processsrgb?$AA@ 10133a74     libmng:libmng_hlapi.obj
 0002:00005a8c       ??_C@_0BG@GLOJOIIH@mng_getcb_processseek?$AA@ 10133a8c     libmng:libmng_hlapi.obj
 0002:00005aa4       ??_C@_0BG@GEGIEPHH@mng_getcb_processsave?$AA@ 10133aa4     libmng:libmng_hlapi.obj
 0002:00005abc       ??_C@_0BG@HEABKHHL@mng_getcb_processneed?$AA@ 10133abc     libmng:libmng_hlapi.obj
 0002:00005ad4       ??_C@_0BG@DPPEDCEK@mng_getcb_processmend?$AA@ 10133ad4     libmng:libmng_hlapi.obj
 0002:00005aec       ??_C@_0BG@MJGJIPFA@mng_getcb_processiccp?$AA@ 10133aec     libmng:libmng_hlapi.obj
 0002:00005b04       ??_C@_0BI@EBDMGDDC@mng_getcb_processheader?$AA@ 10133b04     libmng:libmng_hlapi.obj
 0002:00005b1c       ??_C@_0BH@KDKPBHJN@mng_getcb_processgamma?$AA@ 10133b1c     libmng:libmng_hlapi.obj
 0002:00005b34       ??_C@_0BI@GABIFOGP@mng_getcb_processchroma?$AA@ 10133b34     libmng:libmng_hlapi.obj
 0002:00005b4c       ??_C@_0BG@FHOHJLMI@mng_getcb_processarow?$AA@ 10133b4c     libmng:libmng_hlapi.obj
 0002:00005b64       ??_C@_0BF@PBMACOJE@mng_getcb_openstream?$AA@ 10133b64     libmng:libmng_hlapi.obj
 0002:00005b7c       ??_C@_0BC@GLHLCAEP@mng_getcb_memfree?$AA@ 10133b7c     libmng:libmng_hlapi.obj
 0002:00005b90       ??_C@_0BD@BKJCMMEC@mng_getcb_memalloc?$AA@ 10133b90     libmng:libmng_hlapi.obj
 0002:00005ba4       ??_C@_0BH@BALPKBKO@mng_getcb_gettickcount?$AA@ 10133ba4     libmng:libmng_hlapi.obj
 0002:00005bbc       ??_C@_0BI@KJACMEJI@mng_getcb_getcanvasline?$AA@ 10133bbc     libmng:libmng_hlapi.obj
 0002:00005bd4       ??_C@_0BG@POOJLGKI@mng_getcb_getbkgdline?$AA@ 10133bd4     libmng:libmng_hlapi.obj
 0002:00005bec       ??_C@_0BH@BLANJCPE@mng_getcb_getalphaline?$AA@ 10133bec     libmng:libmng_hlapi.obj
 0002:00005c04       ??_C@_0BE@MPGPNCMM@mng_getcb_errorproc?$AA@ 10133c04     libmng:libmng_hlapi.obj
 0002:00005c18       ??_C@_0BG@DBBJGMGF@mng_getcb_closestream?$AA@ 10133c18     libmng:libmng_hlapi.obj
 0002:00005c30       ??_C@_0BF@OGBONFHN@mng_get_viewgammaint?$AA@ 10133c30     libmng:libmng_hlapi.obj
 0002:00005c48       ??_C@_0BC@GIHPNLAP@mng_get_viewgamma?$AA@ 10133c48     libmng:libmng_hlapi.obj
 0002:00005c5c       ??_C@_0BB@OEAEILKK@mng_get_userdata?$AA@ 10133c5c     libmng:libmng_hlapi.obj
 0002:00005c70       ??_C@_0BA@EGDNBJHF@mng_get_usebkgd?$AA@ 10133c70     libmng:libmng_hlapi.obj
 0002:00005c80       ??_C@_0BG@BHCJIMHB@mng_get_totalplaytime?$AA@ 10133c80     libmng:libmng_hlapi.obj
 0002:00005c98       ??_C@_0BE@IHLLHHOO@mng_get_totallayers?$AA@ 10133c98     libmng:libmng_hlapi.obj
 0002:00005cac       ??_C@_0BE@CKMEBJMM@mng_get_totalframes?$AA@ 10133cac     libmng:libmng_hlapi.obj
 0002:00005cc0       ??_C@_0O@ODCANCOF@mng_get_ticks?$AA@ 10133cc0     libmng:libmng_hlapi.obj
 0002:00005cd0       ??_C@_0BH@OAGLCMFM@mng_get_suspensionmode?$AA@ 10133cd0     libmng:libmng_hlapi.obj
 0002:00005ce8       ??_C@_0BE@PLPJBBLA@mng_get_storechunks?$AA@ 10133ce8     libmng:libmng_hlapi.obj
 0002:00005cfc       ??_C@_0BC@MDOHKOKE@mng_get_starttime?$AA@ 10133cfc     libmng:libmng_hlapi.obj
 0002:00005d10       ??_C@_0N@GJCGMIBF@mng_get_srgb?$AA@ 10133d10     libmng:libmng_hlapi.obj
 0002:00005d20       ??_C@_0O@LJKDOBOO@mng_get_speed?$AA@ 10133d20     libmng:libmng_hlapi.obj
 0002:00005d30       ??_C@_0BD@GKILDJIM@mng_get_simplicity?$AA@ 10133d30     libmng:libmng_hlapi.obj
 0002:00005d44       ??_C@_0BA@BLPGALPL@mng_get_sigtype?$AA@ 10133d44     libmng:libmng_hlapi.obj
 0002:00005d54       ??_C@_0BG@ODOBNIBC@mng_get_sectionbreaks?$AA@ 10133d54     libmng:libmng_hlapi.obj
 0002:00005d6c       ??_C@_0BA@BEMKMLKL@mng_get_runtime?$AA@ 10133d6c     libmng:libmng_hlapi.obj
 0002:00005d7c       ??_C@_0BE@BGFJJMDO@mng_get_refreshpass?$AA@ 10133d7c     libmng:libmng_hlapi.obj
 0002:00005d90       ??_C@_0BB@EHEPNLCE@mng_get_playtime?$AA@ 10133d90     libmng:libmng_hlapi.obj
 0002:00005da4       ??_C@_0BH@IMCOOMND@mng_get_maxcanvaswidth?$AA@ 10133da4     libmng:libmng_hlapi.obj
 0002:00005dbc       ??_C@_0BI@IGNABOM@mng_get_maxcanvasheight?$AA@ 10133dbc     libmng:libmng_hlapi.obj
 0002:00005dd4       ??_C@_0BD@GMHPPMHP@mng_get_layercount?$AA@ 10133dd4     libmng:libmng_hlapi.obj
 0002:00005de8       ??_C@_0BF@EFJFEEHO@mng_get_lastseekname?$AA@ 10133de8     libmng:libmng_hlapi.obj
 0002:00005e00       ??_C@_0BG@EKGICIHA@mng_get_lastbackchunk?$AA@ 10133e00     libmng:libmng_hlapi.obj
 0002:00005e18       ??_C@_0BC@BFEENANO@mng_get_interlace?$AA@ 10133e18     libmng:libmng_hlapi.obj
 0002:00005e2c       ??_C@_0BD@PIDEALML@mng_get_imagewidth?$AA@ 10133e2c     libmng:libmng_hlapi.obj
 0002:00005e40       ??_C@_0BC@EKIDEOEE@mng_get_imagetype?$AA@ 10133e40     libmng:libmng_hlapi.obj
 0002:00005e54       ??_C@_0BD@NHENIHMF@mng_get_imagelevel?$AA@ 10133e54     libmng:libmng_hlapi.obj
 0002:00005e68       ??_C@_0BE@BLHFIDFN@mng_get_imageheight?$AA@ 10133e68     libmng:libmng_hlapi.obj
 0002:00005e7c       ??_C@_0BD@CEMNMHIM@mng_get_framecount?$AA@ 10133e7c     libmng:libmng_hlapi.obj
 0002:00005e90       ??_C@_0P@KPEKKPGM@mng_get_filter?$AA@ 10133e90     libmng:libmng_hlapi.obj
 0002:00005ea0       ??_C@_0BG@PIKJAJPO@mng_get_doprogressive?$AA@ 10133ea0     libmng:libmng_hlapi.obj
 0002:00005eb8       ??_C@_0BI@IHPLDOLP@mng_get_displaygammaint?$AA@ 10133eb8     libmng:libmng_hlapi.obj
 0002:00005ed0       ??_C@_0BF@JMBEBJGB@mng_get_displaygamma?$AA@ 10133ed0     libmng:libmng_hlapi.obj
 0002:00005ee8       ??_C@_0BI@IIDCELKC@mng_get_dfltimggammaint?$AA@ 10133ee8     libmng:libmng_hlapi.obj
 0002:00005f00       ??_C@_0BF@PALMKBPE@mng_get_dfltimggamma?$AA@ 10133f00     libmng:libmng_hlapi.obj
 0002:00005f18       ??_C@_0BG@BNCNOBJN@mng_get_currframdelay?$AA@ 10133f18     libmng:libmng_hlapi.obj
 0002:00005f30       ??_C@_0BI@IILFHEJA@mng_get_currentplaytime?$AA@ 10133f30     libmng:libmng_hlapi.obj
 0002:00005f48       ??_C@_0BF@ODBKFFKP@mng_get_currentlayer?$AA@ 10133f48     libmng:libmng_hlapi.obj
 0002:00005f60       ??_C@_0BF@PLPMDBMF@mng_get_currentframe?$AA@ 10133f60     libmng:libmng_hlapi.obj
 0002:00005f78       ??_C@_0BE@MGHILBPB@mng_get_compression?$AA@ 10133f78     libmng:libmng_hlapi.obj
 0002:00005f8c       ??_C@_0BC@MFGOJPJO@mng_get_colortype?$AA@ 10133f8c     libmng:libmng_hlapi.obj
 0002:00005fa0       ??_C@_0BE@PJJCCLFP@mng_get_canvasstyle?$AA@ 10133fa0     libmng:libmng_hlapi.obj
 0002:00005fb4       ??_C@_0BG@KPGBENBI@mng_get_cacheplayback?$AA@ 10133fb4     libmng:libmng_hlapi.obj
 0002:00005fcc       ??_C@_0BC@PGENGELB@mng_get_bkgdstyle?$AA@ 10133fcc     libmng:libmng_hlapi.obj
 0002:00005fe0       ??_C@_0BB@NBPPFNAO@mng_get_bitdepth?$AA@ 10133fe0     libmng:libmng_hlapi.obj
 0002:00005ff4       ??_C@_0BA@CEHGCOA@mng_get_bgcolor?$AA@ 10133ff4     libmng:libmng_hlapi.obj
 0002:00006004       ??_C@_0BH@JDBFAKON@mng_get_alphainterlace?$AA@ 10134004     libmng:libmng_hlapi.obj
 0002:0000601c       ??_C@_0BE@LMFLPJGM@mng_get_alphafilter?$AA@ 1013401c     libmng:libmng_hlapi.obj
 0002:00006030       ??_C@_0BD@KECILMMB@mng_get_alphadepth?$AA@ 10134030     libmng:libmng_hlapi.obj
 0002:00006044       ??_C@_0BJ@FEBFGJFK@mng_get_alphacompression?$AA@ 10134044     libmng:libmng_hlapi.obj
 0002:00006060       ??_C@_0BG@FDPHLKNO@mng_get_alphabitdepth?$AA@ 10134060     libmng:libmng_hlapi.obj
 0002:00006078       ??_C@_0BD@HGPKAOJI@mng_display_resume?$AA@ 10134078     libmng:libmng_hlapi.obj
 0002:0000608c       ??_C@_0BC@JMLBJHPP@mng_display_reset?$AA@ 1013408c     libmng:libmng_hlapi.obj
 0002:000060a0       ??_C@_0BD@EKGIKKKA@mng_display_gotime?$AA@ 101340a0     libmng:libmng_hlapi.obj
 0002:000060b4       ??_C@_0BE@MLBLNLMJ@mng_display_golayer?$AA@ 101340b4     libmng:libmng_hlapi.obj
 0002:000060c8       ??_C@_0BE@NDPNLPKD@mng_display_goframe?$AA@ 101340c8     libmng:libmng_hlapi.obj
 0002:000060dc       ??_C@_0BD@FNGIAECO@mng_display_freeze?$AA@ 101340dc     libmng:libmng_hlapi.obj
 0002:000060f0       ??_C@_0M@FGFGGLCC@mng_display?$AA@ 101340f0     libmng:libmng_hlapi.obj
 0002:000060fc       ??_C@_0L@BBJMGBGP@mng_create?$AA@ 101340fc     libmng:libmng_hlapi.obj
 0002:00006108       ??_C@_0P@CMENDCEB@mng_copy_chunk?$AA@ 10134108     libmng:libmng_hlapi.obj
 0002:00006118       ??_C@_0M@OGEAGKEG@mng_cleanup?$AA@ 10134118     libmng:libmng_hlapi.obj
 0002:00006128       _jpeg_aritab               10134128     jpeg:jaricom.obj
 0002:00006900       _jpeg_natural_order        10134900     jpeg:jutils.obj
 0002:00006a40       _jpeg_natural_order7       10134a40     jpeg:jutils.obj
 0002:00006b48       _jpeg_natural_order6       10134b48     jpeg:jutils.obj
 0002:00006c18       _jpeg_natural_order5       10134c18     jpeg:jutils.obj
 0002:00006cc0       _jpeg_natural_order4       10134cc0     jpeg:jutils.obj
 0002:00006d40       _jpeg_natural_order3       10134d40     jpeg:jutils.obj
 0002:00006da8       _jpeg_natural_order2       10134da8     jpeg:jutils.obj
 0002:00006e08       _jpeg_std_message_table    10134e08     jpeg:jerror.obj
 0002:000073f0       _TIFFFaxMainTable          101353f0     libTIFF:tif_fax3sm.obj
 0002:000077f0       _TIFFFaxWhiteTable         101357f0     libTIFF:tif_fax3sm.obj
 0002:0000f7f0       _TIFFFaxBlackTable         1013d7f0     libTIFF:tif_fax3sm.obj
 0002:0001f9c0       _TIFFFaxWhiteCodes         1014d9c0     libTIFF:tif_fax3.obj
 0002:0001fc50       _TIFFFaxBlackCodes         1014dc50     libTIFF:tif_fax3.obj
 0002:000212b0       _png_sRGB_table            1014f2b0     libPNG:png.obj
 0002:000214b0       _png_sRGB_base             1014f4b0     libPNG:png.obj
 0002:000218b0       _png_sRGB_delta            1014f8b0     libPNG:png.obj
 0002:00022aa8       ??_C@_05IAIEPMAK@1?42?48?$AA@ 10150aa8     libmng:libmng_zlib.obj
 0002:00022ab0       ??_C@_0CI@PNFHGHBC@Transformation?5could?5not?5be?5init@ 10150ab0     libmng:libmng_error.obj
 0002:00022ad8       ??_C@_0BN@KDAHJOIA@No?5memory?5for?5gamma?9table?$CIs?$CJ?$AA@ 10150ad8     libmng:libmng_error.obj
 0002:00022af8       ??_C@_0CA@JJHHIBMB@Handle?5could?5not?5be?5initialized?$AA@ 10150af8     libmng:libmng_error.obj
 0002:00022b18       ??_C@_0BA@BDOKNFJI@Image?5is?5frozen?$AA@ 10150b18     libmng:libmng_error.obj
 0002:00022b28       ??_C@_0BN@MFPBKOOG@Function?5not?5yet?5implemented?$AA@ 10150b28     libmng:libmng_error.obj
 0002:00022b48       ??_C@_0BH@KPJMLJFG@Playtime?5out?5of?5bounds?$AA@ 10150b48     libmng:libmng_error.obj
 0002:00022b60       ??_C@_0BG@KGKCCIAG@Layernr?5out?5of?5bounds?$AA@ 10150b60     libmng:libmng_error.obj
 0002:00022b78       ??_C@_0BG@LKHKGBOH@Framenr?5out?5of?5bounds?$AA@ 10150b78     libmng:libmng_error.obj
 0002:00022b90       ??_C@_0BK@FGFIMGLO@Image?5is?5not?5an?5animation?$AA@ 10150b90     libmng:libmng_error.obj
 0002:00022bac       ??_C@_0CF@JCINFALC@Image?5is?5larger?5than?5defined?5max@ 10150bac     libmng:libmng_error.obj
 0002:00022bd4       ??_C@_0BL@FPJEFPLG@No?5MNG?5header?5?$CIMHDR?$CJ?5found?$AA@ 10150bd4     libmng:libmng_error.obj
 0002:00022bf0       ??_C@_0BH@KOBFADBN@Parent?5chunk?5not?5found?$AA@ 10150bf0     libmng:libmng_error.obj
 0002:00022c08       ??_C@_0BG@MNLPCGIN@No?5valid?5header?9chunk?$AA@ 10150c08     libmng:libmng_error.obj
 0002:00022c20       ??_C@_0CI@NLMPIEOA@Attempt?5to?5access?5an?5non?9existin@ 10150c20     libmng:libmng_error.obj
 0002:00022c48       ??_C@_0CC@FNFPPJEC@Attempt?5to?5access?5the?5wrong?5chun@ 10150c48     libmng:libmng_error.obj
 0002:00022c6c       ??_C@_0BI@BFHOHKEN@Canvas_style?5is?5invalid?$AA@ 10150c6c     libmng:libmng_error.obj
 0002:00022c84       ??_C@_0BL@CODEFKEI@invalid?5frame?1image?5height?$AA@ 10150c84     libmng:libmng_error.obj
 0002:00022ca0       ??_C@_0BK@MEFOEOD@invalid?5frame?1image?5width?$AA@ 10150ca0     libmng:libmng_error.obj
 0002:00022cbc       ??_C@_0BN@FKPNOFKI@invalid?5fieldvalue?5?$CIgeneric?$CJ?$AA@ 10150cbc     libmng:libmng_error.obj
 0002:00022cdc       ??_C@_0CN@FGEEOKIA@TERM?5misplaced?5during?5creation?5o@ 10150cdc     libmng:libmng_error.obj
 0002:00022d0c       ??_C@_0CN@NGOJHIBF@Destination?5object?5for?5PAST?5must@ 10150d0c     libmng:libmng_error.obj
 0002:00022d3c       ??_C@_0BM@DJBPDBBA@evNT?5points?5to?5unknown?5SEEK?$AA@ 10150d3c     libmng:libmng_error.obj
 0002:00022d58       ??_C@_0BL@KILJJBFI@ENDL?5without?5matching?5LOOP?$AA@ 10150d58     libmng:libmng_error.obj
 0002:00022d74       ??_C@_0BF@DDABJBEA@Mask?5type?5is?5invalid?$AA@ 10150d74     libmng:libmng_error.obj
 0002:00022d8c       ??_C@_0BG@GLHDDFJB@Event?5type?5is?5invalid?$AA@ 10150d8c     libmng:libmng_error.obj
 0002:00022da4       ??_C@_0CI@IBFOBEOO@Delta?5block?5width?5and?5or?5height?5@ 10150da4     libmng:libmng_error.obj
 0002:00022dcc       ??_C@_0CA@BDPIOOBL@Chunklength?5is?5incredibly?5large?$AA@ 10150dcc     libmng:libmng_error.obj
 0002:00022dec       ??_C@_0BC@DCCOCMJF@Method?5is?5invalid?$AA@ 10150dec     libmng:libmng_error.obj
 0002:00022e00       ??_C@_0DJ@DAFAHMOK@The?5delta?5operation?5is?5invalid?5?$CI@ 10150e00     libmng:libmng_error.obj
 0002:00022e3c       ??_C@_0CL@DIGKJBDI@Requested?5nEED?5resources?5are?5not@ 10150e3c     libmng:libmng_error.obj
 0002:00022e68       ??_C@_0CD@HLLBAKJ@Unknown?5critical?5chunk?5encounter@ 10150e68     libmng:libmng_error.obj
 0002:00022e8c       ??_C@_0DB@CLNPPOFJ@MHDR?5simplicity?5indicates?5unsupp@ 10150e8c     libmng:libmng_error.obj
 0002:00022ec0       ??_C@_0CG@KPICDMEK@Target?5object?5must?5have?5alpha?9ch@ 10150ec0     libmng:libmng_error.obj
 0002:00022ee8       ??_C@_0CI@PICMOHHF@Target?5object?5for?5DHDR?5must?5be?5c@ 10150ee8     libmng:libmng_error.obj
 0002:00022f10       ??_C@_0BL@IJMABEDC@The?5fill_method?5is?5invalid?$AA@ 10150f10     libmng:libmng_error.obj
 0002:00022f2c       ??_C@_0CJ@KKNAEOAG@JHDR?5parameters?5?$CG?5JFIF?9data?5do?5n@ 10150f2c     libmng:libmng_error.obj
 0002:00022f58       ??_C@_0BP@ILIHFDHM@Too?5much?5data?5in?5JDAT?5chunk?$CIs?$CJ?$AA@ 10150f58     libmng:libmng_error.obj
 0002:00022f78       ??_C@_0BK@BDAJFGPH@Index?9value?5out?5of?5bounds?$AA@ 10150f78     libmng:libmng_error.obj
 0002:00022f94       ??_C@_0BK@GMKHEOKE@The?5delta_type?5is?5invalid?$AA@ 10150f94     libmng:libmng_error.obj
 0002:00022fb0       ??_C@_0BK@LGHCPKBK@The?5image_type?5is?5invalid?$AA@ 10150fb0     libmng:libmng_error.obj
 0002:00022fcc       ??_C@_0CC@GKBMAHAD@Chunk?5must?5not?5end?5with?5NULL?5byt@ 10150fcc     libmng:libmng_error.obj
 0002:00022ff0       ??_C@_0BK@PMFACFGB@The?5entry_type?5is?5invalid?$AA@ 10150ff0     libmng:libmng_error.obj
 0002:0002300c       ??_C@_0BL@BGHLAFHG@The?5offset_type?5is?5invalid?$AA@ 1015100c     libmng:libmng_error.obj
 0002:00023028       ??_C@_0BM@MBFGCHFF@The?5sample_depth?5is?5invalid?$AA@ 10151028     libmng:libmng_error.obj
 0002:00023044       ??_C@_0BP@PHOGHGKH@Too?5much?5data?5in?5IDAT?5chunk?$CIs?$CJ?$AA@ 10151044     libmng:libmng_error.obj
 0002:00023064       ??_C@_0BG@LJBPGIHB@Object?5already?5exists?$AA@ 10151064     libmng:libmng_error.obj
 0002:0002307c       ??_C@_0BG@FDKLEJIO@Object?5does?5not?5exist?$AA@ 1015107c     libmng:libmng_error.obj
 0002:00023094       ??_C@_0BO@PPPGKGKA@Keyword?5cannot?5be?5zero?9length?$AA@ 10151094     libmng:libmng_error.obj
 0002:000230b4       ??_C@_0BJ@KIFPMJMH@NULL?5separator?5not?5found?$AA@ 101510b4     libmng:libmng_error.obj
 0002:000230d0       ??_C@_0BM@OPDFMEAG@Palette?9index?5out?5of?5bounds?$AA@ 101510d0     libmng:libmng_error.obj
 0002:000230ec       ??_C@_0CO@LPLGPGAA@There?5is?5not?5enough?5data?5in?5the?5@ 101510ec     libmng:libmng_error.obj
 0002:0002311c       ??_C@_0CA@BBMMNCCE@The?5interlace_method?5is?5invalid?$AA@ 1015111c     libmng:libmng_error.obj
 0002:0002313c       ??_C@_0CM@GCJNGCCK@The?5filter_method?5or?5filter_type@ 1015113c     libmng:libmng_error.obj
 0002:00023168       ??_C@_0CC@ODIIKDEK@The?5compression_method?5is?5invali@ 10151168     libmng:libmng_error.obj
 0002:0002318c       ??_C@_0BK@LFNIFJLD@The?5color_type?5is?5invalid?$AA@ 1015118c     libmng:libmng_error.obj
 0002:000231a8       ??_C@_0BJ@KHFDIJGK@The?5bit_depth?5is?5invalid?$AA@ 101511a8     libmng:libmng_error.obj
 0002:000231c4       ??_C@_0BL@OKIHLGOJ@Global?5data?5length?5invalid?$AA@ 101511c4     libmng:libmng_error.obj
 0002:000231e0       ??_C@_0BG@BEMAOELE@Chunk?5cannot?5be?5empty?$AA@ 101511e0     libmng:libmng_error.obj
 0002:000231f8       ??_C@_0BG@KBCIOBDO@Missing?5IDAT?5chunk?$CIs?$CJ?$AA@ 101511f8     libmng:libmng_error.obj
 0002:00023210       ??_C@_0BD@FLOCBNAI@Missing?5PLTE?5chunk?$AA@ 10151210     libmng:libmng_error.obj
 0002:00023224       ??_C@_0CC@IABALGIP@Chunk?5cannot?5occur?5multiple?5time@ 10151224     libmng:libmng_error.obj
 0002:00023248       ??_C@_0CA@LAFFECPP@Chunk?5not?5allowed?5at?5this?5point?$AA@ 10151248     libmng:libmng_error.obj
 0002:00023268       ??_C@_0BG@DKOPPONJ@Chunk?5out?5of?5sequence?$AA@ 10151268     libmng:libmng_error.obj
 0002:00023280       ??_C@_0BI@NEAIDODN@Chunk?9length?5is?5invalid?$AA@ 10151280     libmng:libmng_error.obj
 0002:00023298       ??_C@_0CC@HNLCCLNH@The?5CRC?5for?5this?5chunk?5is?5invali@ 10151298     libmng:libmng_error.obj
 0002:000232bc       ??_C@_0BJ@GPEGCBLC@The?5signature?5is?5invalid?$AA@ 101512bc     libmng:libmng_error.obj
 0002:000232d8       ??_C@_0BJ@OCNKICFH@Internal?5error?5in?5libmng?$AA@ 101512d8     libmng:libmng_error.obj
 0002:000232f4       ??_C@_0DC@CMJHJOLJ@Application?5signalled?5error?5duri@ 101512f4     libmng:libmng_error.obj
 0002:00023328       ??_C@_0BP@PGCAJILL@Application?5signalled?5an?5error?$AA@ 10151328     libmng:libmng_error.obj
 0002:00023348       ??_C@_0CA@CNCKHNIM@Application?5signalled?5CMS?5error?$AA@ 10151348     libmng:libmng_error.obj
 0002:00023368       ??_C@_0CD@OMOAOODA@Application?5signalled?5timing?5err@ 10151368     libmng:libmng_error.obj
 0002:0002338c       ??_C@_0CA@GDIJGAAD@Application?5signalled?5I?1O?5error?$AA@ 1015138c     libmng:libmng_error.obj
 0002:000233ac       ??_C@_0DD@NGOHFICG@LOOP?5encountered?5when?5playback?5c@ 101513ac     libmng:libmng_error.obj
 0002:000233e0       ??_C@_0CF@JLCPAMEB@SEEK?5suspension?$DL?5application?5dec@ 101513e0     libmng:libmng_error.obj
 0002:00023408       ??_C@_0CJ@EEBMCONP@Timer?5suspension?$DL?5normal?5animati@ 10151408     libmng:libmng_error.obj
 0002:00023434       ??_C@_0CP@HFMLLPAN@Reading?5suspended?$DL?5waiting?5for?5I@ 10151434     libmng:libmng_error.obj
 0002:00023464       ??_C@_0CO@HIGDDHG@Internal?5buffer?5for?5JPEG?5process@ 10151464     libmng:libmng_error.obj
 0002:00023494       ??_C@_0CF@LLAFIDJF@Writing?5was?5unsuccessful?$DL?5disk?5f@ 10151494     libmng:libmng_error.obj
 0002:000234bc       ??_C@_0CC@MNMCCOOO@Function?5is?5invalid?5at?5this?5poin@ 101514bc     libmng:libmng_error.obj
 0002:000234e0       ??_C@_0BJ@MNCNOLKB@Internal?5buffer?9overflow?$AA@ 101514e0     libmng:libmng_error.obj
 0002:000234fc       ??_C@_0CA@HLDDFDJN@No?5sRGB?9profile?5defined?5for?5CMS?$AA@ 101514fc     libmng:libmng_error.obj
 0002:0002351c       ??_C@_0CC@GGMDFIOA@No?5output?9profile?5defined?5for?5CM@ 1015151c     libmng:libmng_error.obj
 0002:00023540       ??_C@_0BK@IMABGOKM@lcms?5encountered?5an?5error?$AA@ 10151540     libmng:libmng_error.obj
 0002:0002355c       ??_C@_0BO@DDAHHDHA@ijgsrc6b?5encountered?5an?5error?$AA@ 1015155c     libmng:libmng_error.obj
 0002:0002357c       ??_C@_0BK@INBHFLN@zlib?5encountered?5an?5error?$AA@ 1015157c     libmng:libmng_error.obj
 0002:00023598       ??_C@_0CD@BMANNKKA@Encountered?5unexpected?5end?9of?9fi@ 10151598     libmng:libmng_error.obj
 0002:000235bc       ??_C@_0CD@EBKOEIGD@A?5required?5callback?5is?5not?5defin@ 101515bc     libmng:libmng_error.obj
 0002:000235e0       ??_C@_0BG@JKPHLAOH@The?5handle?5is?5invalid?$AA@ 101515e0     libmng:libmng_error.obj
 0002:000235f8       ??_C@_0O@NALGGDJF@Out?5of?5memory?$AA@ 101515f8     libmng:libmng_error.obj
 0002:00023608       ??_C@_08INEPGKHH@No?5error?$AA@ 10151608     libmng:libmng_error.obj
 0002:00023614       ??_C@_0O@NIPGCINC@Unknown?5error?$AA@ 10151614     libmng:libmng_error.obj
 0002:00023624       ??_C@_0BG@KBOEEJLH@Photoshop?5ICC?5profile?$AA@ 10151624     libmng:libmng_chunk_io.obj
 0002:0002363c       ??_C@_01GBGANLPD@0?$AA@    1015163c     libmng:libmng_chunk_io.obj
 0002:00023640       ??_C@_0BJ@FFGICIDJ@Missing?5IHDR?5before?5IDAT?$AA@ 10151640     libPNG:pngread.obj
 0002:0002365c       ??_C@_0BJ@LAKDHAPN@Missing?5PLTE?5before?5IDAT?$AA@ 1015165c     libPNG:pngread.obj
 0002:00023678       ??_C@_0BF@DJLIMHLL@Too?5many?5IDATs?5found?$AA@ 10151678     libPNG:pngread.obj
 0002:00023690       ??_C@_0DK@FFGAMEAC@png_read_update_info?1png_start_r@ 10151690     libPNG:pngread.obj
 0002:000236cc       ??_C@_0CB@KCPNIGFM@Invalid?5attempt?5to?5read?5row?5data@ 101516cc     libPNG:pngread.obj
 0002:000236f0       ??_C@_0BK@CONOMAKG@bad?5adaptive?5filter?5value?$AA@ 101516f0     libPNG:pngread.obj
 0002:0002370c       ??_C@_0BI@DKBHKBPF@sequential?5row?5overflow?$AA@ 1015170c     libPNG:pngread.obj
 0002:00023724       ??_C@_0CP@OINAJLHB@internal?5sequential?5row?5size?5cal@ 10151724     libPNG:pngread.obj
 0002:00023758       ??_C@_0EB@BJILBCPL@Interlace?5handling?5should?5be?5tur@ 10151758     libPNG:pngread.obj
 0002:0002379c       ??_C@_0DL@CAJMFGIG@invalid?5after?5png_start_read_ima@ 1015179c     libPNG:pngrtran.obj
 0002:000237d8       ??_C@_0M@FBBKEIKG@gamma?5value?$AA@ 101517d8     libPNG:pngrtran.obj
 0002:000237e4       ??_C@_0CE@IFPDIMOB@invalid?5file?5gamma?5in?5png_set_ga@ 101517e4     libPNG:pngrtran.obj
 0002:00023808       ??_C@_0CG@NENGEGMG@invalid?5screen?5gamma?5in?5png_set_@ 10151808     libPNG:pngrtran.obj
 0002:00023830       ??_C@_0DF@DLPECGFI@libpng?5does?5not?5support?5gamma?$CLba@ 10151830     libPNG:pngrtran.obj
 0002:00023868       ??_C@_0BO@ENKNLJK@invalid?5background?5gamma?5type?$AA@ 10151868     libPNG:pngrtran.obj
 0002:00023888       ??_C@_0CB@BPJJBEIH@Palette?5is?5NULL?5in?5indexed?5image@ 10151888     libPNG:pngrtran.obj
 0002:000238ac       ??_C@_0CF@NLNFFJAO@png_do_encode_alpha?3?5unexpected?5@ 101518ac     libPNG:pngrtran.obj
 0002:000238d4       ??_C@_0BA@DBGPKIA@NULL?5row?5buffer?$AA@ 101518d4     libPNG:pngrtran.obj
 0002:000238e4       ??_C@_0BC@ICIDCBAI@Uninitialized?5row?$AA@ 101518e4     libPNG:pngrtran.obj
 0002:000238f8       ??_C@_0CH@DAMIMNHG@png_do_rgb_to_gray?5found?5nongray@ 101518f8     libPNG:pngrtran.obj
 0002:00023920       ??_C@_0CE@PFPGIBHI@png_do_quantize?5returned?5rowbyte@ 10151920     libPNG:pngrtran.obj
 0002:00023944       ??_C@_0CD@PGGPKBFM@Potential?5overflow?5in?5png_zalloc@ 10151944     libPNG:png.obj
 0002:00023968       ??_C@_0BP@LLMNPADO@Application?5built?5with?5libpng?9?$AA@ 10151968     libPNG:png.obj
 0002:00023988       ??_C@_0BD@IECHPOPJ@?5but?5running?5with?5?$AA@ 10151988     libPNG:png.obj
 0002:0002399c       ??_C@_0BM@FGHKPJNF@Ignoring?5invalid?5time?5value?$AA@ 1015199c     libPNG:png.obj
 0002:000239b8       ??_C@_0BM@FGGHCFBF@unexpected?5zlib?5return?5code?$AA@ 101519b8     libPNG:png.obj
 0002:000239d4       ??_C@_0BM@DCGHBGGB@unexpected?5end?5of?5LZ?5stream?$AA@ 101519d4     libPNG:png.obj
 0002:000239f0       ??_C@_0BG@MPHEFODE@missing?5LZ?5dictionary?$AA@ 101519f0     libPNG:png.obj
 0002:00023a08       ??_C@_0O@HJOFHIEK@zlib?5IO?5error?$AA@ 10151a08     libPNG:png.obj
 0002:00023a18       ??_C@_0BH@MLOBAKCG@bad?5parameters?5to?5zlib?$AA@ 10151a18     libPNG:png.obj
 0002:00023a30       ??_C@_0BC@NNBNLNOK@damaged?5LZ?5stream?$AA@ 10151a30     libPNG:png.obj
 0002:00023a44       ??_C@_0BE@OGGJBMCE@insufficient?5memory?$AA@ 10151a44     libPNG:png.obj
 0002:00023a58       ??_C@_09IDFJECNO@truncated?$AA@ 10151a58     libPNG:png.obj
 0002:00023a64       ??_C@_0BJ@EHGGFMEH@unsupported?5zlib?5version?$AA@ 10151a64     libPNG:png.obj
 0002:00023a80       ??_C@_0BH@MPOINNNJ@unexpected?5zlib?5return?$AA@ 10151a80     libPNG:png.obj
 0002:00023a98       ??_C@_0CA@CLCNGBEC@gamma?5value?5does?5not?5match?5sRGB?$AA@ 10151a98     libPNG:png.obj
 0002:00023ab8       ??_C@_0CL@GOLDHPHF@gamma?5value?5does?5not?5match?5libpn@ 10151ab8     libPNG:png.obj
 0002:00023ae4       ??_C@_0BJ@PAAJEMGL@gamma?5value?5out?5of?5range?$AA@ 10151ae4     libPNG:png.obj
 0002:00023b00       ??_C@_09KHIKJOBP@duplicate?$AA@ 10151b00     libPNG:png.obj
 0002:00023b0c       ??_C@_0BM@HJJDGHNN@inconsistent?5chromaticities?$AA@ 10151b0c     libPNG:png.obj
 0002:00023b28       ??_C@_0BH@LBOFIDPO@invalid?5chromaticities?$AA@ 10151b28     libPNG:png.obj
 0002:00023b40       ??_C@_0CH@BBPMHCN@internal?5error?5checking?5chromati@ 10151b40     libPNG:png.obj
 0002:00023b68       ??_C@_09EIINAFOA@profile?5?8?$AA@ 10151b68     libPNG:png.obj
 0002:00023b74       ??_C@_03FPCGPDIA@?8?3?5?$AA@ 10151b74     libPNG:png.obj
 0002:00023b78       ??_C@_03JMFBLLOL@h?3?5?$AA@ 10151b78     libPNG:png.obj
 0002:00023b7c       ??_C@_0BO@IGFOGDFM@invalid?5sRGB?5rendering?5intent?$AA@ 10151b7c     libPNG:png.obj
 0002:00023b9c       ??_C@_04FBDBODBG@sRGB?$AA@ 10151b9c     libPNG:png.obj
 0002:00023ba4       ??_C@_0BP@PJLHGALD@inconsistent?5rendering?5intents?$AA@ 10151ba4     libPNG:png.obj
 0002:00023bc4       ??_C@_0CD@CDNBECKE@duplicate?5sRGB?5information?5ignor@ 10151bc4     libPNG:png.obj
 0002:00023be8       ??_C@_0BP@NCEJAGKE@cHRM?5chunk?5does?5not?5match?5sRGB?$AA@ 10151be8     libPNG:png.obj
 0002:00023c08       ??_C@_09PNOMNDOP@too?5short?$AA@ 10151c08     libPNG:png.obj
 0002:00023c14       ??_C@_0P@BHAFPBHF@invalid?5length?$AA@ 10151c14     libPNG:png.obj
 0002:00023c24       ??_C@_0BO@EOFNLIJI@length?5does?5not?5match?5profile?$AA@ 10151c24     libPNG:png.obj
 0002:00023c44       ??_C@_0BE@CNFFOELI@tag?5count?5too?5large?$AA@ 10151c44     libPNG:png.obj
 0002:00023c58       ??_C@_0BJ@NOHNGFGM@invalid?5rendering?5intent?$AA@ 10151c58     libPNG:png.obj
 0002:00023c74       ??_C@_0BN@BMHOENEG@intent?5outside?5defined?5range?$AA@ 10151c74     libPNG:png.obj
 0002:00023c94       ??_C@_0BC@HAKEGDIP@invalid?5signature?$AA@ 10151c94     libPNG:png.obj
 0002:00023ca8       ??_C@_0BK@MEJNAFGD@PCS?5illuminant?5is?5not?5D50?$AA@ 10151ca8     libPNG:png.obj
 0002:00023cc4       ??_C@_0CP@GHPMDODC@RGB?5color?5space?5not?5permitted?5on@ 10151cc4     libPNG:png.obj
 0002:00023cf4       ??_C@_0CK@CEMFCLCA@Gray?5color?5space?5not?5permitted?5o@ 10151cf4     libPNG:png.obj
 0002:00023d20       ??_C@_0CA@HOHKIILJ@invalid?5ICC?5profile?5color?5space?$AA@ 10151d20     libPNG:png.obj
 0002:00023d40       ??_C@_0CG@INEPEFFI@invalid?5embedded?5Abstract?5ICC?5pr@ 10151d40     libPNG:png.obj
 0002:00023d68       ??_C@_0CI@NFBGKLIH@unexpected?5DeviceLink?5ICC?5profil@ 10151d68     libPNG:png.obj
 0002:00023d90       ??_C@_0CI@NDFPJEMP@unexpected?5NamedColor?5ICC?5profil@ 10151d90     libPNG:png.obj
 0002:00023db8       ??_C@_0BP@DOFHBNBO@unrecognized?5ICC?5profile?5class?$AA@ 10151db8     libPNG:png.obj
 0002:00023dd8       ??_C@_0BM@BPHIMDPD@unexpected?5ICC?5PCS?5encoding?$AA@ 10151dd8     libPNG:png.obj
 0002:00023df4       ??_C@_0CK@FLMCLBG@ICC?5profile?5tag?5start?5not?5a?5mult@ 10151df4     libPNG:png.obj
 0002:00023e20       ??_C@_0CA@NKEPDGAJ@ICC?5profile?5tag?5outside?5profile?$AA@ 10151e20     libPNG:png.obj
 0002:00023e40       ??_C@_0BN@NGLMALGM@known?5incorrect?5sRGB?5profile?$AA@ 10151e40     libPNG:png.obj
 0002:00023e60       ??_C@_0CL@KMCEELKM@out?9of?9date?5sRGB?5profile?5with?5no@ 10151e60     libPNG:png.obj
 0002:00023e8c       ??_C@_0DA@JJKGFIE@copyright?5violation?3?5edited?5ICC?5@ 10151e8c     libPNG:png.obj
 0002:00023ebc       ??_C@_0CK@DCDMPLDM@internal?5error?5handling?5cHRM?5coe@ 10151ebc     libPNG:png.obj
 0002:00023ee8       ??_C@_0CC@BANLOLFJ@internal?5error?5handling?5cHRM?9?$DOXY@ 10151ee8     libPNG:png.obj
 0002:00023f0c       ??_C@_0BM@CEAELHL@Image?5width?5is?5zero?5in?5IHDR?$AA@ 10151f0c     libPNG:png.obj
 0002:00023f28       ??_C@_0BN@CMEOFBLN@Image?5height?5is?5zero?5in?5IHDR?$AA@ 10151f28     libPNG:png.obj
 0002:00023f48       ??_C@_0CH@COHNFPDF@Image?5width?5exceeds?5user?5limit?5i@ 10151f48     libPNG:png.obj
 0002:00023f70       ??_C@_0CI@HDNDADNB@Image?5height?5exceeds?5user?5limit?5@ 10151f70     libPNG:png.obj
 0002:00023f98       ??_C@_0BM@KHHGCJLE@Invalid?5image?5width?5in?5IHDR?$AA@ 10151f98     libPNG:png.obj
 0002:00023fb4       ??_C@_0BN@NOEKCPOM@Invalid?5image?5height?5in?5IHDR?$AA@ 10151fb4     libPNG:png.obj
 0002:00023fd4       ??_C@_0BK@OAKOLNFJ@Invalid?5bit?5depth?5in?5IHDR?$AA@ 10151fd4     libPNG:png.obj
 0002:00023ff0       ??_C@_0BL@KPIFPGMP@Invalid?5color?5type?5in?5IHDR?$AA@ 10151ff0     libPNG:png.obj
 0002:0002400c       ??_C@_0DB@FGMBGHOJ@Invalid?5color?5type?1bit?5depth?5com@ 1015200c     libPNG:png.obj
 0002:00024040       ??_C@_0CB@EMHJMLOA@Unknown?5interlace?5method?5in?5IHDR@ 10152040     libPNG:png.obj
 0002:00024064       ??_C@_0CD@DDOOCEDP@Unknown?5compression?5method?5in?5IH@ 10152064     libPNG:png.obj
 0002:00024088       ??_C@_0DB@CJBLKABO@MNG?5features?5are?5not?5allowed?5in?5@ 10152088     libPNG:png.obj
 0002:000240bc       ??_C@_0BO@KOOEGEDO@Unknown?5filter?5method?5in?5IHDR?$AA@ 101520bc     libPNG:png.obj
 0002:000240dc       ??_C@_0BO@PAJOKPHG@Invalid?5filter?5method?5in?5IHDR?$AA@ 101520dc     libPNG:png.obj
 0002:000240fc       ??_C@_0BC@MEPNMCAI@Invalid?5IHDR?5data?$AA@ 101520fc     libPNG:png.obj
 0002:00024110       ??_C@_0BK@FEDMIILC@gamma?5table?5being?5rebuilt?$AA@ 10152110     libPNG:png.obj
 0002:0002412c       ??_C@_0BJ@BIPJEANG@fixed?5point?5overflow?5in?5?$AA@ 1015212c     libPNG:pngerror.obj
 0002:00024148       ??_C@_0BP@OGHIMAJC@Libpng?5jmp_buf?5still?5allocated?$AA@ 10152148     libPNG:pngerror.obj
 0002:00024168       ??_C@_0CB@MNPMICGC@Application?5jmp_buf?5size?5changed@ 10152168     libPNG:pngerror.obj
 0002:0002418c       ??_C@_09MLGAJAED@undefined?$AA@ 1015218c     libPNG:pngerror.obj
 0002:00024198       ??_C@_0BB@FHIOKKKG@libpng?5error?3?5?$CFs?$AA@ 10152198     libPNG:pngerror.obj
 0002:000241ac       ??_C@_0BD@OLJIBHNB@libpng?5warning?3?5?$CFs?$AA@ 101521ac     libPNG:pngerror.obj
 0002:000241c0       ??_C@_0BL@GPADEDKN@Call?5to?5NULL?5read?5function?$AA@ 101521c0     libPNG:pngrio.obj
 0002:000241dc       ??_C@_0L@BAFDDAPG@Read?5Error?$AA@ 101521dc     libPNG:pngrio.obj
 0002:000241e8       ??_C@_0EE@LKAKJMIG@Can?8t?5set?5both?5read_data_fn?5and?5@ 101521e8     libPNG:pngrio.obj
 0002:0002422c       ??_C@_0CC@MDLFHCPJ@Writing?5zero?9length?5unknown?5chun@ 1015222c     libPNG:pngwrite.obj
 0002:00024250       ??_C@_0CO@EFONKKHE@profile?5matches?5sRGB?5but?5writing@ 10152250     libPNG:pngwrite.obj
 0002:00024280       ??_C@_0CL@BBINJHDH@Valid?5palette?5required?5for?5palet@ 10152280     libPNG:pngwrite.obj
 0002:000242ac       ??_C@_0BL@LMBFPIMK@No?5IDATs?5written?5into?5file?$AA@ 101522ac     libPNG:pngwrite.obj
 0002:000242c8       ??_C@_0CK@IDMGDACI@Wrote?5palette?5index?5exceeding?5nu@ 101522c8     libPNG:pngwrite.obj
 0002:000242f4       ??_C@_0DF@HCKCLABC@png_write_info?5was?5never?5called?5@ 101522f4     libPNG:pngwrite.obj
 0002:0002432c       ??_C@_0CF@LGBPMINO@internal?5write?5transform?5logic?5e@ 1015232c     libPNG:pngwrite.obj
 0002:00024354       ??_C@_02GMLFBBN@wb?$AA@    10152354     libPNG:pngwrite.obj
 0002:00024358       ??_C@_0BM@HGGPCIDB@Call?5to?5NULL?5write?5function?$AA@ 10152358     libPNG:pngwio.obj
 0002:00024374       ??_C@_0M@POLPJMAP@Write?5Error?$AA@ 10152374     libPNG:pngwio.obj
 0002:00024380       ??_C@_0CO@CLNKJNCD@Invalid?5palette?5size?0?5hIST?5alloc@ 10152380     libPNG:pngset.obj
 0002:000243b0       ??_C@_0CI@FEJILDIH@Insufficient?5memory?5for?5hIST?5chu@ 101523b0     libPNG:pngset.obj
 0002:000243d8       ??_C@_0BL@BGONKFBB@Invalid?5pCAL?5equation?5type?$AA@ 101523d8     libPNG:pngset.obj
 0002:000243f4       ??_C@_0BN@FHGDAAAD@Invalid?5pCAL?5parameter?5count?$AA@ 101523f4     libPNG:pngset.obj
 0002:00024414       ??_C@_0CC@LPAJHANK@Invalid?5format?5for?5pCAL?5paramete@ 10152414     libPNG:pngset.obj
 0002:00024438       ??_C@_0CF@CKIMKPAH@Insufficient?5memory?5for?5pCAL?5pur@ 10152438     libPNG:pngset.obj
 0002:00024460       ??_C@_0CD@PAPNLFE@Insufficient?5memory?5for?5pCAL?5uni@ 10152460     libPNG:pngset.obj
 0002:00024484       ??_C@_0CE@KNDKKCDF@Insufficient?5memory?5for?5pCAL?5par@ 10152484     libPNG:pngset.obj
 0002:000244a8       ??_C@_0CH@CAHFGHFJ@Insufficient?5memory?5for?5pCAL?5par@ 101524a8     libPNG:pngset.obj
 0002:000244d0       ??_C@_0BC@GANANPIA@Invalid?5sCAL?5unit?$AA@ 101524d0     libPNG:pngset.obj
 0002:000244e4       ??_C@_0BD@ENHOBHJG@Invalid?5sCAL?5width?$AA@ 101524e4     libPNG:pngset.obj
 0002:000244f8       ??_C@_0BE@OBKOEAI@Invalid?5sCAL?5height?$AA@ 101524f8     libPNG:pngset.obj
 0002:0002450c       ??_C@_0CP@EHHAKMDE@Memory?5allocation?5failed?5while?5p@ 1015250c     libPNG:pngset.obj
 0002:0002453c       ??_C@_0BH@IKBNLCFC@Invalid?5palette?5length?$AA@ 1015253c     libPNG:pngset.obj
 0002:00024554       ??_C@_0BA@NCKCMMNF@Invalid?5palette?$AA@ 10152554     libPNG:pngset.obj
 0002:00024564       ??_C@_0CC@LLCCFJFC@Insufficient?5memory?5to?5store?5tex@ 10152564     libPNG:pngset.obj
 0002:00024588       ??_C@_0BF@EPLDENLO@too?5many?5text?5chunks?$AA@ 10152588     libPNG:pngset.obj
 0002:000245a0       ??_C@_0CG@KOBFBGAM@text?5compression?5mode?5is?5out?5of?5@ 101525a0     libPNG:pngset.obj
 0002:000245c8       ??_C@_0BK@FPMAJGNB@text?5chunk?3?5out?5of?5memory?$AA@ 101525c8     libPNG:pngset.obj
 0002:000245e4       ??_C@_0DC@BAKLMMNF@tRNS?5chunk?5has?5out?9of?9range?5samp@ 101525e4     libPNG:pngset.obj
 0002:00024618       ??_C@_0BF@IBPPODIO@too?5many?5sPLT?5chunks?$AA@ 10152618     libPNG:pngset.obj
 0002:00024630       ??_C@_0BL@FDLCPBMN@png_set_sPLT?3?5invalid?5sPLT?$AA@ 10152630     libPNG:pngset.obj
 0002:0002464c       ??_C@_0BD@FCEBHNK@sPLT?5out?5of?5memory?$AA@ 1015264c     libPNG:pngset.obj
 0002:00024660       ??_C@_0DE@GDJFMIAK@png_set_unknown_chunks?5now?5expec@ 10152660     libPNG:pngset.obj
 0002:00024694       ??_C@_0CL@HCECGJBJ@invalid?5location?5in?5png_set_unkn@ 10152694     libPNG:pngset.obj
 0002:000246c0       ??_C@_0BI@DHBNAPDO@too?5many?5unknown?5chunks?$AA@ 101526c0     libPNG:pngset.obj
 0002:000246d8       ??_C@_0BN@IMBDGIBC@unknown?5chunk?3?5out?5of?5memory?$AA@ 101526d8     libPNG:pngset.obj
 0002:000246f8       ??_C@_0CC@CLHKAOCN@PNG?5unsigned?5integer?5out?5of?5rang@ 101526f8     libPNG:pngrutil.obj
 0002:0002471c       ??_C@_0P@KIMIGLKH@Not?5a?5PNG?5file?$AA@ 1015271c     libPNG:pngrutil.obj
 0002:0002472c       ??_C@_0CH@NMANOLCN@PNG?5file?5corrupted?5by?5ASCII?5conv@ 1015272c     libPNG:pngrutil.obj
 0002:00024754       ??_C@_09BJGMGMHA@CRC?5error?$AA@ 10152754     libPNG:pngrutil.obj
 0002:00024760       ??_C@_0CC@DELNGCGA@insufficient?5memory?5to?5read?5chun@ 10152760     libPNG:pngrutil.obj
 0002:00024784       ??_C@_0P@KJIHHBLD@?5using?5zstream?$AA@ 10152784     libPNG:pngrutil.obj
 0002:00024794       ??_C@_0BC@HNCILENJ@zstream?5unclaimed?$AA@ 10152794     libPNG:pngrutil.obj
 0002:000247a8       ??_C@_0BG@GCPIOAHM@extra?5compressed?5data?$AA@ 101527a8     libPNG:pngrutil.obj
 0002:000247c0       ??_C@_0N@LIMFFBPG@out?5of?5place?$AA@ 101527c0     libPNG:pngrutil.obj
 0002:000247d0       ??_C@_07MALOAKCI@invalid?$AA@ 101527d0     libPNG:pngrutil.obj
 0002:000247d8       ??_C@_0N@POFAPNKG@missing?5IHDR?$AA@ 101527d8     libPNG:pngrutil.obj
 0002:000247e8       ??_C@_0BJ@CHOIBJOP@ignored?5in?5grayscale?5PNG?$AA@ 101527e8     libPNG:pngrutil.obj
 0002:00024804       ??_C@_0BD@NJKCAGJC@tRNS?5must?5be?5after?$AA@ 10152804     libPNG:pngrutil.obj
 0002:00024818       ??_C@_0BD@BELMAJD@hIST?5must?5be?5after?$AA@ 10152818     libPNG:pngrutil.obj
 0002:0002482c       ??_C@_0BD@PLPEDAEI@bKGD?5must?5be?5after?$AA@ 1015282c     libPNG:pngrutil.obj
 0002:00024840       ??_C@_0P@HLDILOEK@invalid?5values?$AA@ 10152840     libPNG:pngrutil.obj
 0002:00024850       ??_C@_0BC@CBGHBEBH@too?5many?5profiles?$AA@ 10152850     libPNG:pngrutil.obj
 0002:00024864       ??_C@_0O@BNNCBLEN@out?5of?5memory?$AA@ 10152864     libPNG:pngrutil.obj
 0002:00024874       ??_C@_0BH@KIAOMNIJ@bad?5compression?5method?$AA@ 10152874     libPNG:pngrutil.obj
 0002:0002488c       ??_C@_0M@INJFOOOH@bad?5keyword?$AA@ 1015288c     libPNG:pngrutil.obj
 0002:00024898       ??_C@_0CB@KEIBOKCA@No?5space?5in?5chunk?5cache?5for?5sPLT@ 10152898     libPNG:pngrutil.obj
 0002:000248bc       ??_C@_0BF@JHCGGFHI@malformed?5sPLT?5chunk?$AA@ 101528bc     libPNG:pngrutil.obj
 0002:000248d4       ??_C@_0BK@FFJLCLGE@sPLT?5chunk?5has?5bad?5length?$AA@ 101528d4     libPNG:pngrutil.obj
 0002:000248f0       ??_C@_0BE@HJCMKPPM@sPLT?5chunk?5too?5long?$AA@ 101528f0     libPNG:pngrutil.obj
 0002:00024904       ??_C@_0CE@MCMAFPMA@sPLT?5chunk?5requires?5too?5much?5mem@ 10152904     libPNG:pngrutil.obj
 0002:00024928       ??_C@_0BL@MHLOEJAP@invalid?5with?5alpha?5channel?$AA@ 10152928     libPNG:pngrutil.obj
 0002:00024944       ??_C@_0O@BGLHAEFA@invalid?5index?$AA@ 10152944     libPNG:pngrutil.obj
 0002:00024954       ??_C@_0BI@LAIHDGGP@invalid?5parameter?5count?$AA@ 10152954     libPNG:pngrutil.obj
 0002:0002496c       ??_C@_0BL@OJIHHCAK@unrecognized?5equation?5type?$AA@ 1015296c     libPNG:pngrutil.obj
 0002:00024988       ??_C@_0N@FNKMFOEC@invalid?5data?$AA@ 10152988     libPNG:pngrutil.obj
 0002:00024998       ??_C@_0N@HLAECGBB@invalid?5unit?$AA@ 10152998     libPNG:pngrutil.obj
 0002:000249a8       ??_C@_0BB@CJAEGFPG@bad?5width?5format?$AA@ 101529a8     libPNG:pngrutil.obj
 0002:000249bc       ??_C@_0BD@PGENKNPL@non?9positive?5width?$AA@ 101529bc     libPNG:pngrutil.obj
 0002:000249d0       ??_C@_0BC@EEJECMAN@bad?5height?5format?$AA@ 101529d0     libPNG:pngrutil.obj
 0002:000249e4       ??_C@_0BE@DNKCMKFH@non?9positive?5height?$AA@ 101529e4     libPNG:pngrutil.obj
 0002:000249f8       ??_C@_0BI@EMEPIKPK@no?5space?5in?5chunk?5cache?$AA@ 101529f8     libPNG:pngrutil.obj
 0002:00024a10       ??_C@_0CK@DGKIICIA@Insufficient?5memory?5to?5process?5t@ 10152a10     libPNG:pngrutil.obj
 0002:00024a3c       ??_C@_0BJ@FKGJGMAA@unknown?5compression?5type?$AA@ 10152a3c     libPNG:pngrutil.obj
 0002:00024a58       ??_C@_0BF@LLHBOPCG@bad?5compression?5info?$AA@ 10152a58     libPNG:pngrutil.obj
 0002:00024a70       ??_C@_0CE@OGILCCBP@unknown?5chunk?5exceeds?5memory?5lim@ 10152a70     libPNG:pngrutil.obj
 0002:00024a94       ??_C@_0BE@IFBNEDBM@error?5in?5user?5chunk?$AA@ 10152a94     libPNG:pngrutil.obj
 0002:00024aa8       ??_C@_0BG@IANHEEOB@Saving?5unknown?5chunk?3?$AA@ 10152aa8     libPNG:pngrutil.obj
 0002:00024ac0       ??_C@_0EM@CPAIEDFN@forcing?5save?5of?5an?5unhandled?5chu@ 10152ac0     libPNG:pngrutil.obj
 0002:00024b0c       ??_C@_0BJ@OGKNBOLG@unhandled?5critical?5chunk?$AA@ 10152b0c     libPNG:pngrutil.obj
 0002:00024b28       ??_C@_0BD@GFBMLKLH@invalid?5chunk?5type?$AA@ 10152b28     libPNG:pngrutil.obj
 0002:00024b3c       ??_C@_0BJ@DILPAFHB@internal?5row?5logic?5error?$AA@ 10152b3c     libPNG:pngrutil.obj
 0002:00024b58       ??_C@_0CE@DMJCLOFE@internal?5row?5size?5calculation?5er@ 10152b58     libPNG:pngrutil.obj
 0002:00024b7c       ??_C@_0BJ@EGFCIELD@internal?5row?5width?5error?$AA@ 10152b7c     libPNG:pngrutil.obj
 0002:00024b98       ??_C@_0CD@FPHNEGJK@invalid?5user?5transform?5pixel?5dep@ 10152b98     libPNG:pngrutil.obj
 0002:00024bbc       ??_C@_0BG@EIEOOJHA@Not?5enough?5image?5data?$AA@ 10152bbc     libPNG:pngrutil.obj
 0002:00024bd4       ??_C@_0BG@OKGHHCLP@Extra?5compressed?5data?$AA@ 10152bd4     libPNG:pngrutil.obj
 0002:00024bec       ??_C@_0BE@EFPCKDCF@Too?5much?5image?5data?$AA@ 10152bec     libPNG:pngrutil.obj
 0002:00024c00       ??_C@_0CN@PNKHKIBI@Row?5has?5too?5many?5bytes?5to?5alloca@ 10152c00     libPNG:pngrutil.obj
 0002:00024c30       ??_C@_0BM@JALLIJNF@internal?5error?3?5array?5alloc?$AA@ 10152c30     libPNG:pngmem.obj
 0002:00024c4c       ??_C@_0BO@KBIBCEFP@internal?5error?3?5array?5realloc?$AA@ 10152c4c     libPNG:pngmem.obj
 0002:00024c6c       ??_C@_0BK@CDODNLIN@length?5exceeds?5PNG?5maxima?$AA@ 10152c6c     libPNG:pngwutil.obj
 0002:00024c88       ??_C@_0P@IEMGANLE@in?5use?5by?5IDAT?$AA@ 10152c88     libPNG:pngwutil.obj
 0002:00024c98       ??_C@_0BM@OCCEEGNK@deflateEnd?5failed?5?$CIignored?$CJ?$AA@ 10152c98     libPNG:pngwutil.obj
 0002:00024cb4       ??_C@_0BJ@IAKKIGHC@compressed?5data?5too?5long?$AA@ 10152cb4     libPNG:pngwutil.obj
 0002:00024cd0       ??_C@_0DA@PBMGOJBC@error?5writing?5ancillary?5chunked?5@ 10152cd0     libPNG:pngwutil.obj
 0002:00024d00       ??_C@_0BC@KIPGKHJI@keyword?5truncated?$AA@ 10152d00     libPNG:pngwutil.obj
 0002:00024d14       ??_C@_0CD@ECFBBIHG@keyword?5?$CC?$EA1?$CC?3?5bad?5character?5?80x?$EA@ 10152d14     libPNG:pngwutil.obj
 0002:00024d38       ??_C@_0CG@NMBHOEGJ@Invalid?5bit?5depth?5for?5grayscale?5@ 10152d38     libPNG:pngwutil.obj
 0002:00024d60       ??_C@_0CA@JFINDAEN@Invalid?5bit?5depth?5for?5RGB?5image?$AA@ 10152d60     libPNG:pngwutil.obj
 0002:00024d80       ??_C@_0CF@KCHGLJIB@Invalid?5bit?5depth?5for?5paletted?5i@ 10152d80     libPNG:pngwutil.obj
 0002:00024da8       ??_C@_0CM@FPEKKHEM@Invalid?5bit?5depth?5for?5grayscale?$CL@ 10152da8     libPNG:pngwutil.obj
 0002:00024dd4       ??_C@_0CB@KFCOJLNF@Invalid?5bit?5depth?5for?5RGBA?5image@ 10152dd4     libPNG:pngwutil.obj
 0002:00024df8       ??_C@_0CD@BMDFBAM@Invalid?5image?5color?5type?5specifi@ 10152df8     libPNG:pngwutil.obj
 0002:00024e1c       ??_C@_0CD@KAANFJDM@Invalid?5compression?5type?5specifi@ 10152e1c     libPNG:pngwutil.obj
 0002:00024e40       ??_C@_0BO@NHOMDFKG@Invalid?5filter?5type?5specified?$AA@ 10152e40     libPNG:pngwutil.obj
 0002:00024e60       ??_C@_0CB@INFMBLLB@Invalid?5interlace?5type?5specified@ 10152e60     libPNG:pngwutil.obj
 0002:00024e84       ??_C@_0CE@HMOECEJ@Invalid?5number?5of?5colors?5in?5pale@ 10152e84     libPNG:pngwutil.obj
 0002:00024ea8       ??_C@_0DI@EOMIECBC@Ignoring?5request?5to?5write?5a?5PLTE@ 10152ea8     libPNG:pngwutil.obj
 0002:00024ee0       ??_C@_0CD@BPNHOCCE@Z_OK?5on?5Z_FINISH?5with?5output?5spa@ 10152ee0     libPNG:pngwutil.obj
 0002:00024f04       ??_C@_0CI@CGCNKNIG@Invalid?5sRGB?5rendering?5intent?5sp@ 10152f04     libPNG:pngwutil.obj
 0002:00024f2c       ??_C@_0BK@JEAONDOG@No?5profile?5for?5iCCP?5chunk?$AA@ 10152f2c     libPNG:pngwutil.obj
 0002:00024f48       ??_C@_0BG@MPGAAJPH@ICC?5profile?5too?5short?$AA@ 10152f48     libPNG:pngwutil.obj
 0002:00024f60       ??_C@_0DB@CAJKDDJN@ICC?5profile?5length?5invalid?5?$CInot?5@ 10152f60     libPNG:pngwutil.obj
 0002:00024f94       ??_C@_0BG@GPLJJLKB@iCCP?3?5invalid?5keyword?$AA@ 10152f94     libPNG:pngwutil.obj
 0002:00024fac       ??_C@_0BG@PEFANDKM@sPLT?3?5invalid?5keyword?$AA@ 10152fac     libPNG:pngwutil.obj
 0002:00024fc4       ??_C@_0BN@EBBMENIF@Invalid?5sBIT?5depth?5specified?$AA@ 10152fc4     libPNG:pngwutil.obj
 0002:00024fe4       ??_C@_0CP@PFJBFCBG@Invalid?5number?5of?5transparent?5co@ 10152fe4     libPNG:pngwutil.obj
 0002:00025018       ??_C@_0EA@GMIFOPEM@Ignoring?5attempt?5to?5write?5tRNS?5c@ 10153018     libPNG:pngwutil.obj
 0002:00025058       ??_C@_0EA@JIMPJFKJ@Ignoring?5attempt?5to?5write?516?9bit@ 10153058     libPNG:pngwutil.obj
 0002:00025098       ??_C@_0CH@JCFDIEK@Can?8t?5write?5tRNS?5with?5an?5alpha?5c@ 10153098     libPNG:pngwutil.obj
 0002:000250c0       ??_C@_0CB@BIGCBPLL@Invalid?5background?5palette?5index@ 101530c0     libPNG:pngwutil.obj
 0002:000250e8       ??_C@_0EA@PGJGJFFB@Ignoring?5attempt?5to?5write?516?9bit@ 101530e8     libPNG:pngwutil.obj
 0002:00025128       ??_C@_0EA@NFOOLGHI@Ignoring?5attempt?5to?5write?5bKGD?5c@ 10153128     libPNG:pngwutil.obj
 0002:00025168       ??_C@_0CO@KLGKHOE@Invalid?5number?5of?5histogram?5entr@ 10153168     libPNG:pngwutil.obj
 0002:00025198       ??_C@_0BG@NPOBEOEN@tEXt?3?5invalid?5keyword?$AA@ 10153198     libPNG:pngwutil.obj
 0002:000251b0       ??_C@_0BE@FBHBOAAH@tEXt?3?5text?5too?5long?$AA@ 101531b0     libPNG:pngwutil.obj
 0002:000251c4       ??_C@_0BP@JDMOLNCF@zTXt?3?5invalid?5compression?5type?$AA@ 101531c4     libPNG:pngwutil.obj
 0002:000251e4       ??_C@_0BG@MAGNKDLP@zTXt?3?5invalid?5keyword?$AA@ 101531e4     libPNG:pngwutil.obj
 0002:000251fc       ??_C@_0BG@FAOCEELO@iTXt?3?5invalid?5keyword?$AA@ 101531fc     libPNG:pngwutil.obj
 0002:00025214       ??_C@_0BK@DICHOCDF@iTXt?3?5invalid?5compression?$AA@ 10153214     libPNG:pngwutil.obj
 0002:00025230       ??_C@_0CB@BLFBJFOA@iTXt?3?5uncompressed?5text?5too?5long@ 10153230     libPNG:pngwutil.obj
 0002:00025254       ??_C@_0CG@LALPJLHA@Unrecognized?5unit?5type?5for?5oFFs?5@ 10153254     libPNG:pngwutil.obj
 0002:0002527c       ??_C@_0CK@GBCGFDCK@Unrecognized?5equation?5type?5for?5p@ 1015327c     libPNG:pngwutil.obj
 0002:000252a8       ??_C@_0BG@FBGAMOMB@pCAL?3?5invalid?5keyword?$AA@ 101532a8     libPNG:pngwutil.obj
 0002:000252c0       ??_C@_0CE@GHBDGPIG@Can?8t?5write?5sCAL?5?$CIbuffer?5too?5sma@ 101532c0     libPNG:pngwutil.obj
 0002:000252e4       ??_C@_0CG@OAABBGGO@Unrecognized?5unit?5type?5for?5pHYs?5@ 101532e4     libPNG:pngwutil.obj
 0002:0002530c       ??_C@_0CG@IADLICLG@Invalid?5time?5specified?5for?5tIME?5@ 1015330c     libPNG:pngwutil.obj
 0002:00025338       ??_C@_0EC@HENBOIOF@Read?5from?5memory?5error?4?5Got?5?$CFd?5b@ 10153338     lcms:cmsio0.obj
 0002:0002537c       ??_C@_0CJ@PBMIOLAN@Too?5few?5data?$DL?5probably?5corrupted@ 1015337c     lcms:cmsio0.obj
 0002:000253a8       ??_C@_0CI@IDACEJJO@Couldn?8t?5read?5profile?5from?5NULL?5@ 101533a8     lcms:cmsio0.obj
 0002:000253d0       ??_C@_0CI@FBACEILJ@Couldn?8t?5allocate?5?$CFld?5bytes?5for?5@ 101533d0     lcms:cmsio0.obj
 0002:000253f8       ??_C@_0BJ@HOIDLEMJ@Unknown?5access?5mode?5?8?$CFc?8?$AA@ 101533f8     lcms:cmsio0.obj
 0002:00025414       ??_C@_0DG@EGCPMNKB@Read?5error?4?5Got?5?$CFd?5bytes?0?5block?5@ 10153414     lcms:cmsio0.obj
 0002:0002544c       ??_C@_0CE@FOFFALFI@Seek?5error?$DL?5probably?5corrupted?5f@ 1015344c     lcms:cmsio0.obj
 0002:00025470       ??_C@_0BE@FJNFGNJC@File?5?8?$CFs?8?5not?5found?$AA@ 10153470     lcms:cmsio0.obj
 0002:00025484       ??_C@_0BF@IOKNJLDN@Couldn?8t?5create?5?8?$CFs?8?$AA@ 10153484     lcms:cmsio0.obj
 0002:0002549c       ??_C@_0BI@DLLLMNLN@Tag?5?8?$CFx?8?5already?5exists?$AA@ 1015349c     lcms:cmsio0.obj
 0002:000254b4       ??_C@_0BD@JMMMDFNL@Too?5many?5tags?5?$CI?$CFd?$CJ?$AA@ 101534b4     lcms:cmsio0.obj
 0002:000254c8       ??_C@_0CG@NLDDKNPC@not?5an?5ICC?5profile?0?5invalid?5sign@ 101534c8     lcms:cmsio0.obj
 0002:000254f0       ??_C@_0CB@FNKNDEEO@?$CIInternal?$CJ?5no?5handler?5for?5tag?5?$CFx@ 101534f0     lcms:cmsio0.obj
 0002:00025514       ??_C@_0BJ@FBKOJGB@Couldn?8t?5write?5type?5?8?$CFs?8?$AA@ 10153514     lcms:cmsio0.obj
 0002:00025530       ??_C@_0BD@BIMHEJDA@Corrupted?5tag?5?8?$CFs?8?$AA@ 10153530     lcms:cmsio0.obj
 0002:00025544       ??_C@_0DH@DCJPPHOD@?8?$CFs?8?5Inconsistent?5number?5of?5item@ 10153544     lcms:cmsio0.obj
 0002:0002557c       ??_C@_0BF@BDDLIOKO@Unsupported?5tag?5?8?$CFx?8?$AA@ 1015357c     lcms:cmsio0.obj
 0002:00025594       ??_C@_0CD@PJOOLCAA@Unsupported?5type?5?8?$CFs?8?5for?5tag?5?8?$CF@ 10153594     lcms:cmsio0.obj
 0002:000255b8       ??_C@_0CL@BPICAPKH@Malformed?5struct?5in?5type?5?8?$CFs?8?5fo@ 101535b8     lcms:cmsio0.obj
 0002:000255e4       ??_C@_0BK@ONICMJAI@Unsupported?5raster?5format?$AA@ 101535e4     lcms:cmsxform.obj
 0002:00025600       ??_C@_0CB@CAFJLCLI@NULL?5input?5profiles?5on?5transform@ 10153600     lcms:cmsxform.obj
 0002:00025624       ??_C@_0CF@KNLABPMG@Wrong?5input?5color?5space?5on?5trans@ 10153624     lcms:cmsxform.obj
 0002:0002564c       ??_C@_0CG@OGDNLNLL@Wrong?5output?5color?5space?5on?5tran@ 1015364c     lcms:cmsxform.obj
 0002:00025674       ??_C@_0BL@CHIHEGM@Couldn?8t?5link?5the?5profiles?$AA@ 10153674     lcms:cmsxform.obj
 0002:00025690       ??_C@_0DC@DCLBENE@Channel?5count?5doesn?8t?5match?4?5Pro@ 10153690     lcms:cmsxform.obj
 0002:000256c4       ??_C@_0DF@JGEGJNLA@Wrong?5number?5of?5profiles?4?51?4?4255@ 101536c4     lcms:cmsxform.obj
 0002:000256fc       ??_C@_0CE@PHMJNENE@cmsWhitePointFromTemp?3?5invalid?5t@ 101536fc     lcms:cmswtpnt.obj
 0002:00025720       ??_C@_1DC@MIIABLA@?$AAN?$AAo?$AA?5?$AAc?$AAo?$AAp?$AAy?$AAr?$AAi?$AAg?$AAh?$AAt?$AA?0?$AA?5?$AAu?$AAs?$AAe?$AA?5?$AAf?$AAr?$AAe?$AAe?$AAl?$AAy?$AA?$AA@ 10153720     lcms:cmsvirt.obj
 0002:00025754       ??_C@_02LOCGON@?$AA?$AA?$AA@ 10153754     lcms:cmsvirt.obj
 0002:00025758       ??_C@_1BK@ODNHFBIM@?$AAR?$AAG?$AAB?$AA?5?$AAb?$AAu?$AAi?$AAl?$AAt?$AA?9?$AAi?$AAn?$AA?$AA@ 10153758     lcms:cmsvirt.obj
 0002:00025774       ??_C@_1CM@HFBMKACA@?$AAL?$AAa?$AAb?$AA?5?$AAi?$AAd?$AAe?$AAn?$AAt?$AAi?$AAt?$AAy?$AA?5?$AAb?$AAu?$AAi?$AAl?$AAt?$AA?9?$AAi?$AAn?$AA?$AA@ 10153774     lcms:cmsvirt.obj
 0002:000257a0       ??_C@_0DG@DAENFMPF@Couldn?8t?5create?5tone?5curve?5of?5mo@ 101537a0     lcms:cmsgamma.obj
 0002:000257d8       ??_C@_0DL@NNEGPMHF@Couldn?8t?5create?5tone?5curve?5with?5@ 101537d8     lcms:cmsgamma.obj
 0002:00025814       ??_C@_0CB@BEAJOFEK@Invalid?5parametric?5curve?5type?5?$CFd@ 10153814     lcms:cmsgamma.obj
 0002:00025838       ??_C@_11LOCGONAA@?$AA?$AA@ 10153838     lcms:cmstypes.obj
 0002:0002583c       ??_C@_0CD@KCBEPPAD@Unknown?5parametric?5curve?5type?5?8?$CF@ 1015383c     lcms:cmstypes.obj
 0002:00025860       ??_C@_0DN@HNKCCBOO@Multisegment?5or?5Inverted?5paramet@ 10153860     lcms:cmstypes.obj
 0002:000258a0       ??_C@_0BN@EDFFKJHA@Unsupported?5parametric?5curve?$AA@ 101538a0     lcms:cmstypes.obj
 0002:000258c0       ??_C@_0DJ@OPPEBCCK@multiLocalizedUnicodeType?5of?5len@ 101538c0     lcms:cmstypes.obj
 0002:000258fc       ??_C@_0CL@PJACHFCE@LUT8?5needs?5256?5entries?5on?5prelin@ 101538fc     lcms:cmstypes.obj
 0002:00025928       ??_C@_0CI@FHHBLBLB@LUT?5is?5not?5suitable?5to?5be?5saved?5@ 10153928     lcms:cmstypes.obj
 0002:00025950       ??_C@_0CJ@DKPMFIFB@LUT?5is?5not?5suitable?5to?5be?5saved?5@ 10153950     lcms:cmstypes.obj
 0002:0002597c       ??_C@_0BK@CIIMKOFN@Unknown?5precision?5of?5?8?$CFd?8?$AA@ 1015397c     lcms:cmstypes.obj
 0002:00025998       ??_C@_0BI@HPFEABLE@Unknown?5curve?5type?5?8?$CFs?8?$AA@ 10153998     lcms:cmstypes.obj
 0002:000259b0       ??_C@_0DL@BIOKLLEA@Cannot?5save?5floating?5point?5data?0@ 101539b0     lcms:cmstypes.obj
 0002:000259ec       ??_C@_0CL@OHDIMNFI@LUT?5is?5not?5suitable?5to?5be?5saved?5@ 101539ec     lcms:cmstypes.obj
 0002:00025a18       ??_C@_0CL@ILLFOEEL@LUT?5is?5not?5suitable?5to?5be?5saved?5@ 10153a18     lcms:cmstypes.obj
 0002:00025a44       ??_C@_0BI@BFKMBMNC@Too?5many?5colorants?5?8?$CFd?8?$AA@ 10153a44     lcms:cmstypes.obj
 0002:00025a5c       ??_C@_0BL@DNJCAEMJ@Too?5many?5named?5colors?5?8?$CFd?8?$AA@ 10153a5c     lcms:cmstypes.obj
 0002:00025a78       ??_C@_0CB@KBIFAFKN@Too?5many?5device?5coordinates?5?8?$CFd?8@ 10153a78     lcms:cmstypes.obj
 0002:00025a9c       ??_C@_02PNJEAGMK@PS?$AA@   10153a9c     lcms:cmstypes.obj
 0002:00025aa0       ??_C@_02JCKENFCN@nm?$AA@   10153aa0     lcms:cmstypes.obj
 0002:00025aa4       ??_C@_02OFPDOIKH@?$CD0?$AA@ 10153aa4     lcms:cmstypes.obj
 0002:00025aa8       ??_C@_02PMOINJOG@?$CD1?$AA@ 10153aa8     lcms:cmstypes.obj
 0002:00025aac       ??_C@_02NHMFIKCF@?$CD2?$AA@ 10153aac     lcms:cmstypes.obj
 0002:00025ab0       ??_C@_02MONOLLGE@?$CD3?$AA@ 10153ab0     lcms:cmstypes.obj
 0002:00025ab4       ??_C@_0CH@IABCOGPI@Unknown?5curve?5element?5type?5?8?$CFs?8?5@ 10153ab4     lcms:cmstypes.obj
 0002:00025adc       ??_C@_0BN@BJDFIHEG@Unknown?5MPE?5type?5?8?$CFs?8?5found?4?$AA@ 10153adc     lcms:cmstypes.obj
 0002:00025afc       ??_C@_0BM@JENPCIEF@Found?5unknown?5MPE?5type?5?8?$CFs?8?$AA@ 10153afc     lcms:cmstypes.obj
 0002:00025b18       ??_C@_0CN@NNLMDML@Unsupported?5number?5of?5channels?5f@ 10153b18     lcms:cmstypes.obj
 0002:00025b48       ??_C@_0CE@HOIBEADJ@Unsupported?5bit?5depth?5for?5VCGT?5?8@ 10153b48     lcms:cmstypes.obj
 0002:00025b6c       ??_C@_0CD@PNHDJBNP@Unsupported?5tag?5type?5for?5VCGT?5?8?$CF@ 10153b6c     lcms:cmstypes.obj
 0002:00025b90       ??_C@_0CJ@KPEMEFBH@Unknown?5record?5length?5in?5diction@ 10153b90     lcms:cmstypes.obj
 0002:00025bbc       ??_C@_0BK@NPGMPAFC@Bad?5dictionary?5Name?1Value?$AA@ 10153bbc     lcms:cmstypes.obj
 0002:00025bd8       ??_C@_0DC@PJJKCCID@Wrong?5position?5of?5PCS?4?51?4?4255?5ex@ 10153bd8     lcms:cmsgmt.obj
 0002:00025c0c       ??_C@_0CO@IFGJIAPD@Too?5many?5input?5channels?5?$CI?$CFd?5chan@ 10153c0c     lcms:cmslut.obj
 0002:00025c3c       ??_C@_0DA@HEOCGKJM@?$CIinternal?$CJ?5Attempt?5to?5PatchLUT?5o@ 10153c3c     lcms:cmsopt.obj
 0002:00025c6c       ??_C@_0DF@HOPCOCIH@?$CIinternal?$CJ?5?$CFd?5Channels?5are?5not?5s@ 10153c6c     lcms:cmsopt.obj
 0002:00025ca4       ??_C@_0BP@PGHMLJHL@Color?5?$CFd?5out?5of?5range?$DL?5ignored?$AA@ 10153ca4     lcms:cmsnamed.obj
 0002:00025cc4       ??_C@_0BE@GPNPIJJB@ColorSpace?5mismatch?$AA@ 10153cc4     lcms:cmscnvrt.obj
 0002:00025cd8       ??_C@_0BM@OKJAFLEH@Couldn?8t?5link?5?8?$CFd?8?5profiles?$AA@ 10153cd8     lcms:cmscnvrt.obj
 0002:00025cf4       ??_C@_0BI@MPGEHHCF@Unsupported?5intent?5?8?$CFd?8?$AA@ 10153cf4     lcms:cmscnvrt.obj
 0002:00025d0c       ??_C@_0CM@FENLHOGF@Unsupported?5interpolation?5?$CI?$CFd?9?$DO?$CF@ 10153d0c     lcms:cmsintrp.obj
 0002:00025d38       ??_C@_0CC@EFCICOOP@?$CFlu?3?5Sample?5out?5of?5range?0?5max?5?$CFl@ 10153d38     libTIFF:tif_strip.obj
 0002:00025d5c       ??_C@_0BD@EAPFMACD@TIFFNumberOfStrips?$AA@ 10153d5c     libTIFF:tif_strip.obj
 0002:00025d70       ??_C@_0CB@BMKNGNDP@Invalid?5td_samplesperpixel?5value@ 10153d70     libTIFF:tif_strip.obj
 0002:00025d94       ??_C@_0CC@JALFLCFN@Invalid?5YCbCr?5subsampling?5?$CI?$CFdx?$CFd@ 10153d94     libTIFF:tif_strip.obj
 0002:00025db8       ??_C@_0BB@IPOJFFKA@Integer?5overflow?$AA@ 10153db8     libTIFF:tif_strip.obj
 0002:00025dcc       ??_C@_0BK@CIBOGKAE@Invalid?5YCbCr?5subsampling?$AA@ 10153dcc     libTIFF:tif_strip.obj
 0002:00025de8       ??_C@_0BM@OHBFBPD@Integer?5arithmetic?5overflow?$AA@ 10153de8     libTIFF:tif_strip.obj
 0002:00025e04       ??_C@_0P@PGMHGOBE@?$CC?$CFs?$CC?3?5Bad?5mode?$AA@ 10153e04     libTIFF:tif_open.obj
 0002:00025e14       ??_C@_0CD@BBEBDIEF@?$CFs?3?5Out?5of?5memory?5?$CITIFF?5structur@ 10153e14     libTIFF:tif_open.obj
 0002:00025e38       ??_C@_0CO@IIIPNCHE@One?5of?5the?5client?5procedures?5is?5@ 10153e38     libTIFF:tif_open.obj
 0002:00025e68       ??_C@_0BI@MAEFOGEK@Cannot?5read?5TIFF?5header?$AA@ 10153e68     libTIFF:tif_open.obj
 0002:00025e80       ??_C@_0BK@KCJOGJH@Error?5writing?5TIFF?5header?$AA@ 10153e80     libTIFF:tif_open.obj
 0002:00025e9c       ??_C@_0CM@MDMBFNIA@Not?5a?5TIFF?5file?0?5bad?5magic?5numbe@ 10153e9c     libTIFF:tif_open.obj
 0002:00025ec8       ??_C@_0CO@LDLFOIPF@Not?5a?5TIFF?5file?0?5bad?5version?5num@ 10153ec8     libTIFF:tif_open.obj
 0002:00025ef8       ??_C@_0DC@MJDIFFC@Not?5a?5TIFF?5file?0?5bad?5BigTIFF?5off@ 10153ef8     libTIFF:tif_open.obj
 0002:00025f2c       ??_C@_0CO@LLNIKFOJ@Not?5a?5TIFF?5file?0?5bad?5BigTIFF?5unu@ 10153f2c     libTIFF:tif_open.obj
 0002:00025f5c       ??_C@_0DI@NKCPCCAD@Can?5not?5change?5?$CCImageLength?$CC?5whe@ 10153f5c     libTIFF:tif_write.obj
 0002:00025f94       ??_C@_0BK@DKAJJELD@File?5not?5open?5for?5writing?$AA@ 10153f94     libTIFF:tif_write.obj
 0002:00025fb0       ??_C@_0CJ@LGMKOOBO@Can?5not?5write?5scanlines?5to?5a?5til@ 10153fb0     libTIFF:tif_write.obj
 0002:00025fdc       ??_C@_0CK@HJLPHEJA@Must?5set?5?$CCImageWidth?$CC?5before?5wri@ 10153fdc     libTIFF:tif_write.obj
 0002:00026008       ??_C@_0DD@CCEPKCBO@Must?5set?5?$CCPlanarConfiguration?$CC?5b@ 10154008     libTIFF:tif_write.obj
 0002:0002603c       ??_C@_04CKOGFLMC@tile?$AA@ 1015403c     libTIFF:tif_write.obj
 0002:00026044       ??_C@_05GGNGIGHC@strip?$AA@ 10154044     libTIFF:tif_write.obj
 0002:0002604c       ??_C@_0BH@CJDHGLJJ@No?5space?5for?5?$CFs?5arrays?$AA@ 1015404c     libTIFF:tif_write.obj
 0002:00026064       ??_C@_0BL@KJEKIJFM@No?5space?5for?5output?5buffer?$AA@ 10154064     libTIFF:tif_write.obj
 0002:00026080       ??_C@_0CA@ODFLBJCH@No?5space?5to?5expand?5strip?5arrays?$AA@ 10154080     libTIFF:tif_write.obj
 0002:000260a0       ??_C@_0BL@EANIIDAI@Seek?5error?5at?5scanline?5?$CFlu?$AA@ 101540a0     libTIFF:tif_write.obj
 0002:000260bc       ??_C@_0CA@DLBLGNF@Maximum?5TIFF?5file?5size?5exceeded?$AA@ 101540bc     libTIFF:tif_write.obj
 0002:000260dc       ??_C@_0BM@JKIPOMJG@Write?5error?5at?5scanline?5?$CFlu?$AA@ 101540dc     libTIFF:tif_write.obj
 0002:000260f8       ??_C@_0DJ@OACGPOBK@?$CFs?3?5Invalid?5InkNames?5value?$DL?5expe@ 101540f8     libTIFF:tif_dir.obj
 0002:00026134       ??_C@_0N@PDFPINHP@TIFFSetField?$AA@ 10154134     libTIFF:tif_dir.obj
 0002:00026144       ??_C@_0CI@OAKEOBCA@Nonstandard?5tile?5width?5?$CFd?0?5conve@ 10154144     libTIFF:tif_dir.obj
 0002:0002616c       ??_C@_0CJ@HOMKGCGF@Nonstandard?5tile?5length?5?$CFd?0?5conv@ 1015416c     libTIFF:tif_dir.obj
 0002:00026198       ??_C@_0BP@NEBKBHJA@?$CFs?3?5Sorry?0?5cannot?5nest?5SubIFDs?$AA@ 10154198     libTIFF:tif_dir.obj
 0002:000261b8       ??_C@_07FFODDMEA@pseudo?9?$AA@ 101541b8     libTIFF:tif_dir.obj
 0002:000261c0       ??_C@_0DA@NOBEDHFE@?$CFs?3?5Invalid?5?$CFstag?5?$CC?$CFs?$CC?5?$CInot?5supp@ 101541c0     libTIFF:tif_dir.obj
 0002:000261f0       ??_C@_0DH@JNMGNCPD@?$CFs?3?5Failed?5to?5allocate?5space?5for@ 101541f0     libTIFF:tif_dir.obj
 0002:00026228       ??_C@_0BP@HBCIJBHE@?$CFs?3?5Bad?5field?5type?5?$CFd?5for?5?$CC?$CFs?$CC?$AA@ 10154228     libTIFF:tif_dir.obj
 0002:00026248       ??_C@_0DP@MOAOEIG@?$CFs?3?5Null?5count?5for?5?$CC?$CFs?$CC?5?$CItype?5?$CFd@ 10154248     libTIFF:tif_dir.obj
 0002:00026288       ??_C@_0BJ@EPOMDPHG@custom?5tag?5binary?5object?$AA@ 10154288     libTIFF:tif_dir.obj
 0002:000262a4       ??_C@_08OAJLMKAD@DotRange?$AA@ 101542a4     libTIFF:tif_dir.obj
 0002:000262b0       ??_C@_0BO@LFPHKDBJ@?$CFs?3?5Bad?5value?5?$CFu?5for?5?$CC?$CFs?$CC?5tag?$AA@ 101542b0     libTIFF:tif_dir.obj
 0002:000262d0       ??_C@_0BF@EPGOJPMB@?$CFs?3?5Unknown?5?$CFstag?5?$CFu?$AA@ 101542d0     libTIFF:tif_dir.obj
 0002:000262e8       ??_C@_0CJ@OJECDDEL@?$CFs?3?5Cannot?5modify?5tag?5?$CC?$CFs?$CC?5while@ 101542e8     libTIFF:tif_dir.obj
 0002:00026314       ??_C@_0P@JIHDGAHD@_TIFFVGetField?$AA@ 10154314     libTIFF:tif_dir.obj
 0002:00026324       ??_C@_0BP@EBIIMPG@Error?5fetching?5directory?5count?$AA@ 10154324     libTIFF:tif_dir.obj
 0002:00026344       ??_C@_0BO@FOPNCGHK@Error?5fetching?5directory?5link?$AA@ 10154344     libTIFF:tif_dir.obj
 0002:00026364       ??_C@_0CH@EBKFHBHH@Sanity?5check?5on?5directory?5count?5@ 10154364     libTIFF:tif_dir.obj
 0002:0002638c       ??_C@_0CD@KDADHLME@?$CFs?3?5Error?5fetching?5directory?5cou@ 1015438c     libTIFF:tif_dir.obj
 0002:000263b0       ??_C@_0CC@CCCMHFJO@?$CFs?3?5Error?5fetching?5directory?5lin@ 101543b0     libTIFF:tif_dir.obj
 0002:000263d4       ??_C@_0BN@KGGDEOC@Error?5writing?5directory?5link?$AA@ 101543d4     libTIFF:tif_dir.obj
 0002:000263f4       ??_C@_0DG@FMCCNCOH@Sorry?0?5requested?5compression?5met@ 101543f4     libTIFF:tif_getimage.obj
 0002:0002642c       ??_C@_0DB@FJBJCDNA@Sorry?0?5can?5not?5handle?5images?5wit@ 1015442c     libTIFF:tif_getimage.obj
 0002:00026460       ??_C@_0BG@PBIDEGJN@Missing?5needed?5?$CFs?5tag?$AA@ 10154460     libTIFF:tif_getimage.obj
 0002:00026478       ??_C@_0O@JOEOBGEN@Samples?1pixel?$AA@ 10154478     libTIFF:tif_getimage.obj
 0002:00026488       ??_C@_0EP@NBHFGKAK@Sorry?0?5can?5not?5handle?5contiguous@ 10154488     libTIFF:tif_getimage.obj
 0002:000264d8       ??_C@_0P@BIIFFHIF@Color?5channels?$AA@ 101544d8     libTIFF:tif_getimage.obj
 0002:000264e8       ??_C@_0CL@FMPMKONA@Sorry?0?5can?5not?5handle?5RGB?5image?5@ 101544e8     libTIFF:tif_getimage.obj
 0002:00026514       ??_C@_06LDOLCNCI@InkSet?$AA@ 10154514     libTIFF:tif_getimage.obj
 0002:0002651c       ??_C@_0DB@BICIMKPP@Sorry?0?5can?5not?5handle?5separated?5@ 1015451c     libTIFF:tif_getimage.obj
 0002:00026550       ??_C@_0M@COKFBABJ@Compression?$AA@ 10154550     libTIFF:tif_getimage.obj
 0002:0002655c       ??_C@_0CB@DNNCNJNA@Sorry?0?5LogL?5data?5must?5have?5?$CFs?$DN?$CFd@ 1015455c     libTIFF:tif_getimage.obj
 0002:00026580       ??_C@_0CJ@EGNOKPMB@Sorry?0?5LogLuv?5data?5must?5have?5?$CFs?$DN@ 10154580     libTIFF:tif_getimage.obj
 0002:000265ac       ??_C@_0BE@LGFBHAIA@Planarconfiguration?$AA@ 101545ac     libTIFF:tif_getimage.obj
 0002:000265c0       ??_C@_0CP@PFCOEKPO@Sorry?0?5can?5not?5handle?5LogLuv?5ima@ 101545c0     libTIFF:tif_getimage.obj
 0002:000265f0       ??_C@_0CH@EHEELBGF@Sorry?0?5can?5not?5handle?5image?5with@ 101545f0     libTIFF:tif_getimage.obj
 0002:00026618       ??_C@_0CA@NGOLKHED@Missing?5required?5?$CCColormap?$CC?5tag?$AA@ 10154618     libTIFF:tif_getimage.obj
 0002:00026638       ??_C@_0CA@FIPFCMNH@Out?5of?5memory?5for?5colormap?5copy?$AA@ 10154638     libTIFF:tif_getimage.obj
 0002:00026658       ??_C@_0BM@DAILEEOB@Sorry?0?5can?5not?5handle?5image?$AA@ 10154658     libTIFF:tif_getimage.obj
 0002:00026674       ??_C@_0BH@OKHLEGDN@No?5?$CCget?$CC?5routine?5setup?$AA@ 10154674     libTIFF:tif_getimage.obj
 0002:0002668c       ??_C@_0DO@DHFHOJJ@No?5?$CCput?$CC?5routine?5setupl?$DL?5probabl@ 1015468c     libTIFF:tif_getimage.obj
 0002:000266cc       ??_C@_0BJ@HGPGABAD@No?5space?5for?5tile?5buffer?$AA@ 101546cc     libTIFF:tif_getimage.obj
 0002:000266e8       ??_C@_0P@KEPGOJBF@gtTileSeparate?$AA@ 101546e8     libTIFF:tif_getimage.obj
 0002:000266f8       ??_C@_0BH@PEBDKMHI@Integer?5overflow?5in?5?$CFs?$AA@ 101546f8     libTIFF:tif_getimage.obj
 0002:00026710       ??_C@_0BK@LIADBFEO@No?5space?5for?5strip?5buffer?$AA@ 10154710     libTIFF:tif_getimage.obj
 0002:0002672c       ??_C@_0BA@NILEBHJC@gtStripSeparate?$AA@ 1015472c     libTIFF:tif_getimage.obj
 0002:0002673c       ??_C@_0CJ@LLGDCBEM@No?5space?5for?5YCbCr?9?$DORGB?5conversi@ 1015473c     libTIFF:tif_getimage.obj
 0002:00026768       ??_C@_0CP@HIFGBFDA@No?5space?5for?5CIE?5L?$CKa?$CKb?$CK?9?$DORGB?5con@ 10154768     libTIFF:tif_getimage.obj
 0002:00026798       ??_C@_0DH@LFNLNEOJ@Failed?5to?5initialize?5CIE?5L?$CKa?$CKb?$CK?9@ 10154798     libTIFF:tif_getimage.obj
 0002:000267d0       ??_C@_0BP@BNDPHBNI@No?5space?5for?5B?$CGW?5mapping?5table?$AA@ 101547d0     libTIFF:tif_getimage.obj
 0002:000267f0       ??_C@_0CK@MMCBDJMH@No?5space?5for?5photometric?5convers@ 101547f0     libTIFF:tif_getimage.obj
 0002:0002681c       ??_C@_0CD@FHCIOAJC@No?5space?5for?5Palette?5mapping?5tab@ 1015481c     libTIFF:tif_getimage.obj
 0002:00026840       ??_C@_0BI@DMFMHOMB@Assuming?58?9bit?5colormap?$AA@ 10154840     libTIFF:tif_getimage.obj
 0002:00026858       ??_C@_0EC@ILNABJC@Failed?5to?5allocate?5memory?5for?5?$CFs@ 10154858     libTIFF:tif_aux.obj
 0002:0002689c       ??_C@_0CE@LLCOMBFK@No?5space?5for?5?$CCTransferFunction?$CC?5@ 1015489c     libTIFF:tif_aux.obj
 0002:000268c0       ??_C@_04KPMIAIII@Tag?5?$AA@ 101548c0     libTIFF:tif_close.obj
 0002:000268c8       ??_C@_0CG@KEPEJKIC@Seek?5error?5at?5scanline?5?$CFlu?0?5stri@ 101548c8     libTIFF:tif_read.obj
 0002:000268f0       ??_C@_0DM@JAAGAFEE@Read?5error?5at?5scanline?5?$CFlu?$DL?5got?5@ 101548f0     libTIFF:tif_read.obj
 0002:0002692c       ??_C@_0BP@HELDGNNG@?$CFlu?3?5Row?5out?5of?5range?0?5max?5?$CFlu?$AA@ 1015492c     libTIFF:tif_read.obj
 0002:0002694c       ??_C@_0CB@OEBDCNAH@?$CFlu?3?5Strip?5out?5of?5range?0?5max?5?$CFlu@ 1015494c     libTIFF:tif_read.obj
 0002:00026970       ??_C@_0EH@GHPENFNC@Read?5error?5at?5scanline?5?$CFlu?0?5stri@ 10154970     libTIFF:tif_read.obj
 0002:000269b8       ??_C@_0CK@DDALDDEA@Invalid?5strip?5byte?5count?5?$CFI64u?0?5@ 101549b8     libTIFF:tif_read.obj
 0002:000269e4       ??_C@_0DJ@NLLBBLL@Read?5error?5on?5strip?5?$CFlu?$DL?5got?5?$CFI6@ 101549e4     libTIFF:tif_read.obj
 0002:00026a20       ??_C@_0CI@ELFLKBFF@Data?5buffer?5too?5small?5to?5hold?5st@ 10154a20     libTIFF:tif_read.obj
 0002:00026a48       ??_C@_0CA@LDMDCDIA@?$CFlu?3?5Tile?5out?5of?5range?0?5max?5?$CFlu?$AA@ 10154a48     libTIFF:tif_read.obj
 0002:00026a68       ??_C@_0CJ@MPHLLHO@Seek?5error?5at?5row?5?$CFlu?0?5col?5?$CFlu?0?5@ 10154a68     libTIFF:tif_read.obj
 0002:00026a98       ??_C@_0EA@JCDIHKFD@Read?5error?5at?5row?5?$CFlu?0?5col?5?$CFlu?$DL?5@ 10154a98     libTIFF:tif_read.obj
 0002:00026ad8       ??_C@_0EK@IBAMABGC@Read?5error?5at?5row?5?$CFlu?0?5col?5?$CFlu?0?5@ 10154ad8     libTIFF:tif_read.obj
 0002:00026b24       ??_C@_0CJ@BHHHOIDK@?$CFI64u?3?5Invalid?5tile?5byte?5count?0?5@ 10154b24     libTIFF:tif_read.obj
 0002:00026b50       ??_C@_0CH@FHGANJOD@Data?5buffer?5too?5small?5to?5hold?5ti@ 10154b50     libTIFF:tif_read.obj
 0002:00026b78       ??_C@_0CJ@ILEEHFML@No?5space?5for?5data?5buffer?5at?5scan@ 10154b78     libTIFF:tif_read.obj
 0002:00026ba4       ??_C@_0BK@FMCDCNHI@File?5not?5open?5for?5reading?$AA@ 10154ba4     libTIFF:tif_read.obj
 0002:00026bc0       ??_C@_0CJ@OBJIIPOL@Can?5not?5read?5tiles?5from?5a?5stripp@ 10154bc0     libTIFF:tif_read.obj
 0002:00026bec       ??_C@_0CK@BBOOPJII@Can?5not?5read?5scanlines?5from?5a?5ti@ 10154bec     libTIFF:tif_read.obj
 0002:00026c18       ??_C@_0BC@KLAPDGBB@ReadDirEntryArray?$AA@ 10154c18     libTIFF:tif_dirread.obj
 0002:00026c2c       ??_C@_0BJ@IJPODLJA@Incorrect?5count?5for?5?$CC?$CFs?$CC?$AA@ 10154c2c     libTIFF:tif_dirread.obj
 0002:00026c48       ??_C@_0BL@LMKFAHGF@Incompatible?5type?5for?5?$CC?$CFs?$CC?$AA@ 10154c48     libTIFF:tif_dirread.obj
 0002:00026c64       ??_C@_0CA@CBPKDLKC@IO?5error?5during?5reading?5of?5?$CC?$CFs?$CC?$AA@ 10154c64     libTIFF:tif_dirread.obj
 0002:00026c84       ??_C@_0BJ@BEOALBBP@Incorrect?5value?5for?5?$CC?$CFs?$CC?$AA@ 10154c84     libTIFF:tif_dirread.obj
 0002:00026ca0       ??_C@_0DD@PDMAPIJH@Cannot?5handle?5different?5values?5p@ 10154ca0     libTIFF:tif_dirread.obj
 0002:00026cd4       ??_C@_0CK@EDKNJHJA@Sanity?5check?5on?5size?5of?5?$CC?$CFs?$CC?5val@ 10154cd4     libTIFF:tif_dirread.obj
 0002:00026d00       ??_C@_0BO@PHJFJKN@Out?5of?5memory?5reading?5of?5?$CC?$CFs?$CC?$AA@ 10154d00     libTIFF:tif_dirread.obj
 0002:00026d20       ??_C@_0CG@MGKNKNCB@Incorrect?5count?5for?5?$CC?$CFs?$CC?$DL?5tag?5ig@ 10154d20     libTIFF:tif_dirread.obj
 0002:00026d48       ??_C@_0CI@FHKCPDI@Incompatible?5type?5for?5?$CC?$CFs?$CC?$DL?5tag?5@ 10154d48     libTIFF:tif_dirread.obj
 0002:00026d70       ??_C@_0CN@KLNOMMOC@IO?5error?5during?5reading?5of?5?$CC?$CFs?$CC?$DL@ 10154d70     libTIFF:tif_dirread.obj
 0002:00026da0       ??_C@_0CG@DJCDGBG@Incorrect?5value?5for?5?$CC?$CFs?$CC?$DL?5tag?5ig@ 10154da0     libTIFF:tif_dirread.obj
 0002:00026dc8       ??_C@_0EA@HJDNENC@Cannot?5handle?5different?5values?5p@ 10154dc8     libTIFF:tif_dirread.obj
 0002:00026e08       ??_C@_0DH@DFJAHBPF@Sanity?5check?5on?5size?5of?5?$CC?$CFs?$CC?5val@ 10154e08     libTIFF:tif_dirread.obj
 0002:00026e40       ??_C@_0CL@PHFAILLN@Out?5of?5memory?5reading?5of?5?$CC?$CFs?$CC?$DL?5t@ 10154e40     libTIFF:tif_dirread.obj
 0002:00026e6c       ??_C@_0CJ@LDPDFBB@Failed?5to?5read?5directory?5at?5offs@ 10154e6c     libTIFF:tif_dirread.obj
 0002:00026e98       ??_C@_0CN@EEFBGLKE@Unknown?5field?5with?5tag?5?$CFd?5?$CI0x?$CFx?$CJ@ 10154e98     libTIFF:tif_dirread.obj
 0002:00026ec8       ??_C@_0DG@CGJGMOOI@Registering?5anonymous?5field?5with@ 10154ec8     libTIFF:tif_dirread.obj
 0002:00026f00       ??_C@_0FE@LCPMODLJ@Planarconfig?5tag?5value?5assumed?5i@ 10154f00     libTIFF:tif_dirread.obj
 0002:00026f54       ??_C@_0M@IJDBOEGD@ImageLength?$AA@ 10154f54     libTIFF:tif_dirread.obj
 0002:00026f60       ??_C@_05HBFCGPPC@tiles?$AA@ 10154f60     libTIFF:tif_dirread.obj
 0002:00026f68       ??_C@_06LKHPOMKD@strips?$AA@ 10154f68     libTIFF:tif_dirread.obj
 0002:00026f70       ??_C@_0CA@BAIEKAME@Cannot?5handle?5zero?5number?5of?5?$CFs?$AA@ 10154f70     libTIFF:tif_dirread.obj
 0002:00026f90       ??_C@_0M@GOPHOCAF@TileOffsets?$AA@ 10154f90     libTIFF:tif_dirread.obj
 0002:00026f9c       ??_C@_0N@DLIOGNFK@StripOffsets?$AA@ 10154f9c     libTIFF:tif_dirread.obj
 0002:00026fac       ??_C@_0BA@DPBJOHC@unknown?5tagname?$AA@ 10154fac     libTIFF:tif_dirread.obj
 0002:00026fbc       ??_C@_0DD@IHGPCHKI@Photometric?5tag?5is?5missing?0?5assu@ 10154fbc     libTIFF:tif_dirread.obj
 0002:00026ff0       ??_C@_0EP@KHAIMGFE@Photometric?5tag?5value?5assumed?5in@ 10154ff0     libTIFF:tif_dirread.obj
 0002:00027040       ??_C@_0DJ@PAHFIICM@BitsPerSample?5tag?5is?5missing?0?5as@ 10155040     libTIFF:tif_dirread.obj
 0002:00027080       ??_C@_0EM@KNLKGJNI@SamplesPerPixel?5tag?5is?5missing?0?5@ 10155080     libTIFF:tif_dirread.obj
 0002:000270d0       ??_C@_0EM@PMKNPDP@SamplesPerPixel?5tag?5is?5missing?0?5@ 101550d0     libTIFF:tif_dirread.obj
 0002:0002711c       ??_C@_08GOOCLJAK@Colormap?$AA@ 1015511c     libTIFF:tif_dirread.obj
 0002:00027128       ??_C@_0BA@FIIELEHO@StripByteCounts?$AA@ 10155128     libTIFF:tif_dirread.obj
 0002:00027138       ??_C@_0FJ@JKDPDBLD@TIFF?5directory?5is?5missing?5requir@ 10155138     libTIFF:tif_dirread.obj
 0002:00027198       ??_C@_0EJ@HKLAHDID@Bogus?5?$CCStripByteCounts?$CC?5field?0?5i@ 10155198     libTIFF:tif_dirread.obj
 0002:000271e8       ??_C@_0EJ@BALNNJFM@Wrong?5?$CCStripByteCounts?$CC?5field?0?5i@ 101551e8     libTIFF:tif_dirread.obj
 0002:00027234       ??_C@_0CB@HMGPAPAK@Cannot?5handle?5zero?5scanline?5size@ 10155234     libTIFF:tif_dirread.obj
 0002:00027258       ??_C@_0BN@EBIADHLP@Cannot?5handle?5zero?5tile?5size?$AA@ 10155258     libTIFF:tif_dirread.obj
 0002:00027278       ??_C@_0BO@FNJKCCEO@Cannot?5handle?5zero?5strip?5size?$AA@ 10155278     libTIFF:tif_dirread.obj
 0002:00027298       ??_C@_0DP@ELHKFELB@Invalid?5TIFF?5directory?$DL?5tags?5are@ 10155298     libTIFF:tif_dirread.obj
 0002:000272d8       ??_C@_0BM@PEDMJMMO@for?5?$CCStripByteCounts?$CC?5array?$AA@ 101552d8     libTIFF:tif_dirread.obj
 0002:000272f4       ??_C@_0CN@FDCBOBIC@Cannot?5determine?5size?5of?5unknown@ 101552f4     libTIFF:tif_dirread.obj
 0002:00027324       ??_C@_0CO@GFAABP@TIFF?5directory?5is?5missing?5requir@ 10155324     libTIFF:tif_dirread.obj
 0002:00027354       ??_C@_0N@MAGLMFDB@for?5IFD?5list?$AA@ 10155354     libTIFF:tif_dirread.obj
 0002:00027364       ??_C@_0CI@PDAFBKO@?$CFs?3?5Seek?5error?5accessing?5TIFF?5di@ 10155364     libTIFF:tif_dirread.obj
 0002:0002738c       ??_C@_0CG@FPPAOCCP@?$CFs?3?5Can?5not?5read?5TIFF?5directory?5@ 1015538c     libTIFF:tif_dirread.obj
 0002:000273b8       ??_C@_0FA@HFPCNLE@Sanity?5check?5on?5directory?5count?5@ 101553b8     libTIFF:tif_dirread.obj
 0002:00027408       ??_C@_0BH@DFPELEEL@to?5read?5TIFF?5directory?$AA@ 10155408     libTIFF:tif_dirread.obj
 0002:00027420       ??_C@_0CE@EEAAHNIP@?$CF?4100s?3?5Can?5not?5read?5TIFF?5direct@ 10155420     libTIFF:tif_dirread.obj
 0002:00027444       ??_C@_0CC@KJIHGNOA@Can?5not?5read?5TIFF?5directory?5coun@ 10155444     libTIFF:tif_dirread.obj
 0002:00027468       ??_C@_0EL@HICEDBMB@Sanity?5check?5on?5directory?5count?5@ 10155468     libTIFF:tif_dirread.obj
 0002:000274b4       ??_C@_0BM@KNENHPEL@Can?5not?5read?5TIFF?5directory?$AA@ 101554b4     libTIFF:tif_dirread.obj
 0002:000274d0       ??_C@_0BP@HOBBIAJP@No?5definition?5found?5for?5tag?5?$CFd?$AA@ 101554d0     libTIFF:tif_dirread.obj
 0002:000274f0       ??_C@_0BD@MHDOBIPM@TIFFFetchNormalTag?$AA@ 101554f0     libTIFF:tif_dirread.obj
 0002:00027508       ??_C@_0ID@PBJDLJKL@ASCII?5value?5for?5tag?5?$CC?$CFs?$CC?5contain@ 10155508     libTIFF:tif_dirread.obj
 0002:0002758c       ??_C@_0DD@FJBFDABG@ASCII?5value?5for?5tag?5?$CC?$CFs?$CC?5does?5no@ 1015558c     libTIFF:tif_dirread.obj
 0002:000275c0       ??_C@_0DD@GADNDKHD@incorrect?5count?5for?5field?5?$CC?$CFs?$CC?0?5@ 101555c0     libTIFF:tif_dirread.obj
 0002:000275f4       ??_C@_0DE@NGNKNPBC@incorrect?5count?5for?5field?5?$CC?$CFs?$CC?0?5@ 101555f4     libTIFF:tif_dirread.obj
 0002:00027628       ??_C@_0BA@JNIHDGGG@for?5strip?5array?$AA@ 10155628     libTIFF:tif_dirread.obj
 0002:00027638       ??_C@_0BA@DECNMNII@SubjectDistance?$AA@ 10155638     libTIFF:tif_dirread.obj
 0002:00027648       ??_C@_0CE@KJONHGDA@for?5chopped?5?$CCStripByteCounts?$CC?5ar@ 10155648     libTIFF:tif_dirread.obj
 0002:0002766c       ??_C@_0CB@PBGMIJB@for?5chopped?5?$CCStripOffsets?$CC?5array@ 1015566c     libTIFF:tif_dirread.obj
 0002:00027690       ??_C@_0CC@IBILIDEK@?$CFs?5?$CFs?5encoding?5is?5not?5implemente@ 10155690     libTIFF:tif_compress.obj
 0002:000276b4       ??_C@_0DF@MHFINFKA@Compression?5scheme?5?$CFu?5?$CFs?5encodin@ 101556b4     libTIFF:tif_compress.obj
 0002:000276ec       ??_C@_08NBKMMBGP@scanline?$AA@ 101556ec     libTIFF:tif_compress.obj
 0002:000276f8       ??_C@_0CC@PBCIIFBO@?$CFs?5?$CFs?5decoding?5is?5not?5implemente@ 101556f8     libTIFF:tif_compress.obj
 0002:0002771c       ??_C@_0DF@LHPLNDPE@Compression?5scheme?5?$CFu?5?$CFs?5decodin@ 1015571c     libTIFF:tif_compress.obj
 0002:00027754       ??_C@_0DF@GHICKFCD@Compression?5algorithm?5does?5not?5s@ 10155754     libTIFF:tif_compress.obj
 0002:0002778c       ??_C@_0BP@MMIEHKJC@?$CFlu?3?5Col?5out?5of?5range?0?5max?5?$CFlu?$AA@ 1015578c     libTIFF:tif_tile.obj
 0002:000277ac       ??_C@_0CB@FJLLNJFA@?$CFlu?3?5Depth?5out?5of?5range?0?5max?5?$CFlu@ 101557ac     libTIFF:tif_tile.obj
 0002:000277d0       ??_C@_0BC@PEEDIMOM@TIFFNumberOfTiles?$AA@ 101557d0     libTIFF:tif_tile.obj
 0002:000277e4       ??_C@_0BA@NKNGMNIJ@TIFFTileRowSize?$AA@ 101557e4     libTIFF:tif_tile.obj
 0002:000277f4       ??_C@_0L@MMDGNAPN@ImageLayer?$AA@ 101557f4     libTIFF:tif_dirinfo.obj
 0002:00027800       ??_C@_0P@HMLENEHM@StripRowCounts?$AA@ 10155800     libTIFF:tif_dirinfo.obj
 0002:00027810       ??_C@_0L@BKKGLLOG@T82Options?$AA@ 10155810     libTIFF:tif_dirinfo.obj
 0002:0002781c       ??_C@_0P@JGHECDJJ@ImageBaseColor?$AA@ 1015581c     libTIFF:tif_dirinfo.obj
 0002:0002782c       ??_C@_06GAGNPJNE@Decode?$AA@ 1015582c     libTIFF:tif_dirinfo.obj
 0002:00027834       ??_C@_0L@NMIPDHOM@ModeNumber?$AA@ 10155834     libTIFF:tif_dirinfo.obj
 0002:00027840       ??_C@_0M@KADOKPON@VersionYear?$AA@ 10155840     libTIFF:tif_dirinfo.obj
 0002:0002784c       ??_C@_0O@LHJABFKE@CodingMethods?$AA@ 1015584c     libTIFF:tif_dirinfo.obj
 0002:0002785c       ??_C@_0L@BLDILLF@FaxProfile?$AA@ 1015585c     libTIFF:tif_dirinfo.obj
 0002:00027868       ??_C@_0M@FNNOFNDK@ProfileType?$AA@ 10155868     libTIFF:tif_dirinfo.obj
 0002:00027874       ??_C@_0BE@BJOGMAIL@GlobalParametersIFD?$AA@ 10155874     libTIFF:tif_dirinfo.obj
 0002:00027888       ??_C@_07FEDHFEIC@Indexed?$AA@ 10155888     libTIFF:tif_dirinfo.obj
 0002:00027890       ??_C@_09NPKPNCNE@PerSample?$AA@ 10155890     libTIFF:tif_dirinfo.obj
 0002:0002789c       ??_C@_0BI@HHHMDCGL@CurrentPreProfileMatrix?$AA@ 1015589c     libTIFF:tif_dirinfo.obj
 0002:000278b4       ??_C@_0BC@JEDBHDKL@CurrentICCProfile?$AA@ 101558b4     libTIFF:tif_dirinfo.obj
 0002:000278c8       ??_C@_0BH@KFJNOAKG@AsShotPreProfileMatrix?$AA@ 101558c8     libTIFF:tif_dirinfo.obj
 0002:000278e0       ??_C@_0BB@NFAOLBCI@AsShotICCProfile?$AA@ 101558e0     libTIFF:tif_dirinfo.obj
 0002:000278f4       ??_C@_0M@JJOPMHMI@MaskedAreas?$AA@ 101558f4     libTIFF:tif_dirinfo.obj
 0002:00027900       ??_C@_0L@JKFLCPDN@ActiveArea?$AA@ 10155900     libTIFF:tif_dirinfo.obj
 0002:0002790c       ??_C@_0BE@BFBPKFCF@OriginalRawFileData?$AA@ 1015590c     libTIFF:tif_dirinfo.obj
 0002:00027920       ??_C@_0BE@CIDEOAHP@OriginalRawFileName?$AA@ 10155920     libTIFF:tif_dirinfo.obj
 0002:00027934       ??_C@_0BA@GDKHHOGE@RawDataUniqueID?$AA@ 10155934     libTIFF:tif_dirinfo.obj
 0002:00027944       ??_C@_0BH@DOGFJKKL@CalibrationIlluminant2?$AA@ 10155944     libTIFF:tif_dirinfo.obj
 0002:0002795c       ??_C@_0BH@BFEIMJGI@CalibrationIlluminant1?$AA@ 1015595c     libTIFF:tif_dirinfo.obj
 0002:00027974       ??_C@_0BA@CAHBKFMI@MakerNoteSafety?$AA@ 10155974     libTIFF:tif_dirinfo.obj
 0002:00027984       ??_C@_0P@ELKBMNCO@DNGPrivateData?$AA@ 10155984     libTIFF:tif_dirinfo.obj
 0002:00027994       ??_C@_0M@LECDGPEB@ShadowScale?$AA@ 10155994     libTIFF:tif_dirinfo.obj
 0002:000279a0       ??_C@_0BC@IPOFDKOG@AntiAliasStrength?$AA@ 101559a0     libTIFF:tif_dirinfo.obj
 0002:000279b4       ??_C@_0BB@OGMNHBBD@ChromaBlurRadius?$AA@ 101559b4     libTIFF:tif_dirinfo.obj
 0002:000279c8       ??_C@_08MPEBIHLI@LensInfo?$AA@ 101559c8     libTIFF:tif_dirinfo.obj
 0002:000279d4       ??_C@_0BD@PBGJCLOO@CameraSerialNumber?$AA@ 101559d4     libTIFF:tif_dirinfo.obj
 0002:000279e8       ??_C@_0BE@PNIHMDMG@LinearResponseLimit?$AA@ 101559e8     libTIFF:tif_dirinfo.obj
 0002:000279fc       ??_C@_0BA@IIBPFJCO@BayerGreenSplit?$AA@ 101559fc     libTIFF:tif_dirinfo.obj
 0002:00027a0c       ??_C@_0BC@DKBEEAHB@BaselineSharpness?$AA@ 10155a0c     libTIFF:tif_dirinfo.obj
 0002:00027a20       ??_C@_0O@COHGKHOJ@BaselineNoise?$AA@ 10155a20     libTIFF:tif_dirinfo.obj
 0002:00027a30       ??_C@_0BB@HANELJGE@BaselineExposure?$AA@ 10155a30     libTIFF:tif_dirinfo.obj
 0002:00027a44       ??_C@_0O@BIKAMMLE@AsShotWhiteXY?$AA@ 10155a44     libTIFF:tif_dirinfo.obj
 0002:00027a54       ??_C@_0O@CKNCDGBL@AsShotNeutral?$AA@ 10155a54     libTIFF:tif_dirinfo.obj
 0002:00027a64       ??_C@_0O@ODMPKIOP@AnalogBalance?$AA@ 10155a64     libTIFF:tif_dirinfo.obj
 0002:00027a74       ??_C@_0BB@DLEINHFN@ReductionMatrix2?$AA@ 10155a74     libTIFF:tif_dirinfo.obj
 0002:00027a88       ??_C@_0BB@BAGFIEJO@ReductionMatrix1?$AA@ 10155a88     libTIFF:tif_dirinfo.obj
 0002:00027a9c       ??_C@_0BD@ODDLACHD@CameraCalibration2?$AA@ 10155a9c     libTIFF:tif_dirinfo.obj
 0002:00027ab0       ??_C@_0BD@MIBGFBLA@CameraCalibration1?$AA@ 10155ab0     libTIFF:tif_dirinfo.obj
 0002:00027ac4       ??_C@_0N@HDDJLODF@ColorMatrix2?$AA@ 10155ac4     libTIFF:tif_dirinfo.obj
 0002:00027ad4       ??_C@_0N@FIBEONPG@ColorMatrix1?$AA@ 10155ad4     libTIFF:tif_dirinfo.obj
 0002:00027ae4       ??_C@_0BA@CBIKACBG@DefaultCropSize?$AA@ 10155ae4     libTIFF:tif_dirinfo.obj
 0002:00027af4       ??_C@_0BC@KMIGCMM@DefaultCropOrigin?$AA@ 10155af4     libTIFF:tif_dirinfo.obj
 0002:00027b08       ??_C@_0BB@FJLOFBE@BestQualityScale?$AA@ 10155b08     libTIFF:tif_dirinfo.obj
 0002:00027b1c       ??_C@_0N@BAAIOHDP@DefaultScale?$AA@ 10155b1c     libTIFF:tif_dirinfo.obj
 0002:00027b2c       ??_C@_0L@OGNBOJON@WhiteLevel?$AA@ 10155b2c     libTIFF:tif_dirinfo.obj
 0002:00027b38       ??_C@_0BB@EIFBIJDA@BlackLevelDeltaV?$AA@ 10155b38     libTIFF:tif_dirinfo.obj
 0002:00027b4c       ??_C@_0BB@JMBALGOP@BlackLevelDeltaH?$AA@ 10155b4c     libTIFF:tif_dirinfo.obj
 0002:00027b60       ??_C@_0L@KNACMAGJ@BlackLevel?$AA@ 10155b60     libTIFF:tif_dirinfo.obj
 0002:00027b6c       ??_C@_0BE@CKGJLDEC@BlackLevelRepeatDim?$AA@ 10155b6c     libTIFF:tif_dirinfo.obj
 0002:00027b80       ??_C@_0BD@OGKHONND@LinearizationTable?$AA@ 10155b80     libTIFF:tif_dirinfo.obj
 0002:00027b94       ??_C@_09OPKKCDIE@CFALayout?$AA@ 10155b94     libTIFF:tif_dirinfo.obj
 0002:00027ba0       ??_C@_0O@PMHMNLIB@CFAPlaneColor?$AA@ 10155ba0     libTIFF:tif_dirinfo.obj
 0002:00027bb0       ??_C@_0BF@PHCDNABF@LocalizedCameraModel?$AA@ 10155bb0     libTIFF:tif_dirinfo.obj
 0002:00027bc8       ??_C@_0BC@EADGOGLI@UniqueCameraModel?$AA@ 10155bc8     libTIFF:tif_dirinfo.obj
 0002:00027bdc       ??_C@_0BD@GKEBFHHE@DNGBackwardVersion?$AA@ 10155bdc     libTIFF:tif_dirinfo.obj
 0002:00027bf0       ??_C@_0L@IEONKAMI@DNGVersion?$AA@ 10155bf0     libTIFF:tif_dirinfo.obj
 0002:00027bfc       ??_C@_0BK@BDFBGPOP@InteroperabilityIFDOffset?$AA@ 10155bfc     libTIFF:tif_dirinfo.obj
 0002:00027c18       ??_C@_07FGPGCJBM@StoNits?$AA@ 10155c18     libTIFF:tif_dirinfo.obj
 0002:00027c20       ??_C@_06BFLHIHBF@FaxDcs?$AA@ 10155c20     libTIFF:tif_dirinfo.obj
 0002:00027c28       ??_C@_0M@FPACMOIM@FaxRecvTime?$AA@ 10155c28     libTIFF:tif_dirinfo.obj
 0002:00027c34       ??_C@_0O@DBFBDNBO@FaxSubAddress?$AA@ 10155c34     libTIFF:tif_dirinfo.obj
 0002:00027c44       ??_C@_0O@NKDJCEMO@FaxRecvParams?$AA@ 10155c44     libTIFF:tif_dirinfo.obj
 0002:00027c54       ??_C@_0N@IJPLIECG@GPSIFDOffset?$AA@ 10155c54     libTIFF:tif_dirinfo.obj
 0002:00027c64       ??_C@_0M@EPFOONJG@ICC?5Profile?$AA@ 10155c64     libTIFF:tif_dirinfo.obj
 0002:00027c70       ??_C@_0O@IAMCGNGD@ImageUniqueID?$AA@ 10155c70     libTIFF:tif_dirinfo.obj
 0002:00027c80       ??_C@_0BF@OFPBNOLK@SubjectDistanceRange?$AA@ 10155c80     libTIFF:tif_dirinfo.obj
 0002:00027c98       ??_C@_0BJ@PMNHCOMN@DeviceSettingDescription?$AA@ 10155c98     libTIFF:tif_dirinfo.obj
 0002:00027cb4       ??_C@_09LNCGNHLJ@Sharpness?$AA@ 10155cb4     libTIFF:tif_dirinfo.obj
 0002:00027cc0       ??_C@_0L@EICILOBK@Saturation?$AA@ 10155cc0     libTIFF:tif_dirinfo.obj
 0002:00027ccc       ??_C@_08KBHEFHNJ@Contrast?$AA@ 10155ccc     libTIFF:tif_dirinfo.obj
 0002:00027cd8       ??_C@_0M@EHGNEKBN@GainControl?$AA@ 10155cd8     libTIFF:tif_dirinfo.obj
 0002:00027ce4       ??_C@_0BB@MHDHFCLP@SceneCaptureType?$AA@ 10155ce4     libTIFF:tif_dirinfo.obj
 0002:00027cf8       ??_C@_0BG@HIBOFONB@FocalLengthIn35mmFilm?$AA@ 10155cf8     libTIFF:tif_dirinfo.obj
 0002:00027d10       ??_C@_0BB@POMIEHPB@DigitalZoomRatio?$AA@ 10155d10     libTIFF:tif_dirinfo.obj
 0002:00027d24       ??_C@_0N@HMBMKCKA@WhiteBalance?$AA@ 10155d24     libTIFF:tif_dirinfo.obj
 0002:00027d34       ??_C@_0N@DGIDNJHN@ExposureMode?$AA@ 10155d34     libTIFF:tif_dirinfo.obj
 0002:00027d44       ??_C@_0P@JALPNFC@CustomRendered?$AA@ 10155d44     libTIFF:tif_dirinfo.obj
 0002:00027d54       ??_C@_0L@MFGKBBDH@CFAPattern?$AA@ 10155d54     libTIFF:tif_dirinfo.obj
 0002:00027d60       ??_C@_09KHNMGBIC@SceneType?$AA@ 10155d60     libTIFF:tif_dirinfo.obj
 0002:00027d6c       ??_C@_0L@OMKLMNPM@FileSource?$AA@ 10155d6c     libTIFF:tif_dirinfo.obj
 0002:00027d78       ??_C@_0O@GOBDGHPE@SensingMethod?$AA@ 10155d78     libTIFF:tif_dirinfo.obj
 0002:00027d88       ??_C@_0O@GPJFBGAA@ExposureIndex?$AA@ 10155d88     libTIFF:tif_dirinfo.obj
 0002:00027d98       ??_C@_0BA@KCGGGJBF@SubjectLocation?$AA@ 10155d98     libTIFF:tif_dirinfo.obj
 0002:00027da8       ??_C@_0BJ@JJHAHPAC@FocalPlaneResolutionUnit?$AA@ 10155da8     libTIFF:tif_dirinfo.obj
 0002:00027dc4       ??_C@_0BG@OPNEEBIF@FocalPlaneYResolution?$AA@ 10155dc4     libTIFF:tif_dirinfo.obj
 0002:00027ddc       ??_C@_0BG@HEHBANOK@FocalPlaneXResolution?$AA@ 10155ddc     libTIFF:tif_dirinfo.obj
 0002:00027df4       ??_C@_0BJ@EPAOALDN@SpatialFrequencyResponse?$AA@ 10155df4     libTIFF:tif_dirinfo.obj
 0002:00027e10       ??_C@_0M@PCPDLPOL@FlashEnergy?$AA@ 10155e10     libTIFF:tif_dirinfo.obj
 0002:00027e1c       ??_C@_0BB@GCPEHGIN@RelatedSoundFile?$AA@ 10155e1c     libTIFF:tif_dirinfo.obj
 0002:00027e30       ??_C@_0BA@IMLGOINB@PixelYDimension?$AA@ 10155e30     libTIFF:tif_dirinfo.obj
 0002:00027e40       ??_C@_0BA@ENDIDHBB@PixelXDimension?$AA@ 10155e40     libTIFF:tif_dirinfo.obj
 0002:00027e50       ??_C@_0L@JBBMIPMO@ColorSpace?$AA@ 10155e50     libTIFF:tif_dirinfo.obj
 0002:00027e5c       ??_C@_0BA@IFPNGCLP@FlashpixVersion?$AA@ 10155e5c     libTIFF:tif_dirinfo.obj
 0002:00027e6c       ??_C@_0BE@OLIADLLE@SubSecTimeDigitized?$AA@ 10155e6c     libTIFF:tif_dirinfo.obj
 0002:00027e80       ??_C@_0BD@MJHFBLFL@SubSecTimeOriginal?$AA@ 10155e80     libTIFF:tif_dirinfo.obj
 0002:00027e94       ??_C@_0L@EIKOOOEI@SubSecTime?$AA@ 10155e94     libTIFF:tif_dirinfo.obj
 0002:00027ea0       ??_C@_0M@KEGPAPIK@UserComment?$AA@ 10155ea0     libTIFF:tif_dirinfo.obj
 0002:00027eac       ??_C@_09OBDIKDAI@MakerNote?$AA@ 10155eac     libTIFF:tif_dirinfo.obj
 0002:00027eb8       ??_C@_0M@HIFMGNBJ@SubjectArea?$AA@ 10155eb8     libTIFF:tif_dirinfo.obj
 0002:00027ec4       ??_C@_0M@MLGJHAEP@FocalLength?$AA@ 10155ec4     libTIFF:tif_dirinfo.obj
 0002:00027ed0       ??_C@_05LDPHIKKB@Flash?$AA@ 10155ed0     libTIFF:tif_dirinfo.obj
 0002:00027ed8       ??_C@_0M@CPMAGLBF@LightSource?$AA@ 10155ed8     libTIFF:tif_dirinfo.obj
 0002:00027ee4       ??_C@_0N@IIBFGCNP@MeteringMode?$AA@ 10155ee4     libTIFF:tif_dirinfo.obj
 0002:00027ef4       ??_C@_0BB@GAEBMGJC@MaxApertureValue?$AA@ 10155ef4     libTIFF:tif_dirinfo.obj
 0002:00027f08       ??_C@_0BC@LLELKLKD@ExposureBiasValue?$AA@ 10155f08     libTIFF:tif_dirinfo.obj
 0002:00027f1c       ??_C@_0BA@EGKOPPPO@BrightnessValue?$AA@ 10155f1c     libTIFF:tif_dirinfo.obj
 0002:00027f2c       ??_C@_0O@GJBBICDD@ApertureValue?$AA@ 10155f2c     libTIFF:tif_dirinfo.obj
 0002:00027f3c       ??_C@_0BC@NBBOLGAK@ShutterSpeedValue?$AA@ 10155f3c     libTIFF:tif_dirinfo.obj
 0002:00027f50       ??_C@_0BH@FFHAHDGG@CompressedBitsPerPixel?$AA@ 10155f50     libTIFF:tif_dirinfo.obj
 0002:00027f68       ??_C@_0BI@JMCGLMNB@ComponentsConfiguration?$AA@ 10155f68     libTIFF:tif_dirinfo.obj
 0002:00027f80       ??_C@_0BC@GLNMEBAJ@DateTimeDigitized?$AA@ 10155f80     libTIFF:tif_dirinfo.obj
 0002:00027f94       ??_C@_0BB@PAGIGNMO@DateTimeOriginal?$AA@ 10155f94     libTIFF:tif_dirinfo.obj
 0002:00027fa8       ??_C@_0M@CGAEEADJ@ExifVersion?$AA@ 10155fa8     libTIFF:tif_dirinfo.obj
 0002:00027fb4       ??_C@_0BN@HMAPDKHD@OptoelectricConversionFactor?$AA@ 10155fb4     libTIFF:tif_dirinfo.obj
 0002:00027fd4       ??_C@_0BA@EDGAOAMO@ISOSpeedRatings?$AA@ 10155fd4     libTIFF:tif_dirinfo.obj
 0002:00027fe4       ??_C@_0BE@PIIMHIGD@SpectralSensitivity?$AA@ 10155fe4     libTIFF:tif_dirinfo.obj
 0002:00027ff8       ??_C@_0BA@NBKCPBEE@ExposureProgram?$AA@ 10155ff8     libTIFF:tif_dirinfo.obj
 0002:00028008       ??_C@_07JJGMOHGB@FNumber?$AA@ 10156008     libTIFF:tif_dirinfo.obj
 0002:00028010       ??_C@_0N@HBMJEINN@ExposureTime?$AA@ 10156010     libTIFF:tif_dirinfo.obj
 0002:00028020       ??_C@_0O@EPEJOOPE@EXIFIFDOffset?$AA@ 10156020     libTIFF:tif_dirinfo.obj
 0002:00028030       ??_C@_09IGMAHJMF@Photoshop?$AA@ 10156030     libTIFF:tif_dirinfo.obj
 0002:0002803c       ??_C@_0N@OOBJBGNN@RichTIFFIPTC?$AA@ 1015603c     libTIFF:tif_dirinfo.obj
 0002:0002804c       ??_C@_09EGCMDBBB@Copyright?$AA@ 1015604c     libTIFF:tif_dirinfo.obj
 0002:00028058       ??_C@_0BE@GHELMCOO@MatrixWorldToCamera?$AA@ 10156058     libTIFF:tif_dirinfo.obj
 0002:0002806c       ??_C@_0BE@DBBMFGEC@MatrixWorldToScreen?$AA@ 1015606c     libTIFF:tif_dirinfo.obj
 0002:00028080       ??_C@_0BF@NLNDAHOA@FieldOfViewCotangent?$AA@ 10156080     libTIFF:tif_dirinfo.obj
 0002:00028098       ??_C@_0BB@BLHCPJIO@TextureWrapModes?$AA@ 10156098     libTIFF:tif_dirinfo.obj
 0002:000280ac       ??_C@_0O@KPNNAKIA@TextureFormat?$AA@ 101560ac     libTIFF:tif_dirinfo.obj
 0002:000280bc       ??_C@_0BA@DKOBCOEF@ImageFullLength?$AA@ 101560bc     libTIFF:tif_dirinfo.obj
 0002:000280cc       ??_C@_0P@CMFNNNEC@ImageFullWidth?$AA@ 101560cc     libTIFF:tif_dirinfo.obj
 0002:000280dc       ??_C@_09FCHIGBAK@TileDepth?$AA@ 101560dc     libTIFF:tif_dirinfo.obj
 0002:000280e8       ??_C@_0L@FCEIIEG@ImageDepth?$AA@ 101560e8     libTIFF:tif_dirinfo.obj
 0002:000280f4       ??_C@_08MKJJEABH@DataType?$AA@ 101560f4     libTIFF:tif_dirinfo.obj
 0002:00028100       ??_C@_08NNPHEPDF@Matteing?$AA@ 10156100     libTIFF:tif_dirinfo.obj
 0002:0002810c       ??_C@_09DANOJPCJ@XMLPacket?$AA@ 1015610c     libTIFF:tif_dirinfo.obj
 0002:00028118       ??_C@_0BE@NFHGFGHL@ReferenceBlackWhite?$AA@ 10156118     libTIFF:tif_dirinfo.obj
 0002:0002812c       ??_C@_0BB@MCGJKLCD@YCbCrPositioning?$AA@ 1015612c     libTIFF:tif_dirinfo.obj
 0002:00028140       ??_C@_0BB@EAHIDPNH@YCbCrSubsampling?$AA@ 10156140     libTIFF:tif_dirinfo.obj
 0002:00028154       ??_C@_0BC@JLDBGNOO@YCbCrCoefficients?$AA@ 10156154     libTIFF:tif_dirinfo.obj
 0002:00028168       ??_C@_0P@DLEFDGLP@YClipPathUnits?$AA@ 10156168     libTIFF:tif_dirinfo.obj
 0002:00028178       ??_C@_0P@ICLOONFH@XClipPathUnits?$AA@ 10156178     libTIFF:tif_dirinfo.obj
 0002:00028188       ??_C@_08CJPEBLBO@ClipPath?$AA@ 10156188     libTIFF:tif_dirinfo.obj
 0002:00028194       ??_C@_0BA@CAAPJDKJ@SMaxSampleValue?$AA@ 10156194     libTIFF:tif_dirinfo.obj
 0002:000281a4       ??_C@_0BA@HLEPEJI@SMinSampleValue?$AA@ 101561a4     libTIFF:tif_dirinfo.obj
 0002:000281b4       ??_C@_0N@COAIDMDF@SampleFormat?$AA@ 101561b4     libTIFF:tif_dirinfo.obj
 0002:000281c4       ??_C@_0N@FBOKJIG@ExtraSamples?$AA@ 101561c4     libTIFF:tif_dirinfo.obj
 0002:000281d4       ??_C@_0O@HIPJIAFG@TargetPrinter?$AA@ 101561d4     libTIFF:tif_dirinfo.obj
 0002:000281e4       ??_C@_0N@BPLONCNN@NumberOfInks?$AA@ 101561e4     libTIFF:tif_dirinfo.obj
 0002:000281f4       ??_C@_08DFFFMNFK@InkNames?$AA@ 101561f4     libTIFF:tif_dirinfo.obj
 0002:00028200       ??_C@_06MOKNAHDA@SubIFD?$AA@ 10156200     libTIFF:tif_dirinfo.obj
 0002:00028208       ??_C@_0P@KKKGJALK@TileByteCounts?$AA@ 10156208     libTIFF:tif_dirinfo.obj
 0002:00028218       ??_C@_0L@PGAMLFDB@TileLength?$AA@ 10156218     libTIFF:tif_dirinfo.obj
 0002:00028224       ??_C@_09MNLBDMPG@TileWidth?$AA@ 10156224     libTIFF:tif_dirinfo.obj
 0002:00028230       ??_C@_0O@IBFFFMDO@HalftoneHints?$AA@ 10156230     libTIFF:tif_dirinfo.obj
 0002:00028240       ??_C@_08MONABGDE@ColorMap?$AA@ 10156240     libTIFF:tif_dirinfo.obj
 0002:0002824c       ??_C@_0BG@HPEACEAO@PrimaryChromaticities?$AA@ 1015624c     libTIFF:tif_dirinfo.obj
 0002:00028264       ??_C@_0L@FOEBADNN@WhitePoint?$AA@ 10156264     libTIFF:tif_dirinfo.obj
 0002:00028270       ??_C@_0N@FMEMPOCI@HostComputer?$AA@ 10156270     libTIFF:tif_dirinfo.obj
 0002:00028280       ??_C@_06JBJNGGPL@Artist?$AA@ 10156280     libTIFF:tif_dirinfo.obj
 0002:00028288       ??_C@_08BFOPGFLN@DateTime?$AA@ 10156288     libTIFF:tif_dirinfo.obj
 0002:00028294       ??_C@_08KEKAJNJI@Software?$AA@ 10156294     libTIFF:tif_dirinfo.obj
 0002:000282a0       ??_C@_0BB@BGHMCKCG@TransferFunction?$AA@ 101562a0     libTIFF:tif_dirinfo.obj
 0002:000282b4       ??_C@_0BC@FCKPFKIP@ColorResponseUnit?$AA@ 101562b4     libTIFF:tif_dirinfo.obj
 0002:000282c8       ??_C@_0L@JOKJLCFG@PageNumber?$AA@ 101562c8     libTIFF:tif_dirinfo.obj
 0002:000282d4       ??_C@_0P@BLKPBGFG@ResolutionUnit?$AA@ 101562d4     libTIFF:tif_dirinfo.obj
 0002:000282e4       ??_C@_0BC@JCKFKGMN@GrayResponseCurve?$AA@ 101562e4     libTIFF:tif_dirinfo.obj
 0002:000282f8       ??_C@_0BB@NFPLE@GrayResponseUnit?$AA@ 101562f8     libTIFF:tif_dirinfo.obj
 0002:0002830c       ??_C@_0P@OIFNLDAN@FreeByteCounts?$AA@ 1015630c     libTIFF:tif_dirinfo.obj
 0002:0002831c       ??_C@_0M@PPBGPJCD@FreeOffsets?$AA@ 1015631c     libTIFF:tif_dirinfo.obj
 0002:00028328       ??_C@_09CCBPGJPM@YPosition?$AA@ 10156328     libTIFF:tif_dirinfo.obj
 0002:00028334       ??_C@_09MNNNACMC@XPosition?$AA@ 10156334     libTIFF:tif_dirinfo.obj
 0002:00028340       ??_C@_08FNBBFHFP@PageName?$AA@ 10156340     libTIFF:tif_dirinfo.obj
 0002:0002834c       ??_C@_0BE@HLDFAIFI@PlanarConfiguration?$AA@ 1015634c     libTIFF:tif_dirinfo.obj
 0002:00028360       ??_C@_0M@BHHBDBIK@YResolution?$AA@ 10156360     libTIFF:tif_dirinfo.obj
 0002:0002836c       ??_C@_0M@IMNEHNOF@XResolution?$AA@ 1015636c     libTIFF:tif_dirinfo.obj
 0002:00028378       ??_C@_0P@PKPGKHIN@MaxSampleValue?$AA@ 10156378     libTIFF:tif_dirinfo.obj
 0002:00028388       ??_C@_0P@NNENMALM@MinSampleValue?$AA@ 10156388     libTIFF:tif_dirinfo.obj
 0002:00028398       ??_C@_0N@LHBFECGG@RowsPerStrip?$AA@ 10156398     libTIFF:tif_dirinfo.obj
 0002:000283a8       ??_C@_0BA@LJLLGGNK@SamplesPerPixel?$AA@ 101563a8     libTIFF:tif_dirinfo.obj
 0002:000283b8       ??_C@_0M@LHPCLPIO@Orientation?$AA@ 101563b8     libTIFF:tif_dirinfo.obj
 0002:000283c4       ??_C@_05NFIJOKEG@Model?$AA@ 101563c4     libTIFF:tif_dirinfo.obj
 0002:000283cc       ??_C@_04EGCMLPFP@Make?$AA@ 101563cc     libTIFF:tif_dirinfo.obj
 0002:000283d4       ??_C@_0BB@FIGEGBLN@ImageDescription?$AA@ 101563d4     libTIFF:tif_dirinfo.obj
 0002:000283e8       ??_C@_0N@EMOOAOEA@DocumentName?$AA@ 101563e8     libTIFF:tif_dirinfo.obj
 0002:000283f8       ??_C@_09COAODNAJ@FillOrder?$AA@ 101563f8     libTIFF:tif_dirinfo.obj
 0002:00028404       ??_C@_0L@HELCJPNM@CellLength?$AA@ 10156404     libTIFF:tif_dirinfo.obj
 0002:00028410       ??_C@_09HLGPBAKA@CellWidth?$AA@ 10156410     libTIFF:tif_dirinfo.obj
 0002:0002841c       ??_C@_0O@BEILMJNG@Threshholding?$AA@ 1015641c     libTIFF:tif_dirinfo.obj
 0002:0002842c       ??_C@_0BK@CEFMFMBC@PhotometricInterpretation?$AA@ 1015642c     libTIFF:tif_dirinfo.obj
 0002:00028448       ??_C@_0O@IEKDKOPG@BitsPerSample?$AA@ 10156448     libTIFF:tif_dirinfo.obj
 0002:00028458       ??_C@_0L@JKONNFLK@ImageWidth?$AA@ 10156458     libTIFF:tif_dirinfo.obj
 0002:00028464       ??_C@_0P@KMJCMCFN@OldSubfileType?$AA@ 10156464     libTIFF:tif_dirinfo.obj
 0002:00028474       ??_C@_0M@PGIFBBPJ@SubfileType?$AA@ 10156474     libTIFF:tif_dirinfo.obj
 0002:00028480       ??_C@_0BN@JDHDOHOK@Setting?5up?5field?5info?5failed?$AA@ 10156480     libTIFF:tif_dirinfo.obj
 0002:000284a0       ??_C@_0BB@FOBJLMCO@_TIFFSetupFields?$AA@ 101564a0     libTIFF:tif_dirinfo.obj
 0002:000284b4       ??_C@_0CA@PFCNFOLP@Failed?5to?5allocate?5fields?5array?$AA@ 101564b4     libTIFF:tif_dirinfo.obj
 0002:000284d4       ??_C@_0CB@KCGLIBGP@Internal?5error?0?5unknown?5tag?50x?$CFx@ 101564d4     libTIFF:tif_dirinfo.obj
 0002:000284f8       ??_C@_0BB@LBMOGMBL@TIFFFieldWithTag?$AA@ 101564f8     libTIFF:tif_dirinfo.obj
 0002:0002850c       ??_C@_06MCJGBPBB@Tag?5?$CFd?$AA@ 1015650c     libTIFF:tif_dirinfo.obj
 0002:00028514       ??_C@_04JBEODCLL@LZMA?$AA@ 10156514     libTIFF:tif_codec.obj
 0002:0002851c       ??_C@_08PJCOEKIE@SGILog24?$AA@ 1015651c     libTIFF:tif_codec.obj
 0002:00028528       ??_C@_06IPOFEFLP@SGILog?$AA@ 10156528     libTIFF:tif_codec.obj
 0002:00028530       ??_C@_08IDMIHGFD@PixarLog?$AA@ 10156530     libTIFF:tif_codec.obj
 0002:0002853c       ??_C@_0N@IFNAMCCK@AdobeDeflate?$AA@ 1015653c     libTIFF:tif_codec.obj
 0002:0002854c       ??_C@_07KEADDGMA@Deflate?$AA@ 1015654c     libTIFF:tif_codec.obj
 0002:00028554       ??_C@_08OGKMBFFN@ISO?5JBIG?$AA@ 10156554     libTIFF:tif_codec.obj
 0002:00028560       ??_C@_0O@DMBPODGM@CCITT?5Group?54?$AA@ 10156560     libTIFF:tif_codec.obj
 0002:00028570       ??_C@_0O@HDFOHFKL@CCITT?5Group?53?$AA@ 10156570     libTIFF:tif_codec.obj
 0002:00028580       ??_C@_0M@GJNJKFDL@CCITT?5RLE?1W?$AA@ 10156580     libTIFF:tif_codec.obj
 0002:0002858c       ??_C@_09KMPLGNKC@CCITT?5RLE?$AA@ 1015658c     libTIFF:tif_codec.obj
 0002:00028598       ??_C@_0P@NFIAFOJP@Old?9style?5JPEG?$AA@ 10156598     libTIFF:tif_codec.obj
 0002:000285a8       ??_C@_04CJPKNBEB@JPEG?$AA@ 101565a8     libTIFF:tif_codec.obj
 0002:000285b0       ??_C@_04GOJOAOKD@NeXT?$AA@ 101565b0     libTIFF:tif_codec.obj
 0002:000285b8       ??_C@_0M@PKAPFAHF@ThunderScan?$AA@ 101565b8     libTIFF:tif_codec.obj
 0002:000285c4       ??_C@_08JMHPPKPK@PackBits?$AA@ 101565c4     libTIFF:tif_codec.obj
 0002:000285d0       ??_C@_03JLKIKHJD@LZW?$AA@  101565d0     libTIFF:tif_codec.obj
 0002:000285d4       ??_C@_04OHJIHAFH@None?$AA@ 101565d4     libTIFF:tif_codec.obj
 0002:000285dc       ??_C@_0CJ@BGGJDMMO@?$CFs?5compression?5support?5is?5not?5co@ 101565dc     libTIFF:tif_codec.obj
 0002:00028608       ??_C@_0BL@DHHADHIG@Error?5updating?5TIFF?5header?$AA@ 10156608     libTIFF:tif_dirwrite.obj
 0002:00028624       ??_C@_0DG@KCKGMOHM@Sanity?5check?5on?5tag?5count?5failed@ 10156624     libTIFF:tif_dirwrite.obj
 0002:0002865c       ??_C@_0CL@LFMLOEJO@Error?5post?9encoding?5before?5direc@ 1015665c     libTIFF:tif_dirwrite.obj
 0002:00028688       ??_C@_0CL@CAFHGII@Error?5flushing?5data?5before?5direc@ 10156688     libTIFF:tif_dirwrite.obj
 0002:000286b4       ??_C@_0BL@KLMCBBID@IO?5error?5writing?5directory?$AA@ 101566b4     libTIFF:tif_dirwrite.obj
 0002:000286d0       ??_C@_0EE@EPEAFKPN@Attempt?5to?5write?5value?5larger?5th@ 101566d0     libTIFF:tif_dirwrite.obj
 0002:00028714       ??_C@_0BK@ILNIBEHL@IO?5error?5writing?5tag?5data?$AA@ 10156714     libTIFF:tif_dirwrite.obj
 0002:00028730       ??_C@_0CE@HJALOAFK@Error?5writing?5SubIFD?5directory?5l@ 10156730     libTIFF:tif_dirwrite.obj
 0002:00028758       ??_C@_0EA@JDPPLHCN@Memory?5mapped?5files?5not?5currentl@ 10156758     libTIFF:tif_dirwrite.obj
 0002:00028798       ??_C@_0DJ@LEKMNNLO@Attempt?5to?5reset?5field?5on?5direct@ 10156798     libTIFF:tif_dirwrite.obj
 0002:000287d4       ??_C@_0CH@CHHCHAMM@?$CFs?3?5Can?5not?5read?5TIFF?5directory?5@ 101567d4     libTIFF:tif_dirwrite.obj
 0002:000287fc       ??_C@_0BL@BHBOJNN@?$CFs?3?5Could?5not?5find?5tag?5?$CFd?4?$AA@ 101567fc     libTIFF:tif_dirwrite.obj
 0002:00028818       ??_C@_0BC@ONEHCBPM@for?5field?5buffer?4?$AA@ 10156818     libTIFF:tif_dirwrite.obj
 0002:0002882c       ??_C@_0CK@FBOFGPCD@Value?5exceeds?532bit?5range?5of?5out@ 1015682c     libTIFF:tif_dirwrite.obj
 0002:00028858       ??_C@_0CI@JEHPIFN@?$CFs?3?5Can?5not?5write?5TIFF?5directory@ 10156858     libTIFF:tif_dirwrite.obj
 0002:00028880       ??_C@_0O@LNOFHKID@Group4Options?$AA@ 10156880     libTIFF:tif_fax3.obj
 0002:00028890       ??_C@_0O@NJIEBHEK@Group3Options?$AA@ 10156890     libTIFF:tif_fax3.obj
 0002:000288a0       ??_C@_0BH@MAICMAOC@ConsecutiveBadFaxLines?$AA@ 101568a0     libTIFF:tif_fax3.obj
 0002:000288b8       ??_C@_0N@HCCGJNIB@CleanFaxData?$AA@ 101568b8     libTIFF:tif_fax3.obj
 0002:000288c8       ??_C@_0M@CCFMFAM@BadFaxLines?$AA@ 101568c8     libTIFF:tif_fax3.obj
 0002:000288d4       ??_C@_0M@PJHHKMLA@FaxFillFunc?$AA@ 101568d4     libTIFF:tif_fax3.obj
 0002:000288e0       ??_C@_07CLONKELC@FaxMode?$AA@ 101568e0     libTIFF:tif_fax3.obj
 0002:000288e8       ??_C@_0CJ@NONDILOO@Bad?5code?5word?5at?5line?5?$CFu?5of?5?$CFs?5?$CF@ 101568e8     libTIFF:tif_fax3.obj
 0002:00028914       ??_C@_0DN@OGFBNKJD@Uncompressed?5data?5?$CInot?5supported@ 10156914     libTIFF:tif_fax3.obj
 0002:00028954       ??_C@_0O@OGEDDEDK@Premature?5EOL?$AA@ 10156954     libTIFF:tif_fax3.obj
 0002:00028964       ??_C@_0BF@INAIOLFJ@Line?5length?5mismatch?$AA@ 10156964     libTIFF:tif_fax3.obj
 0002:0002897c       ??_C@_0CN@PNILODHJ@?$CFs?5at?5line?5?$CFu?5of?5?$CFs?5?$CFu?5?$CIgot?5?$CFu?0?5@ 1015697c     libTIFF:tif_fax3.obj
 0002:000289ac       ??_C@_0CJ@EFAPGKPJ@Premature?5EOF?5at?5line?5?$CFu?5of?5?$CFs?5?$CF@ 101569ac     libTIFF:tif_fax3.obj
 0002:000289d8       ??_C@_0CE@DLPOPLOE@Fractional?5scanlines?5cannot?5be?5r@ 101569d8     libTIFF:tif_fax3.obj
 0002:000289fc       ??_C@_0DG@CNKPPKEG@Bits?1sample?5must?5be?51?5for?5Group?5@ 101569fc     libTIFF:tif_fax3.obj
 0002:00028a34       ??_C@_0CL@CMJAMBGP@Row?5pixels?5integer?5overflow?5?$CIrow@ 10156a34     libTIFF:tif_fax3.obj
 0002:00028a60       ??_C@_0BJ@LGBAEIIE@for?5Group?53?14?5run?5arrays?$AA@ 10156a60     libTIFF:tif_fax3.obj
 0002:00028a7c       ??_C@_0CG@IAEEGEDK@No?5space?5for?5Group?53?14?5reference@ 10156a7c     libTIFF:tif_fax3.obj
 0002:00028aa4       ??_C@_0CH@DELDFOMI@Fractional?5scanlines?5cannot?5be?5w@ 10156aa4     libTIFF:tif_fax3.obj
 0002:00028acc       ??_C@_0BD@FPFECPCF@?5?5Group?54?5Options?3?$AA@ 10156acc     libTIFF:tif_fax3.obj
 0002:00028ae0       ??_C@_0BE@JPLBFJDH@?$CFsuncompressed?5data?$AA@ 10156ae0     libTIFF:tif_fax3.obj
 0002:00028af4       ??_C@_0BD@HGGPDKKG@?5?5Group?53?5Options?3?$AA@ 10156af4     libTIFF:tif_fax3.obj
 0002:00028b08       ??_C@_0P@JJILGBFA@?$CFs2?9d?5encoding?$AA@ 10156b08     libTIFF:tif_fax3.obj
 0002:00028b18       ??_C@_0O@NLCHCBEA@?$CFsEOL?5padding?$AA@ 10156b18     libTIFF:tif_fax3.obj
 0002:00028b28       ??_C@_0BA@IJCBGEKI@?5?$CI?$CFlu?5?$DN?50x?$CFlx?$CJ?6?$AA@ 10156b28     libTIFF:tif_fax3.obj
 0002:00028b38       ??_C@_0M@MKEJGCCE@?5?5Fax?5Data?3?$AA@ 10156b38     libTIFF:tif_fax3.obj
 0002:00028b44       ??_C@_06MBBPBOKK@?5clean?$AA@ 10156b44     libTIFF:tif_fax3.obj
 0002:00028b4c       ??_C@_0BG@BCPNLBLD@?5receiver?5regenerated?$AA@ 10156b4c     libTIFF:tif_fax3.obj
 0002:00028b64       ??_C@_0BE@IBPDLOLJ@?5uncorrected?5errors?$AA@ 10156b64     libTIFF:tif_fax3.obj
 0002:00028b78       ??_C@_0O@EJCEOFDO@?5?$CI?$CFu?5?$DN?50x?$CFx?$CJ?6?$AA@ 10156b78     libTIFF:tif_fax3.obj
 0002:00028b88       ??_C@_0BG@BLDFJOIG@?5?5Bad?5Fax?5Lines?3?5?$CFlu?6?$AA@ 10156b88     libTIFF:tif_fax3.obj
 0002:00028ba0       ??_C@_0CC@GFEPHFII@?5?5Consecutive?5Bad?5Fax?5Lines?3?5?$CFlu@ 10156ba0     libTIFF:tif_fax3.obj
 0002:00028bc4       ??_C@_0DE@BIHBLEHF@Merging?5common?5CCITT?5Fax?5codec?9s@ 10156bc4     libTIFF:tif_fax3.obj
 0002:00028bf8       ??_C@_0O@NANLJDDK@InitCCITTFax3?$AA@ 10156bf8     libTIFF:tif_fax3.obj
 0002:00028c08       ??_C@_0BJ@CNEGKELJ@No?5space?5for?5state?5block?$AA@ 10156c08     libTIFF:tif_fax3.obj
 0002:00028c24       ??_C@_0CP@MIANCGL@Merging?5CCITT?5Fax?53?5codec?9specif@ 10156c24     libTIFF:tif_fax3.obj
 0002:00028c54       ??_C@_0BC@FAODAPHG@TIFFInitCCITTFax3?$AA@ 10156c54     libTIFF:tif_fax3.obj
 0002:00028c68       ??_C@_0CP@POOGNLNG@Merging?5CCITT?5Fax?54?5codec?9specif@ 10156c68     libTIFF:tif_fax3.obj
 0002:00028c98       ??_C@_0BC@BPKCJJLB@TIFFInitCCITTFax4?$AA@ 10156c98     libTIFF:tif_fax3.obj
 0002:00028cb0       ??_C@_0FA@MMANDJKD@Wrong?5bitspersample?5value?5?$CI?$CFd?$CJ?0?5@ 10156cb0     libTIFF:tif_thunder.obj
 0002:00028d00       ??_C@_0L@CINMFCNI@Not?5enough?$AA@ 10156d00     libTIFF:tif_thunder.obj
 0002:00028d0c       ??_C@_08JPCHAHIC@Too?5much?$AA@ 10156d0c     libTIFF:tif_thunder.obj
 0002:00028d18       ??_C@_0CJ@LKACBM@?$CFs?5data?5at?5scanline?5?$CFlu?5?$CI?$CFI64u?5?$CB@ 10156d18     libTIFF:tif_thunder.obj
 0002:00028d44       ??_C@_0N@LOAJLJAM@SGILogEncode?$AA@ 10156d44     libTIFF:tif_luv.obj
 0002:00028d54       ??_C@_0O@NNHCDDFI@SGILogDataFmt?$AA@ 10156d54     libTIFF:tif_luv.obj
 0002:00028d64       ??_C@_0DA@PHMIPPPH@Not?5enough?5data?5at?5row?5?$CFlu?5?$CIshor@ 10156d64     libTIFF:tif_luv.obj
 0002:00028d94       ??_C@_0DD@KOGMKDOF@No?5support?5for?5converting?5user?5d@ 10156d94     libTIFF:tif_luv.obj
 0002:00028dc8       ??_C@_0CH@BJDPMPEI@No?5space?5for?5SGILog?5translation?5@ 10156dc8     libTIFF:tif_luv.obj
 0002:00028df0       ??_C@_0DF@OBAAHKAM@SGILog?5compression?5cannot?5handle@ 10156df0     libTIFF:tif_luv.obj
 0002:00028e28       ??_C@_0DF@EHIJCPFM@No?5support?5for?5converting?5user?5d@ 10156e28     libTIFF:tif_luv.obj
 0002:00028e60       ??_C@_0BO@IFCGLJNG@must?5be?5either?5LogLUV?5or?5LogL?$AA@ 10156e60     libTIFF:tif_luv.obj
 0002:00028e80       ??_C@_0EH@CCFMBIML@Inappropriate?5photometric?5interp@ 10156e80     libTIFF:tif_luv.obj
 0002:00028ec8       ??_C@_04ICLLPDDH@Y?0?5L?$AA@ 10156ec8     libTIFF:tif_luv.obj
 0002:00028ed0       ??_C@_08FGICCPCM@XYZ?0?5Luv?$AA@ 10156ed0     libTIFF:tif_luv.obj
 0002:00028edc       ??_C@_0DG@NPFEJDLJ@SGILog?5compression?5supported?5onl@ 10156edc     libTIFF:tif_luv.obj
 0002:00028f14       ??_C@_0CO@LDBGPAME@Unknown?5data?5format?5?$CFd?5for?5LogLu@ 10156f14     libTIFF:tif_luv.obj
 0002:00028f44       ??_C@_0CL@KLLOLBDE@Unknown?5encoding?5?$CFd?5for?5LogLuv?5c@ 10156f44     libTIFF:tif_luv.obj
 0002:00028f70       ??_C@_0CK@JDABHLAH@Merging?5SGILog?5codec?9specific?5ta@ 10156f70     libTIFF:tif_luv.obj
 0002:00028f9c       ??_C@_0CE@NJNBIEPB@?$CFs?3?5No?5space?5for?5LogLuv?5state?5bl@ 10156f9c     libTIFF:tif_luv.obj
 0002:00028fc0       ??_C@_0BN@DKMKDDLF@No?5space?5for?5LZW?5state?5block?$AA@ 10156fc0     libTIFF:tif_lzw.obj
 0002:00028fe0       ??_C@_0BM@FMHDANJM@No?5space?5for?5LZW?5code?5table?$AA@ 10156fe0     libTIFF:tif_lzw.obj
 0002:00028ffc       ??_C@_0CC@ILCBDFO@Old?9style?5LZW?5codes?0?5convert?5fil@ 10156ffc     libTIFF:tif_lzw.obj
 0002:00029020       ??_C@_0DE@ECJGKOCG@Bogus?5encoding?0?5loop?5in?5the?5code@ 10157020     libTIFF:tif_lzw.obj
 0002:00029054       ??_C@_0DB@EKIJJLGE@LZWDecode?3?5Strip?5?$CFd?5not?5terminat@ 10157054     libTIFF:tif_lzw.obj
 0002:00029088       ??_C@_0CO@DEGECBEC@LZWDecode?3?5Corrupted?5LZW?5table?5a@ 10157088     libTIFF:tif_lzw.obj
 0002:000290b8       ??_C@_0CD@IKGELECB@Corrupted?5LZW?5table?5at?5scanline?5@ 101570b8     libTIFF:tif_lzw.obj
 0002:000290e0       ??_C@_0EH@KKOFLINK@Wrong?5length?5of?5decoded?5string?3?5@ 101570e0     libTIFF:tif_lzw.obj
 0002:00029128       ??_C@_0DD@EEGNMCND@Not?5enough?5data?5at?5scanline?5?$CFd?5?$CI@ 10157128     libTIFF:tif_lzw.obj
 0002:0002915c       ??_C@_0BM@DCDPIAAC@No?5space?5for?5LZW?5hash?5table?$AA@ 1015715c     libTIFF:tif_lzw.obj
 0002:00029178       ??_C@_0CN@BMIKOCEK@Discarding?5?$CFlu?5bytes?5to?5avoid?5bu@ 10157178     libTIFF:tif_packbits.obj
 0002:000291a8       ??_C@_0DA@INDEABA@Terminating?5PackBitsDecode?5due?5t@ 101571a8     libTIFF:tif_packbits.obj
 0002:000291d8       ??_C@_0CB@LJMCPPAL@Not?5enough?5data?5for?5scanline?5?$CFlu@ 101571d8     libTIFF:tif_packbits.obj
 0002:000291fc       ??_C@_0CB@OKBLNMBL@Not?5enough?5data?5for?5scanline?5?$CFld@ 101571fc     libTIFF:tif_next.obj
 0002:00029220       ??_C@_0GM@MMKEEFNF@Not?5enough?5data?5for?5scanline?5?$CFlu@ 10157220     libTIFF:tif_dumpmode.obj
 0002:0002928c       ??_C@_09NHHAMPBG@Predictor?$AA@ 1015728c     libTIFF:tif_predict.obj
 0002:00029298       ??_C@_0EG@JJHDBJJL@Horizontal?5differencing?5?$CCPredict@ 10157298     libTIFF:tif_predict.obj
 0002:000292e0       ??_C@_0DN@MMJMLMCH@Floating?5point?5?$CCPredictor?$CC?5not?5s@ 101572e0     libTIFF:tif_predict.obj
 0002:00029320       ??_C@_0CD@LFCKLNNH@?$CCPredictor?$CC?5value?5?$CFd?5not?5support@ 10157320     libTIFF:tif_predict.obj
 0002:00029344       ??_C@_0CP@FKGAJBLE@Out?5of?5memory?5allocating?5?$CFld?5byt@ 10157344     libTIFF:tif_predict.obj
 0002:00029374       ??_C@_0O@HPEPHFOH@?5?5Predictor?3?5?$AA@ 10157374     libTIFF:tif_predict.obj
 0002:00029384       ??_C@_05GHMAHNLD@none?5?$AA@ 10157384     libTIFF:tif_predict.obj
 0002:0002938c       ??_C@_0BJ@LIEFCDEP@horizontal?5differencing?5?$AA@ 1015738c     libTIFF:tif_predict.obj
 0002:000293a8       ??_C@_0BK@MKLAGOLN@floating?5point?5predictor?5?$AA@ 101573a8     libTIFF:tif_predict.obj
 0002:000293c4       ??_C@_0L@POHKEPAG@?$CFu?5?$CI0x?$CFx?$CJ?6?$AA@ 101573c4     libTIFF:tif_predict.obj
 0002:000293d0       ??_C@_0CN@LEKLCOMH@Merging?5Predictor?5codec?9specific@ 101573d0     libTIFF:tif_predict.obj
 0002:00029400       ??_C@_0BC@NKHOINKG@TIFFPredictorInit?$AA@ 10157400     libTIFF:tif_predict.obj
 0002:00029414       ??_C@_03ONFDEEMF@SOS?$AA@  10157414     jpeg:jdmarker.obj
 0002:00029418       ??_C@_03OMINOMMP@LSE?$AA@  10157418     jpeg:jdmarker.obj
 0002:0002941c       ??_C@_0CL@OCGBAKPF@Application?5transferred?5too?5many@ 1015741c     jpeg:jerror.obj
 0002:00029448       ??_C@_0CL@BAKCGOKJ@Invalid?5SOS?5parameters?5for?5seque@ 10157448     jpeg:jerror.obj
 0002:00029474       ??_C@_0DI@NFMBADOH@Corrupt?5JPEG?5data?3?5found?5marker?5@ 10157474     jpeg:jerror.obj
 0002:000294ac       ??_C@_0BL@DPFPFMLM@Premature?5end?5of?5JPEG?5file?$AA@ 101574ac     jpeg:jerror.obj
 0002:000294c8       ??_C@_0CO@ODCCEDLN@Warning?3?5unknown?5JFIF?5revision?5n@ 101574c8     jpeg:jerror.obj
 0002:000294f8       ??_C@_0CE@PBLDOPKB@Corrupt?5JPEG?5data?3?5bad?5Huffman?5c@ 101574f8     jpeg:jerror.obj
 0002:0002951c       ??_C@_0DB@PGMEPGHN@Corrupt?5JPEG?5data?3?5premature?5end@ 1015751c     jpeg:jerror.obj
 0002:00029550       ??_C@_0DM@PCOGCKJB@Corrupt?5JPEG?5data?3?5?$CFu?5extraneous@ 10157550     jpeg:jerror.obj
 0002:00029590       ??_C@_0EC@CBCJOINE@Inconsistent?5progression?5sequenc@ 10157590     jpeg:jerror.obj
 0002:000295d4       ??_C@_0CH@LMKBDJBK@Corrupt?5JPEG?5data?3?5bad?5arithmeti@ 101575d4     jpeg:jerror.obj
 0002:000295fc       ??_C@_0CG@KEGHCDOM@Unknown?5Adobe?5color?5transform?5co@ 101575fc     jpeg:jerror.obj
 0002:00029624       ??_C@_0BH@LJLGPEFF@Obtained?5XMS?5handle?5?$CFu?$AA@ 10157624     jpeg:jerror.obj
 0002:0002963c       ??_C@_0BE@FOGGKKAO@Freed?5XMS?5handle?5?$CFu?$AA@ 1015763c     jpeg:jerror.obj
 0002:00029650       ??_C@_0DE@EEJCDLOO@Unrecognized?5component?5IDs?5?$CFd?5?$CFd@ 10157650     jpeg:jerror.obj
 0002:00029684       ??_C@_0DG@FCFDGNHE@JFIF?5extension?5marker?3?5RGB?5thumb@ 10157684     jpeg:jerror.obj
 0002:000296bc       ??_C@_0DK@JGAPDCJL@JFIF?5extension?5marker?3?5palette?5t@ 101576bc     jpeg:jerror.obj
 0002:000296f8       ??_C@_0EC@ELDEPOJP@JFIF?5extension?5marker?3?5JPEG?9comp@ 101576f8     jpeg:jerror.obj
 0002:0002973c       ??_C@_0BJ@GOCABEP@Opened?5temporary?5file?5?$CFs?$AA@ 1015773c     jpeg:jerror.obj
 0002:00029758       ??_C@_0BJ@KDCGAOJB@Closed?5temporary?5file?5?$CFs?$AA@ 10157758     jpeg:jerror.obj
 0002:00029774       ??_C@_0BN@GAMIJLDC@?5?5Ss?$DN?$CFd?0?5Se?$DN?$CFd?0?5Ah?$DN?$CFd?0?5Al?$DN?$CFd?$AA@ 10157774     jpeg:jerror.obj
 0002:00029794       ??_C@_0BO@CDEKFGLC@?5?5?5?5Component?5?$CFd?3?5dc?$DN?$CFd?5ac?$DN?$CFd?$AA@ 10157794     jpeg:jerror.obj
 0002:000297b4       ??_C@_0BN@BLOOHNC@Start?5Of?5Scan?3?5?$CFd?5components?$AA@ 101577b4     jpeg:jerror.obj
 0002:000297d4       ??_C@_0P@JLCHJELA@Start?5of?5Image?$AA@ 101577d4     jpeg:jerror.obj
 0002:000297e4       ??_C@_0BP@EDCAMHHE@?5?5?5?5Component?5?$CFd?3?5?$CFdhx?$CFdv?5q?$DN?$CFd?$AA@ 101577e4     jpeg:jerror.obj
 0002:00029804       ??_C@_0DK@DMINKOGN@Start?5Of?5Frame?50x?$CF02x?3?5width?$DN?$CFu?0@ 10157804     jpeg:jerror.obj
 0002:00029840       ??_C@_0DJ@PCBCLFML@Smoothing?5not?5supported?5with?5non@ 10157840     jpeg:jerror.obj
 0002:0002987c       ??_C@_05LLAPAOG@RST?$CFd?$AA@ 1015787c     jpeg:jerror.obj
 0002:00029884       ??_C@_0CF@NIMOLBCP@At?5marker?50x?$CF02x?0?5recovery?5actio@ 10157884     jpeg:jerror.obj
 0002:000298ac       ??_C@_0CE@FDPBEAOO@Selected?5?$CFd?5colors?5for?5quantizat@ 101578ac     jpeg:jerror.obj
 0002:000298d0       ??_C@_0BI@NEIBNACE@Quantizing?5to?5?$CFd?5colors?$AA@ 101578d0     jpeg:jerror.obj
 0002:000298e8       ??_C@_0CD@CNNAOOFA@Quantizing?5to?5?$CFd?5?$DN?5?$CFd?$CK?$CFd?$CK?$CFd?5colo@ 101578e8     jpeg:jerror.obj
 0002:0002990c       ??_C@_0CI@GHPOCOCL@?5?5?5?5?5?5?5?5?$CF4u?5?$CF4u?5?$CF4u?5?$CF4u?5?$CF4u?5?$CF4u?5@ 1015790c     jpeg:jerror.obj
 0002:00029934       ??_C@_0BJ@COPODLDN@Unexpected?5marker?50x?$CF02x?$AA@ 10157934     jpeg:jerror.obj
 0002:00029950       ??_C@_0CH@EHHJCMGA@Miscellaneous?5marker?50x?$CF02x?0?5len@ 10157950     jpeg:jerror.obj
 0002:00029978       ??_C@_0CB@BADBMAAB@?5?5?5?5with?5?$CFd?5x?5?$CFd?5thumbnail?5image@ 10157978     jpeg:jerror.obj
 0002:0002999c       ??_C@_0CO@KKPHGHBA@JFIF?5extension?5marker?3?5type?50x?$CF0@ 1015799c     jpeg:jerror.obj
 0002:000299cc       ??_C@_0DM@JLHNPIBE@Warning?3?5thumbnail?5image?5size?5do@ 101579cc     jpeg:jerror.obj
 0002:00029a08       ??_C@_0DF@LOKNABIG@JFIF?5APP0?5marker?3?5version?5?$CFd?4?$CF02@ 10157a08     jpeg:jerror.obj
 0002:00029a40       ??_C@_0CI@FKGPAJC@?5?5?5?5?5?5?5?5?$CF3d?5?$CF3d?5?$CF3d?5?$CF3d?5?$CF3d?5?$CF3d?5@ 10157a40     jpeg:jerror.obj
 0002:00029a68       ??_C@_0N@HJHFKELG@End?5Of?5Image?$AA@ 10157a68     jpeg:jerror.obj
 0002:00029a78       ??_C@_0BH@GIPOLIGC@Obtained?5EMS?5handle?5?$CFu?$AA@ 10157a78     jpeg:jerror.obj
 0002:00029a90       ??_C@_0BE@IPCOOGDJ@Freed?5EMS?5handle?5?$CFu?$AA@ 10157a90     jpeg:jerror.obj
 0002:00029aa4       ??_C@_0BL@EMFIKBEK@Define?5Restart?5Interval?5?$CFu?$AA@ 10157aa4     jpeg:jerror.obj
 0002:00029ac0       ??_C@_0CL@KLDOJIKN@Define?5Quantization?5Table?5?$CFd?5?5pr@ 10157ac0     jpeg:jerror.obj
 0002:00029aec       ??_C@_0BM@MDIEILCE@Define?5Huffman?5Table?50x?$CF02x?$AA@ 10157aec     jpeg:jerror.obj
 0002:00029b08       ??_C@_0CH@KIJGKPAA@Define?5Arithmetic?5Table?50x?$CF02x?3?5@ 10157b08     jpeg:jerror.obj
 0002:00029b30       ??_C@_0CM@CAEPHFAA@Unknown?5APP14?5marker?5?$CInot?5Adobe?$CJ@ 10157b30     jpeg:jerror.obj
 0002:00029b5c       ??_C@_0CK@HCPFFNKJ@Unknown?5APP0?5marker?5?$CInot?5JFIF?$CJ?0?5@ 10157b5c     jpeg:jerror.obj
 0002:00029b88       ??_C@_0EC@EHPKAOHA@Adobe?5APP14?5marker?3?5version?5?$CFd?0?5@ 10157b88     jpeg:jerror.obj
 0002:00029bcc       ??_C@_0DO@EGLODMBB@Caution?3?5quantization?5tables?5are@ 10157bcc     jpeg:jerror.obj
 0002:00029c0c       ??_C@_0BA@FOPPLCNI@9a?5?519?9Jan?92014?$AA@ 10157c0c     jpeg:jerror.obj
 0002:00029c1c       ??_C@_0DF@GCPGGGPA@Copyright?5?$CIC?$CJ?52014?0?5Thomas?5G?4?5La@ 10157c1c     jpeg:jerror.obj
 0002:00029c54       ??_C@_0BE@FDPDCBIN@Write?5to?5XMS?5failed?$AA@ 10157c54     jpeg:jerror.obj
 0002:00029c68       ??_C@_0BF@EKLGFGNM@Read?5from?5XMS?5failed?$AA@ 10157c68     jpeg:jerror.obj
 0002:00029c80       ??_C@_0CH@LJLHCCHC@Image?5too?5wide?5for?5this?5implemen@ 10157c80     jpeg:jerror.obj
 0002:00029ca8       ??_C@_0CD@GCLFJCHC@Virtual?5array?5controller?5messed?5@ 10157ca8     jpeg:jerror.obj
 0002:00029ccc       ??_C@_0BP@BPKOBOIP@Unsupported?5marker?5type?50x?$CF02x?$AA@ 10157ccc     jpeg:jerror.obj
 0002:00029cec       ??_C@_0CK@EPADOAKC@Application?5transferred?5too?5few?5@ 10157cec     jpeg:jerror.obj
 0002:00029d18       ??_C@_0DG@KALDLIJB@Write?5failed?5on?5temporary?5file?5?9@ 10157d18     jpeg:jerror.obj
 0002:00029d50       ??_C@_0BO@GOBJOAAI@Seek?5failed?5on?5temporary?5file?$AA@ 10157d50     jpeg:jerror.obj
 0002:00029d70       ??_C@_0BO@EEPJGHHI@Read?5failed?5on?5temporary?5file?$AA@ 10157d70     jpeg:jerror.obj
 0002:00029d90       ??_C@_0CD@POKNOPOF@Failed?5to?5create?5temporary?5file?5@ 10157d90     jpeg:jerror.obj
 0002:00029db4       ??_C@_0CN@HGJCMLNE@Invalid?5JPEG?5file?5structure?3?5two@ 10157db4     jpeg:jerror.obj
 0002:00029de4       ??_C@_0CK@HMKECJK@Unsupported?5JPEG?5process?3?5SOF?5ty@ 10157de4     jpeg:jerror.obj
 0002:00029e10       ??_C@_0DA@GJIJGINK@Invalid?5JPEG?5file?5structure?3?5mis@ 10157e10     jpeg:jerror.obj
 0002:00029e40       ??_C@_0CN@IHJJJAFJ@Invalid?5JPEG?5file?5structure?3?5two@ 10157e40     jpeg:jerror.obj
 0002:00029e70       ??_C@_0CL@FGONDLAJ@Invalid?5JPEG?5file?5structure?3?5?$CFs?5@ 10157e70     jpeg:jerror.obj
 0002:00029e9c       ??_C@_0CH@NHMNHHIB@Cannot?5quantize?5to?5more?5than?5?$CFd?5@ 10157e9c     jpeg:jerror.obj
 0002:00029ec4       ??_C@_0CI@PLMPLCNO@Cannot?5quantize?5to?5fewer?5than?5?$CFd@ 10157ec4     jpeg:jerror.obj
 0002:00029eec       ??_C@_0CO@HPDBAEEA@Cannot?5quantize?5more?5than?5?$CFd?5col@ 10157eec     jpeg:jerror.obj
 0002:00029f1c       ??_C@_0BO@DJPLELIB@Insufficient?5memory?5?$CIcase?5?$CFd?$CJ?$AA@ 10157f1c     jpeg:jerror.obj
 0002:00029f3c       ??_C@_0CL@GNLFDFCL@Not?5a?5JPEG?5file?3?5starts?5with?50x?$CF@ 10157f3c     jpeg:jerror.obj
 0002:00029f68       ??_C@_0CK@CCHKIENB@Quantization?5table?50x?$CF02x?5was?5no@ 10157f68     jpeg:jerror.obj
 0002:00029f94       ??_C@_0CC@BKPLBDLJ@JPEG?5datastream?5contains?5no?5imag@ 10157f94     jpeg:jerror.obj
 0002:00029fb8       ??_C@_0CF@BKANFCCL@Huffman?5table?50x?$CF02x?5was?5not?5def@ 10157fb8     jpeg:jerror.obj
 0002:00029fe0       ??_C@_0BM@HJHFKLAF@Backing?5store?5not?5supported?$AA@ 10157fe0     jpeg:jerror.obj
 0002:00029ffc       ??_C@_0CI@NFDPNIK@Arithmetic?5table?50x?$CF02x?5was?5not?5@ 10157ffc     jpeg:jerror.obj
 0002:0002a024       ??_C@_0CO@BEHINNOI@Requested?5feature?5was?5omitted?5at@ 10158024     jpeg:jerror.obj
 0002:0002a054       ??_C@_0BE@EOAAHHJ@Not?5implemented?5yet?$AA@ 10158054     jpeg:jerror.obj
 0002:0002a068       ??_C@_0CH@EFBBPPCK@Invalid?5color?5quantization?5mode?5@ 10158068     jpeg:jerror.obj
 0002:0002a090       ??_C@_0CH@NIBDNILP@Scan?5script?5does?5not?5transmit?5al@ 10158090     jpeg:jerror.obj
 0002:0002a0b8       ??_C@_0DO@OPNPKGO@Cannot?5transcode?5due?5to?5multiple@ 101580b8     jpeg:jerror.obj
 0002:0002a0f8       ??_C@_0BM@KEKMMNGA@Premature?5end?5of?5input?5file?$AA@ 101580f8     jpeg:jerror.obj
 0002:0002a114       ??_C@_0BB@JJAIKFBB@Empty?5input?5file?$AA@ 10158114     jpeg:jerror.obj
 0002:0002a128       ??_C@_0CP@EKFPGPNP@Maximum?5supported?5image?5dimensio@ 10158128     jpeg:jerror.obj
 0002:0002a158       ??_C@_0CB@LFBMFPHI@Missing?5Huffman?5code?5table?5entry@ 10158158     jpeg:jerror.obj
 0002:0002a17c       ??_C@_0CB@LLDOGNPJ@Huffman?5code?5size?5table?5overflow@ 1015817c     jpeg:jerror.obj
 0002:0002a1a0       ??_C@_0CI@EKDDDHFF@Fractional?5sampling?5not?5implemen@ 101581a0     jpeg:jerror.obj
 0002:0002a1c8       ??_C@_0CP@IDOBLGGD@Output?5file?5write?5error?5?9?9?9?5out?5@ 101581c8     jpeg:jerror.obj
 0002:0002a1f8       ??_C@_0BG@BALCKDNL@Input?5file?5read?5error?$AA@ 101581f8     jpeg:jerror.obj
 0002:0002a210       ??_C@_0CB@DMGINPNE@Didn?8t?5expect?5more?5than?5one?5scan@ 10158210     jpeg:jerror.obj
 0002:0002a234       ??_C@_0BE@DGJBKIEB@Write?5to?5EMS?5failed?$AA@ 10158234     jpeg:jerror.obj
 0002:0002a248       ??_C@_0BF@CPNENPBA@Read?5from?5EMS?5failed?$AA@ 10158248     jpeg:jerror.obj
 0002:0002a260       ??_C@_0CF@DAGGEAPM@Empty?5JPEG?5image?5?$CIDNL?5not?5suppor@ 10158260     jpeg:jerror.obj
 0002:0002a288       ??_C@_0BD@DIMECAOP@Bogus?5DQT?5index?5?$CFd?$AA@ 10158288     jpeg:jerror.obj
 0002:0002a29c       ??_C@_0BD@KJHFPHIC@Bogus?5DHT?5index?5?$CFd?$AA@ 1015829c     jpeg:jerror.obj
 0002:0002a2b0       ??_C@_0BF@CLIOOJFM@Bogus?5DAC?5value?50x?$CFx?$AA@ 101582b0     jpeg:jerror.obj
 0002:0002a2c8       ??_C@_0BD@LDBBBMFL@Bogus?5DAC?5index?5?$CFd?$AA@ 101582c8     jpeg:jerror.obj
 0002:0002a2dc       ??_C@_0CF@JDLOPNGO@Unsupported?5color?5conversion?5req@ 101582dc     jpeg:jerror.obj
 0002:0002a304       ??_C@_0CG@BEBDNOCG@Too?5many?5color?5components?3?5?$CFd?0?5m@ 10158304     jpeg:jerror.obj
 0002:0002a32c       ??_C@_0CF@LAEFHNAH@CCIR601?5sampling?5not?5implemented@ 1015832c     jpeg:jerror.obj
 0002:0002a354       ??_C@_0BM@PKHCPJDH@Suspension?5not?5allowed?5here?$AA@ 10158354     jpeg:jerror.obj
 0002:0002a370       ??_C@_0CL@JKHIPJLJ@Buffer?5passed?5to?5JPEG?5library?5is@ 10158370     jpeg:jerror.obj
 0002:0002a39c       ??_C@_0BL@CBOEEPLK@Bogus?5virtual?5array?5access?$AA@ 1015839c     jpeg:jerror.obj
 0002:0002a3b8       ??_C@_0EN@DKAEGIBH@JPEG?5parameter?5struct?5mismatch?3?5@ 101583b8     jpeg:jerror.obj
 0002:0002a408       ??_C@_0CK@BAMFIBMM@Improper?5call?5to?5JPEG?5library?5in@ 10158408     jpeg:jerror.obj
 0002:0002a434       ??_C@_0CA@MJDDICLK@Invalid?5scan?5script?5at?5entry?5?$CFd?$AA@ 10158434     jpeg:jerror.obj
 0002:0002a454       ??_C@_0BH@HMMHPOPE@Bogus?5sampling?5factors?$AA@ 10158454     jpeg:jerror.obj
 0002:0002a46c       ??_C@_0DH@HIKEGPKP@Invalid?5progressive?5parameters?5a@ 1015846c     jpeg:jerror.obj
 0002:0002a4a4       ??_C@_0DH@LNGGEGOL@Invalid?5progressive?5parameters?5S@ 101584a4     jpeg:jerror.obj
 0002:0002a4dc       ??_C@_0CD@LDBDNLHK@Unsupported?5JPEG?5data?5precision?5@ 101584dc     jpeg:jerror.obj
 0002:0002a500       ??_C@_0BM@OEMICEFD@Invalid?5memory?5pool?5code?5?$CFd?$AA@ 10158500     jpeg:jerror.obj
 0002:0002a51c       ??_C@_0DA@HLEOHNPA@Sampling?5factors?5too?5large?5for?5i@ 1015851c     jpeg:jerror.obj
 0002:0002a54c       ??_C@_0DN@ELFKFKL@Wrong?5JPEG?5library?5version?3?5libr@ 1015854c     jpeg:jerror.obj
 0002:0002a58c       ??_C@_0BE@OGLAEMOG@Bogus?5marker?5length?$AA@ 1015858c     jpeg:jerror.obj
 0002:0002a5a0       ??_C@_0BG@NEGIHEMC@Bogus?5JPEG?5colorspace?$AA@ 101585a0     jpeg:jerror.obj
 0002:0002a5b8       ??_C@_0BH@BGDIGLHC@Bogus?5input?5colorspace?$AA@ 101585b8     jpeg:jerror.obj
 0002:0002a5d0       ??_C@_0BP@EOFJNLFD@Bogus?5Huffman?5table?5definition?$AA@ 101585d0     jpeg:jerror.obj
 0002:0002a5f0       ??_C@_0EA@INILHCIJ@Component?5index?5?$CFd?3?5mismatching?5@ 101585f0     jpeg:jerror.obj
 0002:0002a630       ??_C@_0CK@JDGFICDL@DCT?5scaled?5block?5size?5?$CFdx?$CFd?5not?5@ 10158630     jpeg:jerror.obj
 0002:0002a65c       ??_C@_0BN@OJEJKKDL@DCT?5coefficient?5out?5of?5range?$AA@ 1015865c     jpeg:jerror.obj
 0002:0002a67c       ??_C@_0BF@DHNDJDFN@Invalid?5crop?5request?$AA@ 1015867c     jpeg:jerror.obj
 0002:0002a694       ??_C@_0BP@ONFLCDHG@Invalid?5component?5ID?5?$CFd?5in?5SOS?$AA@ 10158694     jpeg:jerror.obj
 0002:0002a6b4       ??_C@_0BK@DKALDNKG@Bogus?5buffer?5control?5mode?$AA@ 101586b4     jpeg:jerror.obj
 0002:0002a6d0       ??_C@_0CF@DENLILGA@MAX_ALLOC_CHUNK?5is?5wrong?0?5please@ 101586d0     jpeg:jerror.obj
 0002:0002a6f8       ??_C@_0CA@FDMPGPNI@ALIGN_TYPE?5is?5wrong?0?5please?5fix?$AA@ 101586f8     jpeg:jerror.obj
 0002:0002a718       ??_C@_0BG@MIBALFBH@Bogus?5message?5code?5?$CFd?$AA@ 10158718     jpeg:jerror.obj
 0002:0002a730       ??_C@_03OFAPEBGM@?$CFs?6?$AA@ 10158730     jpeg:jerror.obj
 0002:0002a734       ??_C@_07OOOLPGAB@JPEGMEM?$AA@ 10158734     jpeg:jmemmgr.obj
 0002:0002a73c       ??_C@_05IBIMIMKO@?$CFld?$CFc?$AA@ 1015873c     jpeg:jmemmgr.obj
 0002:0002a748       __real@3ff4e7aea0000000    10158748      CIL library: CIL module
 0002:0002a750       __real@3fe1517a80000000    10158750      CIL library: CIL module
 0002:0002a758       __real@3fd87de2a0000000    10158758      CIL library: CIL module
 0002:0002a760       __real@4090000000000000    10158760      CIL library: CIL module
 0002:0002a768       __real@3fe6a09e60000000    10158768      CIL library: CIL module
 0002:0002a770       __real@4060100000000000    10158770      CIL library: CIL module
 0002:0002a778       __real@4004e7aea0000000    10158778      CIL library: CIL module
 0002:0002a780       __real@3ff1517a80000000    10158780      CIL library: CIL module
 0002:0002a788       __real@3ffd906bc0000000    10158788      CIL library: CIL module
 0002:0002a790       __real@3ff6a09e60000000    10158790      CIL library: CIL module
 0002:0002a798       __real@40d0002000000000    10158798      CIL library: CIL module
 0002:0002a7a0       __real@3fc0000000000000    101587a0      CIL library: CIL module
 0002:0002a7a8       __real@3fe0000000000000    101587a8      CIL library: CIL module
 0002:0002a7b0       __real@3f00002000400080    101587b0      CIL library: CIL module
 0002:0002a7b8       __real@3f89a00000000000    101587b8      CIL library: CIL module
 0002:0002a7c0       __real@40e0000000000000    101587c0      CIL library: CIL module
 0002:0002a7c8       __real@3f63fb013fb013fb    101587c8      CIL library: CIL module
 0002:0002a7d0       __real@3f9158b820000000    101587d0      CIL library: CIL module
 0002:0002a7d8       __real@3f6cac0840000000    101587d8      CIL library: CIL module
 0002:0002a7e0       __real@3ff8000000000000    101587e0      CIL library: CIL module
 0002:0002a7e8       __real@4049000000000000    101587e8      CIL library: CIL module
 0002:0002a7f0       __real@402fd4bbaa79dc37    101587f0      CIL library: CIL module
 0002:0002a7f8       __real@3fcaf286bd156c1a    101587f8      CIL library: CIL module
 0002:0002a800       __real@3fde50d794b8199e    10158800      CIL library: CIL module
 0002:0002a808       __real@4000000000000000    10158808      CIL library: CIL module
 0002:0002a810       __real@4050000000000000    10158810      CIL library: CIL module
 0002:0002a818       __real@4028000000000000    10158818      CIL library: CIL module
 0002:0002a820       __real@3ff71547652b82fe    10158820      CIL library: CIL module
 0002:0002a828       __real@3f2fd405d1254c15    10158828      CIL library: CIL module
 0002:0002a830       __real@402f7be76c8b4396    10158830      CIL library: CIL module
 0002:0002a838       __real@4020a2b23f3bab73    10158838      CIL library: CIL module
 0002:0002a840       __real@3f862e42fefa39ef    10158840      CIL library: CIL module
 0002:0002a848       __real@4070000000000000    10158848      CIL library: CIL module
 0002:0002a850       __real@3ff29ba5e353f7cf    10158850      CIL library: CIL module
 0002:0002a858       __real@3fccac083126e979    10158858      CIL library: CIL module
 0002:0002a860       __real@3faf3b645a1cac08    10158860      CIL library: CIL module
 0002:0002a868       __real@3fa6872b020c49ba    10158868      CIL library: CIL module
 0002:0002a870       __real@3ff05a1cac083127    10158870      CIL library: CIL module
 0002:0002a878       __real@3fffa5e353f7ced9    10158878      CIL library: CIL module
 0002:0002a880       __real@3fda7ef9db22d0e5    10158880      CIL library: CIL module
 0002:0002a888       __real@3ff46a7ef9db22d1    10158888      CIL library: CIL module
 0002:0002a890       __real@4005851eb851eb85    10158890      CIL library: CIL module
 0002:0002a898       __real@bbeff4eacf8a88b5    10158898      CIL library: CIL module
 0002:0002a8a0       __real@3beff4eacf8a88b5    101588a0      CIL library: CIL module
 0002:0002a8a8       __real@c3efdecbdaa8c010    101588a8      CIL library: CIL module
 0002:0002a8b0       __real@43efdecbdaa8c010    101588b0      CIL library: CIL module
 0002:0002a8b8       __real@40462e42fefa39ef    101588b8      CIL library: CIL module
 0002:0002a8c0       __real@3f662e42fefa39ef    101588c0      CIL library: CIL module
 0002:0002a8c8       __real@4069000000000000    101588c8      CIL library: CIL module
 0002:0002a8d0       __real@3fc1a7b0c0000000    101588d0      CIL library: CIL module
 0002:0002a8d8       __real@3fca7bb300000000    101588d8      CIL library: CIL module
 0002:0002a8e0       __real@407f400000000000    101588e0      CIL library: CIL module
 0002:0002a8e8       __real@405d000000000000    101588e8      CIL library: CIL module
 0002:0002a8f0       __real@4030000000000000    101588f0      CIL library: CIL module
 0002:0002a8f8       __real@3fc1a7b960000000    101588f8      CIL library: CIL module
 0002:0002a900       __real@408c3a5600000000    10158900      CIL library: CIL module
 0002:0002a908       __real@401f25e360000000    10158908      CIL library: CIL module
 0002:0002a910       __real@410db22d            10158910      CIL library: CIL module
 0002:0002a918       __real@406fe00000000000    10158918      CIL library: CIL module
 0002:0002a920       __real@4059000000000000    10158920      CIL library: CIL module
 0002:0002a928       __real@4f800000            10158928      CIL library: CIL module
 0002:0002a930       __real@41f0000000000000    10158930      CIL library: CIL module
 0002:0002a938       __real@43000000            10158938      CIL library: CIL module
 0002:0002a93c       __real@437f0000            1015893c      CIL library: CIL module
 0002:0002a940       __real@40efffe000000000    10158940      CIL library: CIL module
 0002:0002a948       __real@400199999999999a    10158948      CIL library: CIL module
 0002:0002a950       __real@3f1a36e2eb1c432d    10158950      CIL library: CIL module
 0002:0002a958       __real@3ef0001000100010    10158958      CIL library: CIL module
 0002:0002a960       __real@405fc00000000000    10158960      CIL library: CIL module
 0002:0002a968       __real@c060000000000000    10158968      CIL library: CIL module
 0002:0002a970       __real@4060000000000000    10158970      CIL library: CIL module
 0002:0002a978       __real@4070100000000000    10158978      CIL library: CIL module
 0002:0002a980       __real@40847acccccccccd    10158980      CIL library: CIL module
 0002:0002a988       __real@3fc07004ded20922    10158988      CIL library: CIL module
 0002:0002a990       __real@3fc1a7b9611a7b96    10158990      CIL library: CIL module
 0002:0002a998       __real@3fca7b9611a7b961    10158998      CIL library: CIL module
 0002:0002a9a0       __real@3fd5555555555555    101589a0      CIL library: CIL module
 0002:0002a9a8       __real@401f25ed097b425f    101589a8      CIL library: CIL module
 0002:0002a9b0       __real@3f822354d28f7cd6    101589b0      CIL library: CIL module
 0002:0002a9b8       __real@3fffffe000000000    101589b8      CIL library: CIL module
 0002:0002a9c0       __real@3f50624de0000000    101589c0      CIL library: CIL module
 0002:0002a9c8       __real@3feff7ced9100000    101589c8      CIL library: CIL module
 0002:0002a9d0       __real@4010000000000000    101589d0      CIL library: CIL module
 0002:0002a9d8       __real@40f0000000000000    101589d8      CIL library: CIL module
 0002:0002a9e0       __real@3ef0000000000000    101589e0      CIL library: CIL module
 0002:0002a9e8       __real@3f70000000000000    101589e8      CIL library: CIL module
 0002:0002a9f0       __real@4024000000000000    101589f0      CIL library: CIL module
 0002:0002a9f8       __real@3f50624dd2f1a9fc    101589f8      CIL library: CIL module
 0002:0002aa00       __real@c480f0cf00000000    10158a00      CIL library: CIL module
 0002:0002aa08       __real@4238000000000000    10158a08      CIL library: CIL module
 0002:0002aa10       __real@412e848000000000    10158a10      CIL library: CIL module
 0002:0002aa18       __real@4008000000000000    10158a18      CIL library: CIL module
 0002:0002aa20       __real@4018000000000000    10158a20      CIL library: CIL module
 0002:0002aa28       __real@3fd199999999999a    10158a28      CIL library: CIL module
 0002:0002aa30       __real@4006f5c28f5c28f6    10158a30      CIL library: CIL module
 0002:0002aa38       __real@3fce5753a3ec02f3    10158a38      CIL library: CIL module
 0002:0002aa40       __real@3fcfad6cb5350093    10158a40      CIL library: CIL module
 0002:0002aa48       __real@40000d1b71758e22    10158a48      CIL library: CIL module
 0002:0002aa50       __real@3ffe6dc5d6388659    10158a50      CIL library: CIL module
 0002:0002aa58       __real@40d86a0000000000    10158a58      CIL library: CIL module
 0002:0002aa60       __real@3fcf3d74d594f26b    10158a60      CIL library: CIL module
 0002:0002aa68       __real@3fb95f45e0b4e11e    10158a68      CIL library: CIL module
 0002:0002aa70       __real@408f400000000000    10158a70      CIL library: CIL module
 0002:0002aa78       __real@40126d916872b021    10158a78      CIL library: CIL module
 0002:0002aa80       __real@41cdcd6500000000    10158a80      CIL library: CIL module
 0002:0002aa88       __real@4007be0ded288ce7    10158a88      CIL library: CIL module
 0002:0002aa90       __real@40bb580000000000    10158a90      CIL library: CIL module
 0002:0002aa98       __real@40af400000000000    10158a98      CIL library: CIL module
 0002:0002aaa0       __real@3fea6594af4f0d84    10158aa0      CIL library: CIL module
 0002:0002aaa8       __real@3feedab9f559b3d0    10158aa8      CIL library: CIL module
 0002:0002aab0       __real@3ee4f8b588e368f1    10158ab0      CIL library: CIL module
 0002:0002aab8       __real@c1e0000000000000    10158ab8      CIL library: CIL module
 0002:0002aac0       __real@41dfffffffc00000    10158ac0      CIL library: CIL module
 0002:0002aac8       __real@430c6bf526340000    10158ac8      CIL library: CIL module
 0002:0002aad0       __real@4202a05f20000000    10158ad0      CIL library: CIL module
 0002:0002aad8       __real@40f86a0000000000    10158ad8      CIL library: CIL module
 0002:0002aae0       __real@3fdd1758e219652c    10158ae0      CIL library: CIL module
 0002:0002aae8       __real@400a113404ea4a8c    10158ae8      CIL library: CIL module
 0002:0002aaf0       __real@4003cdd2f1a9fbe7    10158af0      CIL library: CIL module
 0002:0002aaf8       __real@40c0000000000000    10158af8      CIL library: CIL module
 0002:0002ab00       __real@3fe6000000000000    10158b00      CIL library: CIL module
 0002:0002ab08       __real@bff0000000000000    10158b08      CIL library: CIL module
 0002:0002ab10       __real@3eb0c6f7a0b5ed8d    10158b10      CIL library: CIL module
 0002:0002ab18       __real@3fe590c0ad03d9a9    10158b18      CIL library: CIL module
 0002:0002ab20       __real@3fd94e859f10d1df    10158b20      CIL library: CIL module
 0002:0002ab28       __real@3fb279aae0000000    10158b28      CIL library: CIL module
 0002:0002ab30       __real@3fcb38cda0000000    10158b30      CIL library: CIL module
 0002:0002ab38       __real@3fe6e29740000000    10158b38      CIL library: CIL module
 0002:0002ab40       __real@4020000000000000    10158b40      CIL library: CIL module
 0002:0002ab48       __real@4022000000000000    10158b48      CIL library: CIL module
 0002:0002ab50       __real@4079a00000000000    10158b50      CIL library: CIL module
 0002:0002ab58       __real@402e000000000000    10158b58      CIL library: CIL module
 0002:0002ab60       __real@4071db6dad9c14eb    10158b60      CIL library: CIL module
 0002:0002ab68       __real@43160000            10158b68      CIL library: CIL module
 0002:0002ab70       __real@400451eb80000000    10158b70      CIL library: CIL module
 0002:0002ab78       __real@41e0000000000000    10158b78      CIL library: CIL module
 0002:0002ab80       __real@bf800000            10158b80      CIL library: CIL module
 0002:0002ab88       __real@41efffffffe00000    10158b88      CIL library: CIL module
 0002:0002ab90       __real@3f60624dd2f1a9fc    10158b90      CIL library: CIL module
 0002:0002ab98       __real@3f747ae147ae147b    10158b98      CIL library: CIL module
 0002:0002aba0       __real@42c80000            10158ba0      CIL library: CIL module
 0002:0002aba4       __real@477fff00            10158ba4      CIL library: CIL module
 0002:0002aba8       __real@4423d666            10158ba8      CIL library: CIL module
 0002:0002abac       __real@3e99999a            10158bac      CIL library: CIL module
 0002:0002abb0       __real@4415af1d78b58c40    10158bb0      CIL library: CIL module
 0002:0002abb8       __real@40dfffc000000000    10158bb8      CIL library: CIL module
 0002:0002abc0       __real@c1dfffffffc00000    10158bc0      CIL library: CIL module
 0002:0002abc8       __real@3fd0000000000000    10158bc8      CIL library: CIL module
 0002:0002abd0       __real@3f00000000000000    10158bd0      CIL library: CIL module
 0002:0002abd8       __real@40a9e40000000000    10158bd8      CIL library: CIL module
 0002:0002abe0       __real@3eb7953c            10158be0      CIL library: CIL module
 0002:0002abe4       __real@3eb10516            10158be4      CIL library: CIL module
 0002:0002abe8       __real@3ddb7cdfd9d7bdbb    10158be8      CIL library: CIL module
 0002:0002abf0       __real@3ff0793dd97f62b7    10158bf0      CIL library: CIL module
 0002:0002abf8       __real@bfb189374bc6a7f0    10158bf8      CIL library: CIL module
 0002:0002ac00       __real@3fa3eab367a0f909    10158c00      CIL library: CIL module
 0002:0002ac08       __real@3fa2ca57a786c227    10158c08      CIL library: CIL module
 0002:0002ac10       __real@3ffb6a7ef9db22d1    10158c10      CIL library: CIL module
 0002:0002ac18       __real@bfe801a36e2eb1c4    10158c18      CIL library: CIL module
 0002:0002ac20       __real@bfc4a8c154c985f0    10158c20      CIL library: CIL module
 0002:0002ac28       __real@3fd10cb295e9e1b1    10158c28      CIL library: CIL module
 0002:0002ac30       __real@3feca4a8c154c986    10158c30      CIL library: CIL module
 0002:0002ac38       __real@3f20000000000000    10158c38      CIL library: CIL module
 0002:0002ac40       __real@bfec5a1cac083127    10158c40      CIL library: CIL module
 0002:0002ac48       __real@3fe0eeac8605681f    10158c48      CIL library: CIL module
 0002:0002ac50       __real@bfe66e978d4fdf3b    10158c50      CIL library: CIL module
 0002:0002ac58       __real@3ffc5a1cac083127    10158c58      CIL library: CIL module
 0002:0002ac60       __real@bfe6da3c21187e7c    10158c60      CIL library: CIL module
 0002:0002ac68       __real@bfd60639d5e4a383    10158c68      CIL library: CIL module
 0002:0002ac70       __real@3ff66e978d4fdf3b    10158c70      CIL library: CIL module
 0002:0002ac78       __real@3949f623d5a8a733    10158c78      CIL library: CIL module
 0002:0002ac80       __real@3df0000000000000    10158c80      CIL library: CIL module
 0002:0002ac88       __real@3f947ae147ae147b    10158c88      CIL library: CIL module
 0002:0002ac90       __real@7fefffffffffffff    10158c90      CIL library: CIL module
 0002:0002ac98       __real@3ff365734aa30d90    10158c98      CIL library: CIL module
 0002:0002aca0       __real@3ff09814d0cb0eec    10158ca0      CIL library: CIL module
 0002:0002aca8       __real@3f08001800180018    10158ca8      CIL library: CIL module
 0002:0002acb0       __real@3f847ae147ae147b    10158cb0      CIL library: CIL module
 0002:0002acb8       __real@3f10000000000000    10158cb8      CIL library: CIL module
 0002:0002acc0       __real@40d0000000000000    10158cc0      CIL library: CIL module
 0002:0002acc8       __real@4011333333333333    10158cc8      CIL library: CIL module
 0002:0002acd0       __real@3fdf5c28f5c28f5c    10158cd0      CIL library: CIL module
 0002:0002acd8       __real@4000cccccccccccd    10158cd8      CIL library: CIL module
 0002:0002ace0       __real@64078678            10158ce0      CIL library: CIL module
 0002:0002ace4       __real@e4078678            10158ce4      CIL library: CIL module
 0002:0002ace8       __real@40affe0000000000    10158ce8      CIL library: CIL module
 0002:0002acf0       __real@4003333333333333    10158cf0      CIL library: CIL module
 0002:0002acf8       __real@40b9680000000000    10158cf8      CIL library: CIL module
 0002:0002ad00       __real@3faeb851eb851eb8    10158d00      CIL library: CIL module
 0002:0002ad08       __real@3fc3333333333333    10158d08      CIL library: CIL module
 0002:0002ad10       __real@3fe3333333333333    10158d10      CIL library: CIL module
 0002:0002ad18       __real@3fd3333333333333    10158d18      CIL library: CIL module
 0002:0002ad20       __real@3fd51eb851eb851f    10158d20      CIL library: CIL module
 0002:0002ad28       __real@3fe47ae147ae147b    10158d28      CIL library: CIL module
 0002:0002ad30       __real@3fe0001000100010    10158d30      CIL library: CIL module
 0002:0002ad38       __real@4014000000000000    10158d38      CIL library: CIL module
 0002:0002ad40       __real@3f6782d38476f2a6    10158d40      CIL library: CIL module
 0002:0002ad48       __real@3f6c739e5d4db8f0    10158d48      CIL library: CIL module
 0002:0002ad50       __real@3f6b866e43aa79bc    10158d50      CIL library: CIL module
 0002:0002ad58       __real@3f9eb851eb851eb8    10158d58      CIL library: CIL module
 0002:0002ad60       __real@3fb999999999999a    10158d60      CIL library: CIL module
 0002:0002ad68       __real@3fc999999999999a    10158d68      CIL library: CIL module
 0002:0002ad70       __real@c049000000000000    10158d70      CIL library: CIL module
 0002:0002add0       __OP_ATAN2jmptab           10158dd0     libcmt:_87triga_.obj
 0002:0002b750       __infinity                 10159750     libcmt:_87tran_.obj
 0002:0002b75a       __minfinity                1015975a     libcmt:_87tran_.obj
 0002:0002b764       __logemax                  10159764     libcmt:_87tran_.obj
 0002:0002b78a       __OP_EXPjmptab             1015978a     libcmt:_87tran_.obj
 0002:0002b7b0       __indefinite               101597b0     libcmt:_87disp_.obj
 0002:0002b7ba       __piby2                    101597ba     libcmt:_87disp_.obj
 0002:0002b7e8       __DEFAULT_CW_in_mem        101597e8     libcmt:_common_.obj
 0002:0002b7ea       __pi_by_2_to_61            101597ea     libcmt:_common_.obj
 0002:000310e0       __load_config_used         1015f0e0     libcmt:loadcfg.obj
 0002:00031180       ___safe_se_handler_table   1015f180     <linker-defined>
 0002:0003118c       ___rtc_iaa                 1015f18c     libcmt:_initsect_.obj
 0002:00031190       ___rtc_izz                 1015f190     libcmt:_initsect_.obj
 0002:00031194       ___rtc_taa                 1015f194     libcmt:_initsect_.obj
 0002:00031198       ___rtc_tzz                 1015f198     libcmt:_initsect_.obj
 0002:00031804       __IMPORT_DESCRIPTOR_zlib1  1015f804     zlib1:zlib1.dll
 0002:00031818       __IMPORT_DESCRIPTOR_KERNEL32 1015f818     kernel32:KERNEL32.dll
 0002:0003182c       __NULL_IMPORT_DESCRIPTOR   1015f82c     zlib1:zlib1.dll
 0003:00000018       ___security_cookie         10161018     libcmt:gs_cookie.obj
 0003:0000001c       ___security_cookie_complement 1016101c     libcmt:gs_cookie.obj
 0003:00000190       __iob                      10161190     libcmt:_file.obj
 0003:00000410       ___badioinfo               10161410     libcmt:ioinit.obj
 0003:00000450       ___nullstring              10161450     libcmt:output.obj
 0003:00000454       ___wnullstring             10161454     libcmt:output.obj
 0003:00000460       __lookuptrailbytes         10161460     libcmt:read.obj
 0003:00000560       ___initialmbcinfo          10161560     libcmt:mbctype.obj
 0003:00000780       __mbctype                  10161780     libcmt:mbctype.obj
 0003:00000888       __mbcasemap                10161888     libcmt:mbctype.obj
 0003:00000988       ___ptmbcinfo               10161988     libcmt:mbctype.obj
 0003:00000a80       ___globallocalestatus      10161a80     libcmt:glstatus.obj
 0003:00000a84       ___clocalestr              10161a84     libcmt:nlsdata2.obj
 0003:00000a88       ___lc_time_c               10161a88     libcmt:nlsdata2.obj
 0003:00000bf0       ___initiallocinfo          10161bf0     libcmt:nlsdata2.obj
 0003:00000cc8       ___ptlocinfo               10161cc8     libcmt:nlsdata2.obj
 0003:00000ccc       ___initiallocalestructinfo 10161ccc     libcmt:nlsdata2.obj
 0003:00000cd4       ___flsindex                10161cd4     libcmt:tidtable.obj
 0003:00000cd8       ___getvalueindex           10161cd8     libcmt:tidtable.obj
 0003:00000ce8       __d_inf                    10161ce8     libcmt:_util_.obj
 0003:00000cf0       __d_ind                    10161cf0     libcmt:_util_.obj
 0003:00000cf8       __d_max                    10161cf8     libcmt:_util_.obj
 0003:00000d00       __d_min                    10161d00     libcmt:_util_.obj
 0003:00000d08       __d_mzero                  10161d08     libcmt:_util_.obj
 0003:00000e14       __fltused                  10161e14     libcmt:_fpinit_.obj
 0003:00000e18       __ldused                   10161e18     libcmt:_fpinit_.obj
 0003:00000e20       __NLG_Destination          10161e20     libcmt:exsup.obj
 0003:00000e30       __timezone                 10161e30     libcmt:timeset.obj
 0003:00000e34       __daylight                 10161e34     libcmt:timeset.obj
 0003:00000e38       __dstbias                  10161e38     libcmt:timeset.obj
 0003:00000ec0       __tzname                   10161ec0     libcmt:timeset.obj
 0003:00000ff0       __lpdays                   10161ff0     libcmt:days.obj
 0003:00001024       __days                     10162024     libcmt:days.obj
 0003:00001060       __cfltcvt_tab              10162060     libcmt:cmiscdat.obj
 0003:00001090       ___lconv_static_decimal    10162090     libcmt:lconv.obj
 0003:00001094       ___lconv_static_W_decimal  10162094     libcmt:lconv.obj
 0003:00001098       ___lconv_c                 10162098     libcmt:lconv.obj
 0003:000010e8       ___lconv                   101620e8     libcmt:lconv.obj
 0003:000010ec       __pctype                   101620ec     libcmt:ctype.obj
 0003:000010f0       __pwctype                  101620f0     libcmt:ctype.obj
 0003:000010f4       ___mb_cur_max              101620f4     libcmt:nlsdata1.obj
 0003:000010f8       ___decimal_point           101620f8     libcmt:nlsdata1.obj
 0003:000010fc       ___decimal_point_length    101620fc     libcmt:nlsdata1.obj
 0003:00001100       __matherr_flag             10162100     libcmt:_matherr_.obj
 0003:00001104       ___abort_behavior          10162104     libcmt:abort.obj
 0003:00001108       __confh                    10162108     libcmt:initcon.obj
 0003:00001140       __pow10pos                 10162140     libcmt:_constpow_.obj
 0003:000012a0       __pow10neg                 101622a0     libcmt:_constpow_.obj
 0003:00001400       __tmpoff                   10162400     libcmt:rmtmp.obj
 0003:00001404       __tempoff                  10162404     libcmt:rmtmp.obj
 0003:00001410       __sys_errlist              10162410     libcmt:syserr.obj
 0003:000014c0       __sys_nerr                 101624c0     libcmt:syserr.obj
 0003:000019e0       __TIFFBuiltinCODECS        101629e0     libTIFF:tif_codec.obj
 0003:00001ad4       __TIFFwarningHandler       10162ad4     libTIFF:tif_win32.obj
 0003:00003804       __TIFFerrorHandler         10164804     libTIFF:tif_win32.obj
 0003:00009198       _jpc_mqstates              1016a198     libjasper:jpc_mqcod.obj
 0003:00009778       _jpc_ft_lpenergywts        1016a778     libjasper:jpc_qmfb.obj
 0003:00009878       _jpc_ft_hpenergywts        1016a878     libjasper:jpc_qmfb.obj
 0003:00009978       _jpc_ns_lpenergywts        1016a978     libjasper:jpc_qmfb.obj
 0003:00009a78       _jpc_ns_hpenergywts        1016aa78     libjasper:jpc_qmfb.obj
 0003:00009b78       _jpc_ft_qmfb2d             1016ab78     libjasper:jpc_qmfb.obj
 0003:00009b88       _jpc_ns_qmfb2d             1016ab88     libjasper:jpc_qmfb.obj
 0003:00009b98       _jas_iccprofdata_srgb      1016ab98     libjasper:jas_iccdata.obj
 0003:0000a7e0       _jas_iccprofdata_srgblen   1016b7e0     libjasper:jas_iccdata.obj
 0003:0000a7e4       _jas_iccprofdata_sgraylen  1016b7e4     libjasper:jas_iccdata.obj
 0003:0000a7e8       _jas_iccprofdata_sgray     1016b7e8     libjasper:jas_iccdata.obj
 0003:0000a972       ?ParentImage@@3EA          1016b972     il_stack.obj
 0003:0000a978       _jp2_boxinfos              1016b978     libjasper:jp2_cod.obj
 0003:0000abf8       _jp2_boxinfo_unk           1016bbf8     libjasper:jp2_cod.obj
 0003:0000ac28       _jas_iccattrvalinfos       1016bc28     libjasper:jas_icc.obj
 0003:0000aed0       _pnm_opttab                1016bed0     libjasper:pnm_enc.obj
 0003:0000aee0       _mif_tags2                 1016bee0     libjasper:mif_cod.obj
 0003:0000aef8       _mif_tags                  1016bef8     libjasper:mif_cod.obj
 0003:0000af48       _jpg_opttab                1016bf48     libjasper:jpg_enc.obj
 0003:0000af58       _jpc_dec_mstab             1016bf58     libjasper:jpc_dec.obj
 0003:0000b048       _decopts                   1016c048     libjasper:jpc_dec.obj
 0003:0000b068       _encopts                   1016c068     libjasper:jpc_enc.obj
 0003:0000b148       _prgordtab                 1016c148     libjasper:jpc_enc.obj
 0003:0000b178       _modetab                   1016c178     libjasper:jpc_enc.obj
 0003:0000b1cc       ?_ilVendor@@3PB_WB         1016c1cc     il_states.obj
 0003:0000b1d0       ?_ilVersion@@3PB_WB        1016c1d0     il_states.obj
 0003:0000b1d4       ?_ilLoadExt@@3PADA         1016c1d4     il_states.obj
 0003:0000b1d8       ?_ilSaveExt@@3PADA         1016c1d8     il_states.obj
 0003:0000b1dc       ?PSPSignature@@3PAEA       1016c1dc     il_psp.obj
 0003:0000b1fc       ?GenAttHead@@3PAEA         1016c1fc     il_psp.obj
 0003:0000b614       ?code_mask@@3PAIA          1016c614     il_gif.obj
 0003:0000b648       ?ilErrorPlace@@3HA         1016c648     il_error.obj
 0003:0000b65c       ?CubemapDirections@@3PAIA  1016c65c     il_dds.obj
 0003:0000b6a0       __half                     1016c6a0     libcmt:_pow_.obj
 0003:0000b7bc       __aenvptr                  1016c7bc     libcmt:dllcrt0.obj
 0003:0000b7c0       __wenvptr                  1016c7c0     libcmt:dllcrt0.obj
 0003:0000b7c4       ___error_mode              1016c7c4     libcmt:dllcrt0.obj
 0003:0000b7c8       ___app_type                1016c7c8     libcmt:dllcrt0.obj
 0003:0000baf4       __crtheap                  1016caf4     libcmt:heapinit.obj
 0003:0000baf8       __umaskval                 1016caf8     libcmt:crt0dat.obj
 0003:0000bafc       ___argc                    1016cafc     libcmt:crt0dat.obj
 0003:0000bb00       ___argv                    1016cb00     libcmt:crt0dat.obj
 0003:0000bb04       ___wargv                   1016cb04     libcmt:crt0dat.obj
 0003:0000bb08       __environ                  1016cb08     libcmt:crt0dat.obj
 0003:0000bb0c       ___initenv                 1016cb0c     libcmt:crt0dat.obj
 0003:0000bb10       __wenviron                 1016cb10     libcmt:crt0dat.obj
 0003:0000bb14       ___winitenv                1016cb14     libcmt:crt0dat.obj
 0003:0000bb18       __pgmptr                   1016cb18     libcmt:crt0dat.obj
 0003:0000bb1c       __wpgmptr                  1016cb1c     libcmt:crt0dat.obj
 0003:0000bb20       __exitflag                 1016cb20     libcmt:crt0dat.obj
 0003:0000bb24       __C_Termination_Done       1016cb24     libcmt:crt0dat.obj
 0003:0000bb28       __C_Exit_Done              1016cb28     libcmt:crt0dat.obj
 0003:0000c158       ?_pnhHeap@@3P6AHI@ZA       1016d158     libcmt:handler.obj
 0003:0000c15c       __newmode                  1016d15c     libcmt:_newmode.obj
 0003:0000c160       __cflush                   1016d160     libcmt:_file.obj
 0003:0000c164       ___pInvalidArgHandler      1016d164     libcmt:invarg.obj
 0003:0000c16c       ___mbulinfo                1016d16c     libcmt:mbctype.obj
 0003:0000c178       ___mbcodepage              1016d178     libcmt:mbctype.obj
 0003:0000c17c       ___ismbcodepage            1016d17c     libcmt:mbctype.obj
 0003:0000c180       ___mblcid                  1016d180     libcmt:mbctype.obj
 0003:0000c184       _gpFlsAlloc                1016d184     libcmt:tidtable.obj
 0003:0000c188       _gpFlsGetValue             1016d188     libcmt:tidtable.obj
 0003:0000c18c       _gpFlsSetValue             1016d18c     libcmt:tidtable.obj
 0003:0000c190       _gpFlsFree                 1016d190     libcmt:tidtable.obj
 0003:0000c194       ___locale_changed          1016d194     libcmt:setlocal.obj
 0003:0000c198       ___fastflag                1016d198     libcmt:_fpinit_.obj
 0003:0000c19c       __stdbuf                   1016d19c     libcmt:_sftbuf.obj
 0003:0000c1a4       __maxwait                  1016d1a4     libcmt:crtheap.obj
 0003:0000c400       ?__pInconsistency@@3P6AXXZA 1016d400     libcmt:hooks.obj
 0003:0000c41c       ___pPurecall               1016d41c     libcmt:inithelp.obj
 0003:0000c438       __commode                  1016d438     libcmt:ncommode.obj
 0003:0000c43c       ___lconv_static_null       1016d43c     libcmt:lconv.obj
 0003:0000c440       ___lconv_static_W_null     1016d440     libcmt:lconv.obj
 0003:0000c444       __outputformat             1016d444     libcmt:outputformat.obj
 0003:0000c448       __fmode                    1016d448     libcmt:txtmode.obj
 0003:0000c484       __old_pfxlen               1016d484     libcmt:rmtmp.obj
 0003:0000c528       ?ilErrorNum@@3PAIA         1016d528     il_error.obj
 0003:0000c7a8       ?JpegJumpBuffer@@3PAHA     1016d7a8     il_jpeg.obj
 0003:0000c7e8       ?netindex@@3PAHA           1016d7e8     il_neuquant.obj
 0003:0000cbe8       ?radpower@@3PAHA           1016dbe8     il_neuquant.obj
 0003:0000cc68       ?netsizethink@@3HA         1016dc68     il_neuquant.obj
 0003:0000cc6c       ?alphadec@@3HA             1016dc6c     il_neuquant.obj
 0003:0000cc70       ?freq@@3PAHA               1016dc70     il_neuquant.obj
 0003:0000d070       ?bias@@3PAHA               1016e070     il_neuquant.obj
 0003:0000d470       ?samplefac@@3HA            1016e470     il_neuquant.obj
 0003:0000d474       ?lengthcount@@3HA          1016e474     il_neuquant.obj
 0003:0000e478       ?thepicture@@3PAEA         1016f478     il_neuquant.obj
 0003:0000e47c       ?ChannelNum@@3GA           1016f47c     il_psd.obj
 0003:0000e534       ?Pal@@3UILpal@@A           1016f534     il_psp.obj
 0003:0000e5f4       ?AttChunk@@3UGENATT_CHUNK@@A 1016f5f4     il_psp.obj
 0003:0000e620       ?NumChannels@@3IA          1016f620     il_psp.obj
 0003:0000e624       ?Header@@3UPSPHEAD@@A      1016f624     il_psp.obj
 0003:0000e648       ?mg@@3PAY1CB@CB@HA         1016f648     il_quantizer.obj
 0003:000317cc       ?WindH@@3HA                101927cc     il_quantizer.obj
 0003:000317d8       ?gm2@@3PAY1CB@CB@MA        101927d8     il_quantizer.obj
 0003:0005495c       ?Qadd@@3PAGA               101b595c     il_quantizer.obj
 0003:00054960       ?WindW@@3HA                101b5960     il_quantizer.obj
 0003:00054968       ?size@@3IA                 101b5968     il_quantizer.obj
 0003:0005496c       ?K@@3HA                    101b596c     il_quantizer.obj
 0003:00054970       ?i@@3HA                    101b5970     il_quantizer.obj
 0003:00054978       ?WindD@@3HA                101b5978     il_quantizer.obj
 0003:0005497c       ?buffer@@3PAEA             101b597c     il_quantizer.obj
 0003:00054980       ?mr@@3PAY1CB@CB@HA         101b5980     il_quantizer.obj
 0003:00077b08       ?mb@@3PAY1CB@CB@HA         101d8b08     il_quantizer.obj
 0003:0009ac90       ?wt@@3PAY1CB@CB@HA         101fbc90     il_quantizer.obj
 0003:000bde18       ?CurPos@@3_JA              1021ee18     il_size.obj
 0003:000bde20       ?MaxPos@@3_JA              1021ee20     il_size.obj
 0003:000bde28       ?ilStates@@3PAUIL_STATES@@A 1021ee28     il_states.obj
 0003:000bee28       ?ilHints@@3UIL_HINTS@@A    1021fe28     il_states.obj
 0003:000bf368       _iCurImage                 10220368     il_internal.obj
 0003:000bf36c       ?JasperInit@@3EA           1022036c     il_jp2.obj
 0003:000bf36e       ?IsLump@@3EA               1022036e     il_pnm.obj
 0003:000bf370       ?FName@@3PA_WA             10220370     il_pnm.obj
 0003:000bf374       ?Channels@@3PAPAEA         10220374     il_psp.obj
 0003:000bf378       ?Alpha@@3PAEA              10220378     il_psp.obj
 0003:000bf37c       ?LoadProcs@@3PAUiFormatL@@A 1022037c     il_register.obj
 0003:000bf380       ?SaveProcs@@3PAUiFormatS@@A 10220380     il_register.obj
 0003:000bf388       ?StackSize@@3IA            10220388     il_stack.obj
 0003:000bf38c       ?LastUsed@@3IA             1022038c     il_stack.obj
 0003:000bf390       ?CurName@@3IA              10220390     il_stack.obj
 0003:000bf394       ?ImageStack@@3PAPAUILimage@@A 10220394     il_stack.obj
 0003:000bf398       ?FreeNames@@3PAUiFree@@A   10220398     il_stack.obj
 0003:000bf39c       ?ilCurrentPos@@3IA         1022039c     il_states.obj
 0003:000bf3d0       __TIFFerrorHandlerExt      102203d0     libTIFF:tif_error.obj
 0003:000bf3d8       __TIFFwarningHandlerExt    102203d8     libTIFF:tif_warning.obj
 0003:000bf3f8       ___use_sse2_mathfcns       102203f8     <common>
 0003:000bf3fc       __pmatherr                 102203fc     <common>
 0003:000bf400       ___sse2_available          10220400     <common>
 0003:000bf404       __debugger_hook_dummy      10220404     <common>
 0003:000bf408       __pDestructExceptionObject 10220408     <common>
 0003:000bf40c       __nhandle                  1022040c     <common>
 0003:000bf420       ___pioinfo                 10220420     <common>
 0003:000bf520       ___piob                    10220520     <common>
 0003:000bf540       __bufin                    10220540     <common>
 0003:000c0540       __nstream                  10221540     <common>
 0003:000c0544       ___env_initialized         10221544     <common>
 0003:000c0548       ___onexitend               10221548     <common>
 0003:000c054c       ___onexitbegin             1022154c     <common>
 0003:000c0550       ___mbctype_initialized     10221550     <common>
 0003:000c0554       ___dyn_tls_init_callback   10221554     <common>
 0003:000c0558       __acmdln                   10221558     <common>
 0003:000c0560       _jpc_refnmsedec            10221560     <common>
 0003:000c0760       _jpc_mqctxs                10221760     <common>
 0003:000c0800       _jpc_signmsedec            10221800     <common>
 0003:000c0a00       _jpc_signmsedec0           10221a00     <common>
 0003:000c0c00       _jpc_zcctxnolut            10221c00     <common>
 0003:000c1c00       _jpc_spblut                10222c00     <common>
 0003:000c2000       _jpc_scctxnolut            10223000     <common>
 0003:000c2400       _jpc_refnmsedec0           10223400     <common>
 0003:000c2600       _jpc_magctxnolut           10223600     <common>

 entry point at        0001:001180f6

 Static symbols

 0001:000000f0       ?DefaultAllocFunc@@YGPAXI@Z 100010f0 f    CIL library: CIL module
 0001:00000110       ?DefaultFreeFunc@@YGXQBX@Z 10001110 f    CIL library: CIL module
 0001:00017db0       ?float2rgbe@@YAXQAEMMM@Z   10018db0 f    CIL library: CIL module
 0001:0001a000       ?png_error_func@@YAXPAUpng_struct_def@@PBD@Z 1001b000 f    CIL library: CIL module
 0001:0001a000       ?ico_png_error_func@@YAXPAUpng_struct_def@@PBD@Z 1001b000 f    CIL library: CIL module
 0001:0001b220       ?isLBM@@YAHXZ              1001c220 f    CIL library: CIL module
 0001:0001b2c0       ?load_ilbm@@YAEXZ          1001c2c0 f    CIL library: CIL module
 0001:0001e3a0       ?png_read@@YAXPAUpng_struct_def@@PAEI@Z 1001f3a0 f    CIL library: CIL module
 0001:0001e3a0       ?iJp2_file_read@@YAHPAXPADH@Z 1001f3a0 f    CIL library: CIL module
 0001:0001e3a0       ?_tiffFileReadProc@@YAHPAX0H@Z 1001f3a0 f    CIL library: CIL module
 0001:0001e3a0       ?ico_png_read@@YAXPAUpng_struct_def@@PAEI@Z 1001f3a0 f    CIL library: CIL module
 0001:0001e3d0       ?iJp2_file_seek@@YAJPAXJH@Z 1001f3d0 f    CIL library: CIL module
 0001:0001ebd0       ?init_source@@YAXPAUjpeg_decompress_struct@@@Z 1001fbd0 f    CIL library: CIL module
 0001:0001ebe0       ?fill_input_buffer@@YAEPAUjpeg_decompress_struct@@@Z 1001fbe0 f    CIL library: CIL module
 0001:0001ec60       ?skip_input_data@@YAXPAUjpeg_decompress_struct@@J@Z 1001fc60 f    CIL library: CIL module
 0001:0001ed70       ?iJpegErrorExit@@YAXPAUjpeg_common_struct@@@Z 1001fd70 f    CIL library: CIL module
 0001:0001ef40       ?init_destination@@YAXPAUjpeg_compress_struct@@@Z 1001ff40 f    CIL library: CIL module
 0001:0001ef70       ?empty_output_buffer@@YAEPAUjpeg_compress_struct@@@Z 1001ff70 f    CIL library: CIL module
 0001:0001efb0       ?term_destination@@YAXPAUjpeg_compress_struct@@@Z 1001ffb0 f    CIL library: CIL module
 0001:000287f0       ?ReadCompressedChannel@@YAIIIPAE@Z 100297f0 f    CIL library: CIL module
 0001:00034430       ?_tiffFileWriteProc@@YAHPAX0H@Z 10035430 f    CIL library: CIL module
 0001:00034430       ?iJp2_file_write@@YAHPAXPADH@Z 10035430 f    CIL library: CIL module
 0001:00034460       ?_tiffFileSeekProcW@@YA_KPAX_KH@Z 10035460 f    CIL library: CIL module
 0001:00034460       ?_tiffFileSeekProc@@YA_KPAX_KH@Z 10035460 f    CIL library: CIL module
 0001:000344c0       ?_tiffFileSizeProcW@@YA_KPAX@Z 100354c0 f    CIL library: CIL module
 0001:000344c0       ?_tiffFileSizeProc@@YA_KPAX@Z 100354c0 f    CIL library: CIL module
 0001:00037850       _jas_image_cmpt_create     10038850 f    CIL library: CIL module
 0001:00037960       _jas_image_cmpt_destroy    10038960 f    CIL library: CIL module
 0001:00038140       _jas_image_setbbox         10039140 f    CIL library: CIL module
 0001:00038220       _jas_image_growcmpts       10039220 f    CIL library: CIL module
 0001:00039040       _jas_stream_initbuf        1003a040 f    CIL library: CIL module
 0001:00039350       _mem_read                  1003a350 f    CIL library: CIL module
 0001:00039390       _mem_write                 1003a390 f    CIL library: CIL module
 0001:00039450       _mem_seek                  1003a450 f    CIL library: CIL module
 0001:000394a0       _mem_close                 1003a4a0 f    CIL library: CIL module
 0001:000394d0       _jpc_coc_destroyparms      1003a4d0 f    CIL library: CIL module
 0001:000394d0       __TIFFvoid                 1003a4d0 f    CIL library: CIL module
 0001:000394d0       _Win32WarningHandler       1003a4d0 f    CIL library: CIL module
 0001:000394d0       ?_tiffDummyUnmapProc@@YAXPAX0_K@Z 1003a4d0 f    CIL library: CIL module
 0001:000394d0       _start_pass_downsample     1003a4d0 f    CIL library: CIL module
 0001:000394d0       _null_method               1003a4d0 f    CIL library: CIL module
 0001:000394d0       _finish_pass_1_quant       1003a4d0 f    CIL library: CIL module
 0001:000394d0       _Win32ErrorHandler         1003a4d0 f    CIL library: CIL module
 0001:000394d0       _finish_pass               1003a4d0 f    CIL library: CIL module
 0001:000394d0       _jpc_cod_destroyparms      1003a4d0 f    CIL library: CIL module
 0001:000394d0       _file_close                1003a4d0 f    CIL library: CIL module
 0001:000394d0       __tiffDummyUnmapProc       1003a4d0 f    CIL library: CIL module
 0001:000394d0       _file_read                 1003a4d0 f    CIL library: CIL module
 0001:000394d0       _term_source               1003a4d0 f    CIL library: CIL module
 0001:000394d0       _file_seek                 1003a4d0 f    CIL library: CIL module
 0001:000394d0       _finish_pass2              1003a4d0 f    CIL library: CIL module
 0001:000394d0       _start_pass_dcolor         1003a4d0 f    CIL library: CIL module
 0001:000394d0       ?term_source@@YAXPAUjpeg_decompress_struct@@@Z 1003a4d0 f    CIL library: CIL module
 0001:000394d0       _file_write                1003a4d0 f    CIL library: CIL module
 0001:000394d0       __logLuvNop                1003a4d0 f    CIL library: CIL module
 0001:000394d0       _jpg_finish_output         1003a4d0 f    CIL library: CIL module
 0001:000394d0       _DefaultLogErrorHandlerFunction 1003a4d0 f    CIL library: CIL module
 0001:000394d0       ?png_warn_func@@YAXPAUpng_struct_def@@PBD@Z 1003a4d0 f    CIL library: CIL module
 0001:000394d0       ?ico_png_warn_func@@YAXPAUpng_struct_def@@PBD@Z 1003a4d0 f    CIL library: CIL module
 0001:000394e0       _sfile_read                1003a4e0 f    CIL library: CIL module
 0001:00039500       _sfile_write               1003a500 f    CIL library: CIL module
 0001:00039520       _sfile_seek                1003a520 f    CIL library: CIL module
 0001:00039530       _sfile_close               1003a530 f    CIL library: CIL module
 0001:000397d0       _jas_cmprof_createsycc     1003a7d0 f    CIL library: CIL module
 0001:00039b30       _jas_cmprof_create         1003ab30 f    CIL library: CIL module
 0001:00039bf0       _jas_cmpxformseq_create    1003abf0 f    CIL library: CIL module
 0001:00039c40       _jas_cmpxformseq_destroy   1003ac40 f    CIL library: CIL module
 0001:00039ca0       _jas_cmpxformseq_insertpxform 1003aca0 f    CIL library: CIL module
 0001:00039d30       _jas_cmpxform_destroy      1003ad30 f    CIL library: CIL module
 0001:00039d50       _jas_cmpxform_createshapmat 1003ad50 f    CIL library: CIL module
 0001:00039e10       _jas_cmshapmat_destroy     1003ae10 f    CIL library: CIL module
 0001:00039e50       _jas_cmshapmat_apply       1003ae50 f    CIL library: CIL module
 0001:0003a060       _jas_cmshapmatlut_cleanup  1003b060 f    CIL library: CIL module
 0001:0003a080       _jas_cmshapmatlut_set      1003b080 f    CIL library: CIL module
 0001:0003a1b0       _jas_cmshapmatlut_lookup   1003b1b0 f    CIL library: CIL module
 0001:0003a230       _jas_cmshapmatlut_invert   1003b230 f    CIL library: CIL module
 0001:0003a420       _jas_cmshapmat_invmat      1003b420 f    CIL library: CIL module
 0001:0003a550       _mono                      1003b550 f    CIL library: CIL module
 0001:0003a6a0       _triclr                    1003b6a0 f    CIL library: CIL module
 0001:0003abf0       _jpc_abstorelstepsize      1003bbf0 f    CIL library: CIL module
 0001:0003ad80       _cp_create                 1003bd80 f    CIL library: CIL module
 0001:0003ba40       _jpc_enc_encodemainhdr     1003ca40 f    CIL library: CIL module
 0001:0003c1c0       _jpc_enc_encodemainbody    1003d1c0 f    CIL library: CIL module
 0001:0003e080       _tcmpt_create              1003f080 f    CIL library: CIL module
 0001:0003e3b0       _tcmpt_destroy             1003f3b0 f    CIL library: CIL module
 0001:0003e440       _rlvl_create               1003f440 f    CIL library: CIL module
 0001:0003e680       _rlvl_destroy              1003f680 f    CIL library: CIL module
 0001:0003e760       _band_create               1003f760 f    CIL library: CIL module
 0001:0003e970       _band_destroy              1003f970 f    CIL library: CIL module
 0001:0003ea00       _prc_create                1003fa00 f    CIL library: CIL module
 0001:0003ece0       _prc_destroy               1003fce0 f    CIL library: CIL module
 0001:0003eda0       _cblk_create               1003fda0 f    CIL library: CIL module
 0001:0003ef30       _cblk_destroy              1003ff30 f    CIL library: CIL module
 0001:0003f2e0       _jpc_dec_parseopts         100402e0 f    CIL library: CIL module
 0001:0003f400       _jpc_dec_decode            10040400 f    CIL library: CIL module
 0001:0003f520       _jpc_dec_process_soc       10040520 f    CIL library: CIL module
 0001:0003f540       _jpc_dec_process_sot       10040540 f    CIL library: CIL module
 0001:0003f6f0       _jpc_dec_process_sod       100406f0 f    CIL library: CIL module
 0001:0003f920       _jpc_dec_tileinit          10040920 f    CIL library: CIL module
 0001:00040420       _jpc_dec_tilefini          10041420 f    CIL library: CIL module
 0001:000409a0       _jpc_dec_tiledecode        100419a0 f    CIL library: CIL module
 0001:00040e70       _jpc_dec_process_eoc       10041e70 f    CIL library: CIL module
 0001:00040ed0       _jpc_dec_process_siz       10041ed0 f    CIL library: CIL module
 0001:00041190       _jpc_dec_process_cod       10042190 f    CIL library: CIL module
 0001:000411e0       _jpc_dec_process_coc       100421e0 f    CIL library: CIL module
 0001:00041260       _jpc_dec_process_rgn       10042260 f    CIL library: CIL module
 0001:000412e0       _jpc_dec_process_qcd       100422e0 f    CIL library: CIL module
 0001:00041330       _jpc_dec_process_qcc       10042330 f    CIL library: CIL module
 0001:00041390       _jpc_dec_process_poc       10042390 f    CIL library: CIL module
 0001:000413f0       _jpc_dec_process_ppm       100423f0 f    CIL library: CIL module
 0001:00041480       _jpc_dec_process_ppt       10042480 f    CIL library: CIL module
 0001:00041510       _jpc_dec_process_unk       10042510 f    CIL library: CIL module
 0001:00041540       _jpc_dec_cp_create         10042540 f    CIL library: CIL module
 0001:000415f0       _jpc_dec_cp_copy           100425f0 f    CIL library: CIL module
 0001:000416b0       _jpc_dec_cp_isvalid        100426b0 f    CIL library: CIL module
 0001:00041710       _jpc_dec_cp_prepare        10042710 f    CIL library: CIL module
 0001:00041800       _jpc_dec_cp_setfromcod     10042800 f    CIL library: CIL module
 0001:000418f0       _jpc_dec_cp_setfromcoc     100428f0 f    CIL library: CIL module
 0001:00041920       _jpc_dec_cp_setfromcox     10042920 f    CIL library: CIL module
 0001:000419b0       _jpc_dec_cp_setfromqcd     100429b0 f    CIL library: CIL module
 0001:00041a10       _jpc_dec_cp_setfromqcc     10042a10 f    CIL library: CIL module
 0001:00041a60       _jpc_pi_addpchgfrompoc     10042a60 f    CIL library: CIL module
 0001:00041ad0       _jpc_dec_cp_setfrompoc     10042ad0 f    CIL library: CIL module
 0001:00041b90       _jpc_dequantize            10042b90 f    CIL library: CIL module
 0001:00041bf0       _jpc_undo_roi              10042bf0 f    CIL library: CIL module
 0001:00041cf0       _jpc_dec_create            10042cf0 f    CIL library: CIL module
 0001:00041d60       _jpc_dec_destroy           10042d60 f    CIL library: CIL module
 0001:00041e30       _jpc_dec_dump              10042e30 f    CIL library: CIL module
 0001:000428c0       _bmp_putinfo               100438c0 f    CIL library: CIL module
 0001:00042af0       _bmp_putdata               10043af0 f    CIL library: CIL module
 0001:00042fc0       _bmp_putint16              10043fc0 f    CIL library: CIL module
 0001:00043070       _bmp_putint32              10044070 f    CIL library: CIL module
 0001:00043400       _ras_putdatastd            10044400 f    CIL library: CIL module
 0001:00043800       _ras_puthdr                10044800 f    CIL library: CIL module
 0001:00043870       _ras_putint                10044870 f    CIL library: CIL module
 0001:000438e0       _jpg_copyfiletostream      100448e0 f    CIL library: CIL module
 0001:000439e0       _jpg_get_pixel_rows        100449e0 f    CIL library: CIL module
 0001:00044080       _jpg_parseencopts          10045080 f    CIL library: CIL module
 0001:00044810       _mif_hdr_create            10045810 f    CIL library: CIL module
 0001:00044850       _mif_hdr_destroy           10045850 f    CIL library: CIL module
 0001:000448a0       _mif_hdr_growcmpts         100458a0 f    CIL library: CIL module
 0001:00044900       _mif_hdr_get               10045900 f    CIL library: CIL module
 0001:00044a70       _mif_process_cmpt          10045a70 f    CIL library: CIL module
 0001:00044c80       _mif_hdr_put               10045c80 f    CIL library: CIL module
 0001:00044e10       _mif_hdr_addcmpt           10045e10 f    CIL library: CIL module
 0001:00044e50       _mif_getline               10045e50 f    CIL library: CIL module
 0001:000450c0       _mif_makehdrfromimage      100460c0 f    CIL library: CIL module
 0001:00045370       _pnm_gethdr                10046370 f    CIL library: CIL module
 0001:00045440       _pnm_getdata               10046440 f    CIL library: CIL module
 0001:000458f0       _pnm_getuint               100468f0 f    CIL library: CIL module
 0001:000459e0       _pnm_getbitstr             100469e0 f    CIL library: CIL module
 0001:00045b60       _pnm_getuintstr            10046b60 f    CIL library: CIL module
 0001:00045d40       _pnm_getsintstr            10046d40 f    CIL library: CIL module
 0001:00045f60       _pnm_getc                  10046f60 f    CIL library: CIL module
 0001:00045f60       _pgx_getc                  10046f60 f    CIL library: CIL module
 0001:000460b0       _pnm_getint16              100470b0 f    CIL library: CIL module
 0001:000462c0       _pgx_gethdr                100472c0 f    CIL library: CIL module
 0001:000463f0       _pgx_getdata               100473f0 f    CIL library: CIL module
 0001:000465c0       _pgx_getword               100475c0 f    CIL library: CIL module
 0001:00046670       _pgx_getbyteorder          10047670 f    CIL library: CIL module
 0001:00046840       _pgx_getsgnd               10047840 f    CIL library: CIL module
 0001:00046a00       _pgx_getuint32             10047a00 f    CIL library: CIL module
 0001:00046ec0       _pnm_parseencopts          10047ec0 f    CIL library: CIL module
 0001:00046fc0       _pnm_putdata               10047fc0 f    CIL library: CIL module
 0001:00047460       _pnm_putuint               10048460 f    CIL library: CIL module
 0001:000477f0       _bmp_gethdr                100487f0 f    CIL library: CIL module
 0001:00047850       _bmp_getinfo               10048850 f    CIL library: CIL module
 0001:00047bf0       _bmp_getdata               10048bf0 f    CIL library: CIL module
 0001:00048240       _bmp_getint16              10049240 f    CIL library: CIL module
 0001:000482d0       _bmp_getint32              100492d0 f    CIL library: CIL module
 0001:000483b0       _bmp_gobble                100493b0 f    CIL library: CIL module
 0001:00048660       _jpg_mkimage               10049660 f    CIL library: CIL module
 0001:00048760       _jpg_copystreamtofile      10049760 f    CIL library: CIL module
 0001:00048830       _jpg_start_output          10049830 f    CIL library: CIL module
 0001:00048840       _jpg_put_pixel_rows        10049840 f    CIL library: CIL module
 0001:00048d30       _ras_getdata               10049d30 f    CIL library: CIL module
 0001:00048d80       _ras_getdatastd            10049d80 f    CIL library: CIL module
 0001:000491d0       _ras_getcmap               1004a1d0 f    CIL library: CIL module
 0001:00049300       _ras_gethdr                1004a300 f    CIL library: CIL module
 0001:000493a0       _ras_getint                1004a3a0 f    CIL library: CIL module
 0001:00049860       _jpc_sot_getparms          1004a860 f    CIL library: CIL module
 0001:000498c0       _jpc_sot_putparms          1004a8c0 f    CIL library: CIL module
 0001:00049910       _jpc_sot_dumpparms         1004a910 f    CIL library: CIL module
 0001:00049940       _jpc_siz_destroyparms      1004a940 f    CIL library: CIL module
 0001:00049960       _jpc_siz_getparms          1004a960 f    CIL library: CIL module
 0001:00049b10       _jpc_siz_putparms          1004ab10 f    CIL library: CIL module
 0001:00049c30       _jpc_siz_dumpparms         1004ac30 f    CIL library: CIL module
 0001:00049cd0       _jpc_cod_getparms          1004acd0 f    CIL library: CIL module
 0001:00049d90       _jpc_cod_putparms          1004ad90 f    CIL library: CIL module
 0001:00049e00       _jpc_cod_dumpparms         1004ae00 f    CIL library: CIL module
 0001:00049ea0       _jpc_coc_getparms          1004aea0 f    CIL library: CIL module
 0001:00049f20       _jpc_coc_putparms          1004af20 f    CIL library: CIL module
 0001:00049f90       _jpc_coc_dumpparms         1004af90 f    CIL library: CIL module
 0001:00049fe0       _jpc_cox_getcompparms      1004afe0 f    CIL library: CIL module
 0001:0004a0e0       _jpc_cox_putcompparms      1004b0e0 f    CIL library: CIL module
 0001:0004a180       _jpc_rgn_getparms          1004b180 f    CIL library: CIL module
 0001:0004a1f0       _jpc_rgn_putparms          1004b1f0 f    CIL library: CIL module
 0001:0004a250       _jpc_rgn_dumpparms         1004b250 f    CIL library: CIL module
 0001:0004a280       _jpc_ppt_destroyparms      1004b280 f    CIL library: CIL module
 0001:0004a280       _jpc_qcd_destroyparms      1004b280 f    CIL library: CIL module
 0001:0004a280       _jas_icccurv_destroy       1004b280 f    CIL library: CIL module
 0001:0004a2a0       _jpc_qcd_getparms          1004b2a0 f    CIL library: CIL module
 0001:0004a2c0       _jpc_qcd_putparms          1004b2c0 f    CIL library: CIL module
 0001:0004a2e0       _jpc_qcd_dumpparms         1004b2e0 f    CIL library: CIL module
 0001:0004a350       _jpc_qcc_destroyparms      1004b350 f    CIL library: CIL module
 0001:0004a370       _jpc_qcc_getparms          1004b370 f    CIL library: CIL module
 0001:0004a3f0       _jpc_qcc_putparms          1004b3f0 f    CIL library: CIL module
 0001:0004a450       _jpc_qcc_dumpparms         1004b450 f    CIL library: CIL module
 0001:0004a4c0       _jpc_qcx_getcompparms      1004b4c0 f    CIL library: CIL module
 0001:0004a620       _jpc_qcx_putcompparms      1004b620 f    CIL library: CIL module
 0001:0004a6c0       _jpc_sop_getparms          1004b6c0 f    CIL library: CIL module
 0001:0004a6e0       _jpc_sop_putparms          1004b6e0 f    CIL library: CIL module
 0001:0004a700       _jpc_sop_dumpparms         1004b700 f    CIL library: CIL module
 0001:0004a720       _jas_icctxt_destroy        1004b720 f    CIL library: CIL module
 0001:0004a720       _jpc_com_destroyparms      1004b720 f    CIL library: CIL module
 0001:0004a720       _jpc_ppm_destroyparms      1004b720 f    CIL library: CIL module
 0001:0004a720       _jpc_poc_destroyparms      1004b720 f    CIL library: CIL module
 0001:0004a740       _jpc_ppm_getparms          1004b740 f    CIL library: CIL module
 0001:0004a7d0       _jpc_ppm_putparms          1004b7d0 f    CIL library: CIL module
 0001:0004a800       _jpc_ppm_dumpparms         1004b800 f    CIL library: CIL module
 0001:0004a850       _jpc_ppt_getparms          1004b850 f    CIL library: CIL module
 0001:0004a8d0       _jpc_ppt_putparms          1004b8d0 f    CIL library: CIL module
 0001:0004a910       _jpc_ppt_dumpparms         1004b910 f    CIL library: CIL module
 0001:0004a960       _jpc_poc_getparms          1004b960 f    CIL library: CIL module
 0001:0004ab60       _jpc_poc_putparms          1004bb60 f    CIL library: CIL module
 0001:0004acc0       _jpc_poc_dumpparms         1004bcc0 f    CIL library: CIL module
 0001:0004ad40       _jpc_crg_getparms          1004bd40 f    CIL library: CIL module
 0001:0004ade0       _jpc_crg_putparms          1004bde0 f    CIL library: CIL module
 0001:0004aef0       _jpc_crg_dumpparms         1004bef0 f    CIL library: CIL module
 0001:0004af30       _jpc_com_getparms          1004bf30 f    CIL library: CIL module
 0001:0004afa0       _jpc_com_putparms          1004bfa0 f    CIL library: CIL module
 0001:0004aff0       _jpc_com_dumpparms         1004bff0 f    CIL library: CIL module
 0001:0004b070       _jpc_unk_destroyparms      1004c070 f    CIL library: CIL module
 0001:0004b090       _jpc_unk_getparms          1004c090 f    CIL library: CIL module
 0001:0004b100       _jpc_unk_dumpparms         1004c100 f    CIL library: CIL module
 0001:0004b140       _jp2_getuint8              1004c140 f    CIL library: CIL module
 0001:0004b190       _jp2_getuint16             1004c190 f    CIL library: CIL module
 0001:0004b230       _jp2_putuint16             1004c230 f    CIL library: CIL module
 0001:0004b230       _pnm_putuint16             1004c230 f    CIL library: CIL module
 0001:0004b2e0       _jp2_putuint32             1004c2e0 f    CIL library: CIL module
 0001:0004b430       _jpc_mstab_lookup          1004c430 f    CIL library: CIL module
 0001:0004be00       _jp2_dec_destroy           1004ce00 f    CIL library: CIL module
 0001:0004bef0       _jp2_getct                 1004cef0 f    CIL library: CIL module
 0001:0004bf50       _fromiccpcs                1004cf50 f    CIL library: CIL module
 0001:0004c610       _jp2_gettypeasoc           1004d610 f    CIL library: CIL module
 0001:0004c770       _pgx_puthdr                1004d770 f    CIL library: CIL module
 0001:0004c7e0       _pgx_putdata               1004d7e0 f    CIL library: CIL module
 0001:0004c9c0       _pgx_putword               1004d9c0 f    CIL library: CIL module
 0001:0004ca70       _jas_iccprof_create        1004da70 f    CIL library: CIL module
 0001:0004d020       _jas_iccprof_writehdr      1004e020 f    CIL library: CIL module
 0001:0004d1c0       _jas_iccprof_puttagtab     1004e1c0 f    CIL library: CIL module
 0001:0004d2d0       _jas_iccprof_readhdr       1004e2d0 f    CIL library: CIL module
 0001:0004d460       _jas_iccprof_gettagtab     1004e460 f    CIL library: CIL module
 0001:0004d620       _jas_icctagtabent_cmp      1004e620 f    CIL library: CIL module
 0001:0004d640       _jas_iccattrvalinfo_lookup 1004e640 f    CIL library: CIL module
 0001:0004d670       _jas_iccgettime            1004e670 f    CIL library: CIL module
 0001:0004d730       _jas_iccgetxyz             1004e730 f    CIL library: CIL module
 0001:0004d780       _jas_iccputtime            1004e780 f    CIL library: CIL module
 0001:0004d7f0       _jas_iccputxyz             1004e7f0 f    CIL library: CIL module
 0001:0004d830       _jas_iccattrtab_create     1004e830 f    CIL library: CIL module
 0001:0004d880       _jas_iccattrtab_copy       1004e880 f    CIL library: CIL module
 0001:0004d900       _jas_iccattrtab_destroy    1004e900 f    CIL library: CIL module
 0001:0004d980       _jas_iccattrtab_add        1004e980 f    CIL library: CIL module
 0001:0004da10       _jas_iccattrtab_delete     1004ea10 f    CIL library: CIL module
 0001:0004daf0       _jas_iccxyz_input          1004eaf0 f    CIL library: CIL module
 0001:0004db50       _jas_iccxyz_output         1004eb50 f    CIL library: CIL module
 0001:0004dbc0       _jas_iccxyz_getsize        1004ebc0 f    CIL library: CIL module
 0001:0004dbd0       _jas_iccxyz_dump           1004ebd0 f    CIL library: CIL module
 0001:0004dc20       _jas_icccurv_input         1004ec20 f    CIL library: CIL module
 0001:0004dcd0       _jas_icccurv_getsize       1004ecd0 f    CIL library: CIL module
 0001:0004dce0       _jas_icccurv_output        1004ece0 f    CIL library: CIL module
 0001:0004ddd0       _jas_icccurv_dump          1004edd0 f    CIL library: CIL module
 0001:0004de80       _jas_icctxtdesc_destroy    1004ee80 f    CIL library: CIL module
 0001:0004deb0       _jas_icctxtdesc_input      1004eeb0 f    CIL library: CIL module
 0001:0004e040       _jas_icctxtdesc_getsize    1004f040 f    CIL library: CIL module
 0001:0004e070       _jas_icctxtdesc_output     1004f070 f    CIL library: CIL module
 0001:0004e1e0       _jas_icctxtdesc_dump       1004f1e0 f    CIL library: CIL module
 0001:0004e240       _jas_icctxt_copy           1004f240 f    CIL library: CIL module
 0001:0004e2a0       _jas_icctxt_input          1004f2a0 f    CIL library: CIL module
 0001:0004e310       _jas_icctxt_getsize        1004f310 f    CIL library: CIL module
 0001:0004e330       _jas_icctxt_output         1004f330 f    CIL library: CIL module
 0001:0004e3a0       _jas_icctxt_dump           1004f3a0 f    CIL library: CIL module
 0001:0004e3c0       _jas_icclut16_destroy      1004f3c0 f    CIL library: CIL module
 0001:0004e3c0       _jas_icclut8_destroy       1004f3c0 f    CIL library: CIL module
 0001:0004e420       _jas_icclut8_input         1004f420 f    CIL library: CIL module
 0001:0004e9b0       _jas_icclut8_getsize       1004f9b0 f    CIL library: CIL module
 0001:0004ea00       _jas_icclut8_output        1004fa00 f    CIL library: CIL module
 0001:0004ecf0       _jas_icclut8_dump          1004fcf0 f    CIL library: CIL module
 0001:0004ecf0       _jas_icclut16_dump         1004fcf0 f    CIL library: CIL module
 0001:0004ed90       _jas_icclut8_copy          1004fd90 f    CIL library: CIL module
 0001:0004ed90       _jas_icccurv_copy          1004fd90 f    CIL library: CIL module
 0001:0004ed90       _jas_icctxtdesc_copy       1004fd90 f    CIL library: CIL module
 0001:0004ed90       _jas_icclut16_copy         1004fd90 f    CIL library: CIL module
 0001:0004eda0       _jas_icclut16_input        1004fda0 f    CIL library: CIL module
 0001:0004f1e0       _jas_icclut16_getsize      100501e0 f    CIL library: CIL module
 0001:0004f230       _jas_icclut16_output       10050230 f    CIL library: CIL module
 0001:0004f510       _jas_iccgetuint            10050510 f    CIL library: CIL module
 0001:0004f5a0       _jas_iccgetuint8           100505a0 f    CIL library: CIL module
 0001:0004f600       _jas_iccgetuint16          10050600 f    CIL library: CIL module
 0001:0004f640       _jas_iccgetsint32          10050640 f    CIL library: CIL module
 0001:0004f6b0       _jas_iccgetuint32          100506b0 f    CIL library: CIL module
 0001:0004f6e0       _jas_iccputuint            100506e0 f    CIL library: CIL module
 0001:0004fca0       _jpc_pi_nextlrcp           10050ca0 f    CIL library: CIL module
 0001:0004fd80       _jpc_pi_nextrlcp           10050d80 f    CIL library: CIL module
 0001:0004fe60       _jpc_pi_nextrpcl           10050e60 f    CIL library: CIL module
 0001:00050160       _jpc_pi_nextpcrl           10051160 f    CIL library: CIL module
 0001:00050450       _jpc_pi_nextcprl           10051450 f    CIL library: CIL module
 0001:000510d0       _jpc_putcommacode          100520d0 f    CIL library: CIL module
 0001:00051270       _jpc_putnumnewpasses       10052270 f    CIL library: CIL module
 0001:00052fc0       _jpc_encsigpass            10053fc0 f    CIL library: CIL module
 0001:00053830       _jpc_encrawsigpass         10054830 f    CIL library: CIL module
 0001:000543d0       _jpc_encrefpass            100553d0 f    CIL library: CIL module
 0001:000548a0       _jpc_encrawrefpass         100558a0 f    CIL library: CIL module
 0001:00054f00       _jpc_encclnpass            10055f00 f    CIL library: CIL module
 0001:000578d0       _jpc_getcommacode          100588d0 f    CIL library: CIL module
 0001:000579e0       _jpc_getnumnewpasses       100589e0 f    CIL library: CIL module
 0001:00057a70       _jpc_dec_decodepkt         10058a70 f    CIL library: CIL module
 0001:00058800       _jpc_mqdec_bytein          10059800 f    CIL library: CIL module
 0001:00058e80       _jpc_dec_decodecblk        10059e80 f    CIL library: CIL module
 0001:000593e0       _dec_sigpass               1005a3e0 f    CIL library: CIL module
 0001:00059ae0       _dec_rawsigpass            1005aae0 f    CIL library: CIL module
 0001:00059f90       _dec_refpass               1005af90 f    CIL library: CIL module
 0001:0005a3a0       _dec_rawrefpass            1005b3a0 f    CIL library: CIL module
 0001:0005a650       _dec_clnpass               1005b650 f    CIL library: CIL module
 0001:0005b1a0       _jp2_bpcc_destroy          1005c1a0 f    CIL library: CIL module
 0001:0005b1a0       _jp2_cdef_destroy          1005c1a0 f    CIL library: CIL module
 0001:0005b3f0       _jp2_jp_getdata            1005c3f0 f    CIL library: CIL module
 0001:0005b410       _jp2_ftyp_getdata          1005c410 f    CIL library: CIL module
 0001:0005b490       _jp2_ihdr_getdata          1005c490 f    CIL library: CIL module
 0001:0005b510       _jp2_bpcc_getdata          1005c510 f    CIL library: CIL module
 0001:0005b5b0       _jp2_colr_dumpdata         1005c5b0 f    CIL library: CIL module
 0001:0005b610       _jp2_colr_getdata          1005c610 f    CIL library: CIL module
 0001:0005b6f0       _jp2_cdef_dumpdata         1005c6f0 f    CIL library: CIL module
 0001:0005b750       _jp2_colr_destroy          1005c750 f    CIL library: CIL module
 0001:0005b770       _jp2_cdef_getdata          1005c770 f    CIL library: CIL module
 0001:0005ba10       _jp2_jp_putdata            1005ca10 f    CIL library: CIL module
 0001:0005ba30       _jp2_ftyp_putdata          1005ca30 f    CIL library: CIL module
 0001:0005bbe0       _jp2_ihdr_putdata          1005cbe0 f    CIL library: CIL module
 0001:0005bc60       _jp2_bpcc_putdata          1005cc60 f    CIL library: CIL module
 0001:0005bce0       _jp2_colr_putdata          1005cce0 f    CIL library: CIL module
 0001:0005bd50       _jp2_cdef_putdata          1005cd50 f    CIL library: CIL module
 0001:0005be80       _jp2_getuint32             1005ce80 f    CIL library: CIL module
 0001:0005bfb0       _jp2_getuint64             1005cfb0 f    CIL library: CIL module
 0001:0005c030       _jp2_putuint8              1005d030 f    CIL library: CIL module
 0001:0005c0c0       _jp2_cmap_destroy          1005d0c0 f    CIL library: CIL module
 0001:0005c0e0       _jp2_cmap_getdata          1005d0e0 f    CIL library: CIL module
 0001:0005c1c0       _jp2_pclr_putdata          1005d1c0 f    CIL library: CIL module
 0001:0005c1c0       _jp2_cmap_putdata          1005d1c0 f    CIL library: CIL module
 0001:0005c1c0       _jpc_unk_putparms          1005d1c0 f    CIL library: CIL module
 0001:0005c1d0       _jp2_cmap_dumpdata         1005d1d0 f    CIL library: CIL module
 0001:0005c240       _jp2_pclr_destroy          1005d240 f    CIL library: CIL module
 0001:0005c270       _jp2_pclr_getdata          1005d270 f    CIL library: CIL module
 0001:0005c3a0       _jp2_pclr_dumpdata         1005d3a0 f    CIL library: CIL module
 0001:0005c410       _jp2_getint                1005d410 f    CIL library: CIL module
 0001:00060340       _mng_drop_objects          10061340 f    CIL library: CIL module
 0001:000603d0       _mng_drop_savedata         100613d0 f    CIL library: CIL module
 0001:00060430       _mng_reset_rundata         10061430 f    CIL library: CIL module
 0001:00060750       _cleanup_errors            10061750 f    CIL library: CIL module
 0001:00061cc0       _read_data                 10062cc0 f    CIL library: CIL module
 0001:00061db0       _read_databuffer           10062db0 f    CIL library: CIL module
 0001:000620f0       _process_raw_chunk         100630f0 f    CIL library: CIL module
 0001:00063180       _check_chunk_crc           10064180 f    CIL library: CIL module
 0001:00063290       _read_chunk                10064290 f    CIL library: CIL module
 0001:000636f0       _process_pushedchunk       100646f0 f    CIL library: CIL module
 0001:00063dd0       _set_delay                 10064dd0 f    CIL library: CIL module
 0001:00063e30       _calculate_delay           10064e30 f    CIL library: CIL module
 0001:00063f40       _interframe_delay          10064f40 f    CIL library: CIL module
 0001:000640c0       _set_display_routine       100650c0 f    CIL library: CIL module
 0001:00064250       _load_bkgdlayer            10065250 f    CIL library: CIL module
 0001:00064be0       _clear_canvas              10065be0 f    CIL library: CIL module
 0001:00064d00       _next_frame                10065d00 f    CIL library: CIL module
 0001:00064f20       _next_layer                10065f20 f    CIL library: CIL module
 0001:000660b0       _save_state                100670b0 f    CIL library: CIL module
 0001:00066380       _restore_state             10067380 f    CIL library: CIL module
 0001:0006e2b0       _check_update_region       1006f2b0 f    CIL library: CIL module
 0001:00082e00       _make_crc_table            10083e00 f    CIL library: CIL module
 0001:00082ea0       _update_crc                10083ea0 f    CIL library: CIL module
 0001:00083150       _deflate_buffer            10084150 f    CIL library: CIL module
 0001:00083370       _write_raw_chunk           10084370 f    CIL library: CIL module
 0001:000891e0       _CheckKeyword              1008a1e0 f    CIL library: CIL module
 0001:00090e30       _filter_average            10091e30 f    CIL library: CIL module
 0001:00090eb0       _filter_paeth              10091eb0 f    CIL library: CIL module
 0001:000914c0       _png_do_read_intrapixel    100924c0 f    CIL library: CIL module
 0001:000919a0       _png_read_destroy          100929a0 f    CIL library: CIL module
 0001:00091ba0       _convert_gamma_value       10092ba0 f    CIL library: CIL module
 0001:00091d60       _png_init_palette_transformations 10092d60 f    CIL library: CIL module
 0001:00091e40       _png_init_rgb_transformations 10092e40 f    CIL library: CIL module
 0001:00092c90       _png_do_unpack             10093c90 f    CIL library: CIL module
 0001:00092db0       _png_do_unshift            10093db0 f    CIL library: CIL module
 0001:00092fa0       _png_do_scale_16_to_8      10093fa0 f    CIL library: CIL module
 0001:00093000       _png_do_chop               10094000 f    CIL library: CIL module
 0001:00093040       _png_do_read_swap_alpha    10094040 f    CIL library: CIL module
 0001:00093170       _png_do_read_invert_alpha  10094170 f    CIL library: CIL module
 0001:00093220       _png_do_read_filler        10094220 f    CIL library: CIL module
 0001:000934c0       _png_do_gray_to_rgb        100944c0 f    CIL library: CIL module
 0001:00093620       _png_do_rgb_to_gray        10094620 f    CIL library: CIL module
 0001:00093a00       _png_do_compose            10094a00 f    CIL library: CIL module
 0001:00094a30       _png_do_gamma              10095a30 f    CIL library: CIL module
 0001:00094e30       _png_do_encode_alpha       10095e30 f    CIL library: CIL module
 0001:00094f10       _png_do_expand_palette     10095f10 f    CIL library: CIL module
 0001:00095120       _png_do_expand             10096120 f    CIL library: CIL module
 0001:00095510       _png_do_expand_16          10096510 f    CIL library: CIL module
 0001:00095550       _png_do_quantize           10096550 f    CIL library: CIL module
 0001:00096b70       _png_colorspace_check_gamma 10097b70 f    CIL library: CIL module
 0001:00096e50       _png_xy_from_XYZ           10097e50 f    CIL library: CIL module
 0001:00097050       _png_XYZ_from_xy           10098050 f    CIL library: CIL module
 0001:000973b0       _png_colorspace_endpoints_match 100983b0 f    CIL library: CIL module
 0001:00097470       _png_colorspace_set_xy_and_XYZ 10098470 f    CIL library: CIL module
 0001:00097630       _png_icc_tag_name          10098630 f    CIL library: CIL module
 0001:00097690       _is_ICC_signature_char     10098690 f    CIL library: CIL module
 0001:000976c0       _is_ICC_signature          100986c0 f    CIL library: CIL module
 0001:00097760       _png_icc_profile_error     10098760 f    CIL library: CIL module
 0001:00097f40       _png_compare_ICC_profile_with_sRGB 10098f40 f    CIL library: CIL module
 0001:00098890       _png_product2              10099890 f    CIL library: CIL module
 0001:00098a20       _png_build_16bit_table     10099a20 f    CIL library: CIL module
 0001:00098be0       _png_build_16to8_table     10099be0 f    CIL library: CIL module
 0001:00098df0       _png_build_8bit_table      10099df0 f    CIL library: CIL module
 0001:00099670       _png_format_buffer         1009a670 f    CIL library: CIL module
 0001:00099a50       _png_default_error         1009aa50 f    CIL library: CIL module
 0001:00099b40       _write_unknown_chunks      1009ab40 f    CIL library: CIL module
 0001:0009a2e0       _png_do_write_intrapixel   1009b2e0 f    CIL library: CIL module
 0001:0009a610       _png_write_destroy         1009b610 f    CIL library: CIL module
 0001:0009a7c0       _png_reset_filter_heuristics 1009b7c0 f    CIL library: CIL module
 0001:0009b660       _check_location            1009c660 f    CIL library: CIL module
 0001:0009b8c0       _png_get_fixed_point       1009c8c0 f    CIL library: CIL module
 0001:0009bd00       _png_read_buffer           1009cd00 f    CIL library: CIL module
 0001:0009bdb0       _png_inflate_claim         1009cdb0 f    CIL library: CIL module
 0001:0009bec0       _png_inflate               1009cec0 f    CIL library: CIL module
 0001:0009bfd0       _png_decompress_chunk      1009cfd0 f    CIL library: CIL module
 0001:0009c230       _png_inflate_read          1009d230 f    CIL library: CIL module
 0001:0009f3f0       _png_cache_unknown_chunk   100a03f0 f    CIL library: CIL module
 0001:000a0010       _png_read_filter_row_sub   100a1010 f    CIL library: CIL module
 0001:000a0050       _png_read_filter_row_up    100a1050 f    CIL library: CIL module
 0001:000a0080       _png_read_filter_row_avg   100a1080 f    CIL library: CIL module
 0001:000a00e0       _png_read_filter_row_paeth_1byte_pixel 100a10e0 f    CIL library: CIL module
 0001:000a0190       _png_read_filter_row_paeth_multibyte_pixel 100a1190 f    CIL library: CIL module
 0001:000a0270       _png_init_filter_functions 100a1270 f    CIL library: CIL module
 0001:000a0b50       _png_malloc_array_checked  100a1b50 f    CIL library: CIL module
 0001:000a0d60       _png_write_chunk_header    100a1d60 f    CIL library: CIL module
 0001:000a0f10       _png_write_complete_chunk  100a1f10 f    CIL library: CIL module
 0001:000a0f80       _png_image_size            100a1f80 f    CIL library: CIL module
 0001:000a10e0       _optimize_cmf              100a20e0 f    CIL library: CIL module
 0001:000a1150       _png_deflate_claim         100a2150 f    CIL library: CIL module
 0001:000a13f0       _png_text_compress         100a23f0 f    CIL library: CIL module
 0001:000a1580       _png_write_compressed_data_out 100a2580 f    CIL library: CIL module
 0001:000a1610       _png_check_keyword         100a2610 f    CIL library: CIL module
 0001:000a4a60       _png_do_pack               100a5a60 f    CIL library: CIL module
 0001:000a4b90       _png_do_shift              100a5b90 f    CIL library: CIL module
 0001:000a4df0       _png_do_write_swap_alpha   100a5df0 f    CIL library: CIL module
 0001:000a4f00       _png_do_write_invert_alpha 100a5f00 f    CIL library: CIL module
 0001:000a50d0       _NULLRead                  100a60d0 f    CIL library: CIL module
 0001:000a50f0       _NULLSeek                  100a60f0 f    CIL library: CIL module
 0001:000a5110       _NULLTell                  100a6110 f    CIL library: CIL module
 0001:000a5120       _NULLWrite                 100a6120 f    CIL library: CIL module
 0001:000a5140       _NULLClose                 100a6140 f    CIL library: CIL module
 0001:000a5210       _MemoryRead                100a6210 f    CIL library: CIL module
 0001:000a5270       _MemorySeek                100a6270 f    CIL library: CIL module
 0001:000a52b0       _MemoryTell                100a62b0 f    CIL library: CIL module
 0001:000a52d0       _MemoryWrite               100a62d0 f    CIL library: CIL module
 0001:000a5330       _MemoryClose               100a6330 f    CIL library: CIL module
 0001:000a5490       _FileRead                  100a6490 f    CIL library: CIL module
 0001:000a54e0       _FileSeek                  100a64e0 f    CIL library: CIL module
 0001:000a5520       _FileTell                  100a6520 f    CIL library: CIL module
 0001:000a5540       _FileWrite                 100a6540 f    CIL library: CIL module
 0001:000a5580       _FileClose                 100a6580 f    CIL library: CIL module
 0001:000a5760       __cmsNewTag                100a6760 f    CIL library: CIL module
 0001:000a64f0       _SaveTags                  100a74f0 f    CIL library: CIL module
 0001:000a67c0       _SetLinks                  100a77c0 f    CIL library: CIL module
 0001:000a6a80       _IsTypeSupported           100a7a80 f    CIL library: CIL module
 0001:000a7110       _FloatXFORM                100a8110 f    CIL library: CIL module
 0001:000a7210       _NullXFORM                 100a8210 f    CIL library: CIL module
 0001:000a7280       _PrecalculatedXFORM        100a8280 f    CIL library: CIL module
 0001:000a7300       _TransformOnePixelWithGamutCheck 100a8300 f    CIL library: CIL module
 0001:000a7370       _PrecalculatedXFORMGamutCheck 100a8370 f    CIL library: CIL module
 0001:000a7440       _CachedXFORM               100a8440 f    CIL library: CIL module
 0001:000a75c0       _CachedXFORMGamutCheck     100a85c0 f    CIL library: CIL module
 0001:000a7790       _AllocEmptyTransform       100a8790 f    CIL library: CIL module
 0001:000a7c90       _GetXFormColorSpaces       100a8c90 f    CIL library: CIL module
 0001:000a7d20       _IsProperColorSpace        100a8d20 f    CIL library: CIL module
 0001:000a7d70       _SetWhitePoint             100a8d70 f    CIL library: CIL module
 0001:000a87a0       _ComputeChromaticAdaptation 100a97a0 f    CIL library: CIL module
 0001:000a8950       __cmsAdaptMatrixToD50      100a9950 f    CIL library: CIL module
 0001:000a8c10       _SetTextTags               100a9c10 f    CIL library: CIL module
 0001:000a92c0       _GetParametricCurveByType  100aa2c0 f    CIL library: CIL module
 0001:000a9320       _AllocateToneCurveStruct   100aa320 f    CIL library: CIL module
 0001:000a95a0       _DefaultEvalParametricFn   100aa5a0 f    CIL library: CIL module
 0001:000a9ae0       _EvalSegmentedFn           100aaae0 f    CIL library: CIL module
 0001:000aa0f0       _GetInterval               100ab0f0 f    CIL library: CIL module
 0001:000aa710       _NormalizeXYZ              100ab710 f    CIL library: CIL module
 0001:000aa960       __cmsWriteWCharArray       100ab960 f    CIL library: CIL module
 0001:000aaea0       __cmsMallocDefaultFn       100abea0 f    CIL library: CIL module
 0001:000aaec0       __cmsMallocZeroDefaultFn   100abec0 f    CIL library: CIL module
 0001:000aaf00       __cmsFreeDefaultFn         100abf00 f    CIL library: CIL module
 0001:000aaf20       __cmsReallocDefaultFn      100abf20 f    CIL library: CIL module
 0001:000aaf40       __cmsCallocDefaultFn       100abf40 f    CIL library: CIL module
 0001:000aaf90       __cmsDupDefaultFn          100abf90 f    CIL library: CIL module
 0001:000ab080       __cmsReadWCharArray        100ac080 f    CIL library: CIL module
 0001:000ab100       _ReadPositionTable         100ac100 f    CIL library: CIL module
 0001:000ab290       _WritePositionTable        100ac290 f    CIL library: CIL module
 0001:000ab510       _Type_XYZ_Read             100ac510 f    CIL library: CIL module
 0001:000ab570       _Type_XYZ_Write            100ac570 f    CIL library: CIL module
 0001:000ab590       _Type_XYZ_Dup              100ac590 f    CIL library: CIL module
 0001:000ab5b0       _Type_Measurement_Free     100ac5b0 f    CIL library: CIL module
 0001:000ab5b0       _Type_DateTime_Free        100ac5b0 f    CIL library: CIL module
 0001:000ab5b0       _Type_Data_Free            100ac5b0 f    CIL library: CIL module
 0001:000ab5b0       _Type_ColorantOrderType_Free 100ac5b0 f    CIL library: CIL module
 0001:000ab5b0       _Type_Screening_Free       100ac5b0 f    CIL library: CIL module
 0001:000ab5b0       _Type_ViewingConditions_Free 100ac5b0 f    CIL library: CIL module
 0001:000ab5b0       _Type_Signature_Free       100ac5b0 f    CIL library: CIL module
 0001:000ab5b0       _Type_XYZ_Free             100ac5b0 f    CIL library: CIL module
 0001:000ab5b0       _Type_U16Fixed16_Free      100ac5b0 f    CIL library: CIL module
 0001:000ab5b0       _Type_Chromaticity_Free    100ac5b0 f    CIL library: CIL module
 0001:000ab5b0       _Type_S15Fixed16_Free      100ac5b0 f    CIL library: CIL module
 0001:000ab5d0       _DecideXYZtype             100ac5d0 f    CIL library: CIL module
 0001:000ab5e0       _Type_Chromaticity_Read    100ac5e0 f    CIL library: CIL module
 0001:000ab740       _SaveOneChromaticity       100ac740 f    CIL library: CIL module
 0001:000ab800       _Type_Chromaticity_Write   100ac800 f    CIL library: CIL module
 0001:000ab8e0       _Type_Chromaticity_Dup     100ac8e0 f    CIL library: CIL module
 0001:000ab900       _Type_ColorantOrderType_Read 100ac900 f    CIL library: CIL module
 0001:000ab9d0       _Type_ColorantOrderType_Write 100ac9d0 f    CIL library: CIL module
 0001:000aba60       _Type_ColorantOrderType_Dup 100aca60 f    CIL library: CIL module
 0001:000aba80       _Type_S15Fixed16_Read      100aca80 f    CIL library: CIL module
 0001:000abb90       _Type_S15Fixed16_Write     100acb90 f    CIL library: CIL module
 0001:000abc30       _Type_U16Fixed16_Read      100acc30 f    CIL library: CIL module
 0001:000abcf0       _Type_U16Fixed16_Write     100accf0 f    CIL library: CIL module
 0001:000abdb0       _Type_U16Fixed16_Dup       100acdb0 f    CIL library: CIL module
 0001:000abdb0       _Type_S15Fixed16_Dup       100acdb0 f    CIL library: CIL module
 0001:000abde0       _Type_Signature_Read       100acde0 f    CIL library: CIL module
 0001:000abe50       _Type_Signature_Write      100ace50 f    CIL library: CIL module
 0001:000abea0       _Type_Signature_Dup        100acea0 f    CIL library: CIL module
 0001:000abed0       _Type_Text_Read            100aced0 f    CIL library: CIL module
 0001:000abfd0       _Type_Text_Write           100acfd0 f    CIL library: CIL module
 0001:000ac070       _DecideTextType            100ad070 f    CIL library: CIL module
 0001:000ac090       _Type_Data_Read            100ad090 f    CIL library: CIL module
 0001:000ac140       _Type_Data_Write           100ad140 f    CIL library: CIL module
 0001:000ac1b0       _Type_Data_Dup             100ad1b0 f    CIL library: CIL module
 0001:000ac1d0       _Type_Text_Description_Read 100ad1d0 f    CIL library: CIL module
 0001:000ac3f0       _Type_Text_Description_Write 100ad3f0 f    CIL library: CIL module
 0001:000ac640       _Type_MLU_Dup              100ad640 f    CIL library: CIL module
 0001:000ac640       _Type_Text_Description_Dup 100ad640 f    CIL library: CIL module
 0001:000ac640       _Type_CrdInfo_Dup          100ad640 f    CIL library: CIL module
 0001:000ac640       _Type_Text_Dup             100ad640 f    CIL library: CIL module
 0001:000ac650       _DecideTextDescType        100ad650 f    CIL library: CIL module
 0001:000ac670       _Type_Curve_Read           100ad670 f    CIL library: CIL module
 0001:000ac7c0       _Type_Curve_Write          100ad7c0 f    CIL library: CIL module
 0001:000ac8f0       _Type_Curve_Free           100ad8f0 f    CIL library: CIL module
 0001:000ac8f0       _Type_ParametricCurve_Free 100ad8f0 f    CIL library: CIL module
 0001:000ac900       _DecideCurveType           100ad900 f    CIL library: CIL module
 0001:000ac950       _Type_ParametricCurve_Read 100ad950 f    CIL library: CIL module
 0001:000aca80       _Type_ParametricCurve_Write 100ada80 f    CIL library: CIL module
 0001:000acb80       _Type_Curve_Dup            100adb80 f    CIL library: CIL module
 0001:000acb80       _Type_ParametricCurve_Dup  100adb80 f    CIL library: CIL module
 0001:000acbb0       _Type_DateTime_Read        100adbb0 f    CIL library: CIL module
 0001:000acc40       _Type_DateTime_Write       100adc40 f    CIL library: CIL module
 0001:000acc90       _Type_DateTime_Dup         100adc90 f    CIL library: CIL module
 0001:000accb0       _Type_Measurement_Read     100adcb0 f    CIL library: CIL module
 0001:000acdb0       _Type_Measurement_Write    100addb0 f    CIL library: CIL module
 0001:000acea0       _Type_Measurement_Dup      100adea0 f    CIL library: CIL module
 0001:000acec0       _Type_MLU_Read             100adec0 f    CIL library: CIL module
 0001:000ad0e0       _Type_MLU_Write            100ae0e0 f    CIL library: CIL module
 0001:000ad2f0       _DecideLUTtypeA2B          100ae2f0 f    CIL library: CIL module
 0001:000ad320       _DecideLUTtypeB2A          100ae320 f    CIL library: CIL module
 0001:000ad350       _Read8bitTables            100ae350 f    CIL library: CIL module
 0001:000ad530       _Write8bitTables           100ae530 f    CIL library: CIL module
 0001:000ad640       _uipow                     100ae640 f    CIL library: CIL module
 0001:000ad690       _Type_LUT8_Read            100ae690 f    CIL library: CIL module
 0001:000ada20       _Type_LUT8_Write           100aea20 f    CIL library: CIL module
 0001:000adde0       _Read16bitTables           100aede0 f    CIL library: CIL module
 0001:000adf00       _Write16bitTables          100aef00 f    CIL library: CIL module
 0001:000adf90       _Type_LUT16_Read           100aef90 f    CIL library: CIL module
 0001:000ae370       _Type_LUT16_Write          100af370 f    CIL library: CIL module
 0001:000ae7f0       _ReadMatrix                100af7f0 f    CIL library: CIL module
 0001:000ae920       _ReadCLUT                  100af920 f    CIL library: CIL module
 0001:000aeac0       _ReadEmbeddedCurve         100afac0 f    CIL library: CIL module
 0001:000aebb0       _ReadSetOfCurves           100afbb0 f    CIL library: CIL module
 0001:000aec90       _Type_LUTA2B_Read          100afc90 f    CIL library: CIL module
 0001:000aefc0       _WriteMatrix               100affc0 f    CIL library: CIL module
 0001:000af140       _WriteSetOfCurves          100b0140 f    CIL library: CIL module
 0001:000af330       _WriteCLUT                 100b0330 f    CIL library: CIL module
 0001:000af510       _Type_LUTA2B_Write         100b0510 f    CIL library: CIL module
 0001:000af8a0       _Type_MPE_Dup              100b08a0 f    CIL library: CIL module
 0001:000af8a0       _Type_LUT8_Dup             100b08a0 f    CIL library: CIL module
 0001:000af8a0       _Type_LUT16_Dup            100b08a0 f    CIL library: CIL module
 0001:000af8a0       _Type_LUTA2B_Dup           100b08a0 f    CIL library: CIL module
 0001:000af8a0       _Type_LUTB2A_Dup           100b08a0 f    CIL library: CIL module
 0001:000af8b0       _Type_LUT8_Free            100b08b0 f    CIL library: CIL module
 0001:000af8b0       _Type_LUTA2B_Free          100b08b0 f    CIL library: CIL module
 0001:000af8b0       _Type_LUTB2A_Free          100b08b0 f    CIL library: CIL module
 0001:000af8b0       _Type_LUT16_Free           100b08b0 f    CIL library: CIL module
 0001:000af8b0       _Type_MPE_Free             100b08b0 f    CIL library: CIL module
 0001:000af8c0       _Type_LUTB2A_Read          100b08c0 f    CIL library: CIL module
 0001:000afbf0       _Type_LUTB2A_Write         100b0bf0 f    CIL library: CIL module
 0001:000aff70       _Type_ColorantTable_Read   100b0f70 f    CIL library: CIL module
 0001:000b00e0       _Type_ColorantTable_Write  100b10e0 f    CIL library: CIL module
 0001:000b0200       _Type_ColorantTable_Dup    100b1200 f    CIL library: CIL module
 0001:000b0200       _Type_NamedColor_Dup       100b1200 f    CIL library: CIL module
 0001:000b0210       _Type_NamedColor_Read      100b1210 f    CIL library: CIL module
 0001:000b0480       _Type_NamedColor_Write     100b1480 f    CIL library: CIL module
 0001:000b06d0       _Type_NamedColor_Free      100b16d0 f    CIL library: CIL module
 0001:000b06d0       _Type_ColorantTable_Free   100b16d0 f    CIL library: CIL module
 0001:000b0710       _ReadEmbeddedText          100b1710 f    CIL library: CIL module
 0001:000b0820       _Type_ProfileSequenceDesc_Read 100b1820 f    CIL library: CIL module
 0001:000b09d0       _SaveDescription           100b19d0 f    CIL library: CIL module
 0001:000b0ab0       _Type_ProfileSequenceDesc_Write 100b1ab0 f    CIL library: CIL module
 0001:000b0c30       _Type_ProfileSequenceId_Dup 100b1c30 f    CIL library: CIL module
 0001:000b0c30       _Type_ProfileSequenceDesc_Dup 100b1c30 f    CIL library: CIL module
 0001:000b0c40       _Type_ProfileSequenceDesc_Free 100b1c40 f    CIL library: CIL module
 0001:000b0c40       _Type_ProfileSequenceId_Free 100b1c40 f    CIL library: CIL module
 0001:000b0c50       _ReadSeqID                 100b1c50 f    CIL library: CIL module
 0001:000b0cb0       _Type_ProfileSequenceId_Read 100b1cb0 f    CIL library: CIL module
 0001:000b0d60       _WriteSeqID                100b1d60 f    CIL library: CIL module
 0001:000b0db0       _Type_ProfileSequenceId_Write 100b1db0 f    CIL library: CIL module
 0001:000b0e30       _Type_UcrBg_Read           100b1e30 f    CIL library: CIL module
 0001:000b0ff0       _Type_UcrBg_Write          100b1ff0 f    CIL library: CIL module
 0001:000b1130       _Type_UcrBg_Dup            100b2130 f    CIL library: CIL module
 0001:000b11d0       _Type_UcrBg_Free           100b21d0 f    CIL library: CIL module
 0001:000b1240       _ReadCountAndSting         100b2240 f    CIL library: CIL module
 0001:000b1330       _WriteCountAndSting        100b2330 f    CIL library: CIL module
 0001:000b1430       _Type_CrdInfo_Read         100b2430 f    CIL library: CIL module
 0001:000b1560       _Type_CrdInfo_Write        100b2560 f    CIL library: CIL module
 0001:000b15e0       _Type_Text_Description_Free 100b25e0 f    CIL library: CIL module
 0001:000b15e0       _Type_MLU_Free             100b25e0 f    CIL library: CIL module
 0001:000b15e0       _Type_Text_Free            100b25e0 f    CIL library: CIL module
 0001:000b15e0       _Type_CrdInfo_Free         100b25e0 f    CIL library: CIL module
 0001:000b1630       _Type_Screening_Read       100b2630 f    CIL library: CIL module
 0001:000b1740       _Type_Screening_Write      100b2740 f    CIL library: CIL module
 0001:000b18f0       _Type_ViewingConditions_Read 100b28f0 f    CIL library: CIL module
 0001:000b1980       _Type_ViewingConditions_Write 100b2980 f    CIL library: CIL module
 0001:000b1a00       _Type_Screening_Dup        100b2a00 f    CIL library: CIL module
 0001:000b1a00       _Type_ViewingConditions_Dup 100b2a00 f    CIL library: CIL module
 0001:000b1a20       _GenericMPEdup             100b2a20 f    CIL library: CIL module
 0001:000b1a30       _GenericMPEfree            100b2a30 f    CIL library: CIL module
 0001:000b1a60       _ReadSegmentedCurve        100b2a60 f    CIL library: CIL module
 0001:000b1df0       _ReadMPECurve              100b2df0 f    CIL library: CIL module
 0001:000b1e20       _Type_MPEcurve_Read        100b2e20 f    CIL library: CIL module
 0001:000b1f50       _WriteSegmentedCurve       100b2f50 f    CIL library: CIL module
 0001:000b2300       _WriteMPECurve             100b3300 f    CIL library: CIL module
 0001:000b2320       _Type_MPEcurve_Write       100b3320 f    CIL library: CIL module
 0001:000b23d0       _Type_MPEmatrix_Read       100b33d0 f    CIL library: CIL module
 0001:000b2580       _Type_MPEmatrix_Write      100b3580 f    CIL library: CIL module
 0001:000b26f0       _Type_MPEclut_Read         100b36f0 f    CIL library: CIL module
 0001:000b28c0       _Type_MPEclut_Write        100b38c0 f    CIL library: CIL module
 0001:000b2a10       _ReadMPEElem               100b3a10 f    CIL library: CIL module
 0001:000b2b80       _Type_MPE_Read             100b3b80 f    CIL library: CIL module
 0001:000b2c80       _Type_MPE_Write            100b3c80 f    CIL library: CIL module
 0001:000b30a0       _Type_vcgt_Read            100b40a0 f    CIL library: CIL module
 0001:000b3410       _Type_vcgt_Write           100b4410 f    CIL library: CIL module
 0001:000b36f0       _Type_vcgt_Dup             100b46f0 f    CIL library: CIL module
 0001:000b37a0       _Type_vcgt_Free            100b47a0 f    CIL library: CIL module
 0001:000b3800       _AllocElem                 100b4800 f    CIL library: CIL module
 0001:000b3850       _FreeArray                 100b4850 f    CIL library: CIL module
 0001:000b3930       _AllocArray                100b4930 f    CIL library: CIL module
 0001:000b3a00       _ReadOneElem               100b4a00 f    CIL library: CIL module
 0001:000b3ac0       _ReadOffsetArray           100b4ac0 f    CIL library: CIL module
 0001:000b3c00       _WriteOneElem              100b4c00 f    CIL library: CIL module
 0001:000b3c90       _WriteOffsetArray          100b4c90 f    CIL library: CIL module
 0001:000b3d80       _ReadOneWChar              100b4d80 f    CIL library: CIL module
 0001:000b3e20       _WriteOneWChar             100b4e20 f    CIL library: CIL module
 0001:000b3ec0       _ReadOneMLUC               100b4ec0 f    CIL library: CIL module
 0001:000b3f30       _WriteOneMLUC              100b4f30 f    CIL library: CIL module
 0001:000b3fb0       _Type_Dictionary_Read      100b4fb0 f    CIL library: CIL module
 0001:000b4280       _Type_Dictionary_Write     100b5280 f    CIL library: CIL module
 0001:000b44f0       _Type_Dictionary_Dup       100b54f0 f    CIL library: CIL module
 0001:000b4500       _Type_Dictionary_Free      100b5500 f    CIL library: CIL module
 0001:000b4650       _ComputeKToLstar           100b5650 f    CIL library: CIL module
 0001:000b4840       _GamutSampler              100b5840 f    CIL library: CIL module
 0001:000b4d40       _EstimateTAC               100b5d40 f    CIL library: CIL module
 0001:000b4f60       _EvaluateIdentity          100b5f60 f    CIL library: CIL module
 0001:000b4f80       _FromFloatTo16             100b5f80 f    CIL library: CIL module
 0001:000b5150       _From16ToFloat             100b6150 f    CIL library: CIL module
 0001:000b5270       _EvaluateCurves            100b6270 f    CIL library: CIL module
 0001:000b5350       _CurveSetElemTypeFree      100b6350 f    CIL library: CIL module
 0001:000b53c0       _CurveSetDup               100b63c0 f    CIL library: CIL module
 0001:000b5600       _EvaluateMatrix            100b6600 f    CIL library: CIL module
 0001:000b56d0       _MatrixElemDup             100b66d0 f    CIL library: CIL module
 0001:000b5740       _MatrixElemTypeFree        100b6740 f    CIL library: CIL module
 0001:000b59a0       _EvaluateCLUTfloat         100b69a0 f    CIL library: CIL module
 0001:000b59c0       _EvaluateCLUTfloatIn16     100b69c0 f    CIL library: CIL module
 0001:000b5a30       _CubeSize                  100b6a30 f    CIL library: CIL module
 0001:000b5a70       _CLUTElemDup               100b6a70 f    CIL library: CIL module
 0001:000b5b20       _CLutElemTypeFree          100b6b20 f    CIL library: CIL module
 0001:000b5fb0       _IdentitySampler           100b6fb0 f    CIL library: CIL module
 0001:000b65d0       _EvaluateLab2XYZ           100b75d0 f    CIL library: CIL module
 0001:000b6710       _EvaluateXYZ2Lab           100b7710 f    CIL library: CIL module
 0001:000b68b0       _BlessLUT                  100b78b0 f    CIL library: CIL module
 0001:000b68e0       __LUTeval16                100b78e0 f    CIL library: CIL module
 0001:000b6990       __LUTevalFloat             100b7990 f    CIL library: CIL module
 0001:000b7080       __Remove1Op                100b8080 f    CIL library: CIL module
 0001:000b70d0       __Remove2Op                100b80d0 f    CIL library: CIL module
 0001:000b7150       _PreOptimize               100b8150 f    CIL library: CIL module
 0001:000b71f0       _Eval16nop1D               100b81f0 f    CIL library: CIL module
 0001:000b7210       _PrelinEval16              100b8210 f    CIL library: CIL module
 0001:000b72e0       _PrelinOpt16free           100b82e0 f    CIL library: CIL module
 0001:000b7320       _Prelin16dup               100b8320 f    CIL library: CIL module
 0001:000b7380       _PrelinOpt16alloc          100b8380 f    CIL library: CIL module
 0001:000b7460       _XFormSampler16            100b8460 f    CIL library: CIL module
 0001:000b75c0       _AllCurvesAreLinear        100b85c0 f    CIL library: CIL module
 0001:000b76e0       _PatchLUT                  100b86e0 f    CIL library: CIL module
 0001:000b7a70       _WhitesAreEqual            100b8a70 f    CIL library: CIL module
 0001:000b7ad0       _FixWhiteMisalignment      100b8ad0 f    CIL library: CIL module
 0001:000b7da0       _OptimizeByResampling      100b8da0 f    CIL library: CIL module
 0001:000b81d0       _SlopeLimiting             100b91d0 f    CIL library: CIL module
 0001:000b84f0       _PrelinOpt8alloc           100b94f0 f    CIL library: CIL module
 0001:000b86a0       _FreeMatShaper             100b96a0 f    CIL library: CIL module
 0001:000b86a0       _Prelin8free               100b96a0 f    CIL library: CIL module
 0001:000b86c0       _Prelin8dup                100b96c0 f    CIL library: CIL module
 0001:000b86e0       _PrelinEval8               100b96e0 f    CIL library: CIL module
 0001:000b89a0       _IsDegenerated             100b99a0 f    CIL library: CIL module
 0001:000b8a10       _OptimizeByComputingLinearization 100b9a10 f    CIL library: CIL module
 0001:000b9090       _CurvesFree                100ba090 f    CIL library: CIL module
 0001:000b90e0       _CurvesDup                 100ba0e0 f    CIL library: CIL module
 0001:000b9150       _CurvesAlloc               100ba150 f    CIL library: CIL module
 0001:000b92c0       _FastEvaluateCurves8       100ba2c0 f    CIL library: CIL module
 0001:000b9300       _FastEvaluateCurves16      100ba300 f    CIL library: CIL module
 0001:000b9340       _FastIdentity16            100ba340 f    CIL library: CIL module
 0001:000b9370       _OptimizeByJoiningCurves   100ba370 f    CIL library: CIL module
 0001:000b9790       _DupMatShaper              100ba790 f    CIL library: CIL module
 0001:000b97b0       _MatShaperEval16           100ba7b0 f    CIL library: CIL module
 0001:000b98f0       _FillFirstShaper           100ba8f0 f    CIL library: CIL module
 0001:000b99f0       _FillSecondShaper          100ba9f0 f    CIL library: CIL module
 0001:000b9b90       _SetMatShaper              100bab90 f    CIL library: CIL module
 0001:000b9d10       _OptimizeMatrixShaper      100bad10 f    CIL library: CIL module
 0001:000ba0b0       _GrowMLUtable              100bb0b0 f    CIL library: CIL module
 0001:000ba100       _AddMLUBlock               100bb100 f    CIL library: CIL module
 0001:000ba500       __cmsMLUgetWide            100bb500 f    CIL library: CIL module
 0001:000ba6c0       _GrowNamedColorList        100bb6c0 f    CIL library: CIL module
 0001:000baa50       _FreeNamedColorList        100bba50 f    CIL library: CIL module
 0001:000baa90       _DupNamedColorList         100bba90 f    CIL library: CIL module
 0001:000baab0       _EvalNamedColorPCS         100bbab0 f    CIL library: CIL module
 0001:000bab90       _EvalNamedColor            100bbb90 f    CIL library: CIL module
 0001:000bb1d0       _UnrollChunkyBytes         100bc1d0 f    CIL library: CIL module
 0001:000bb2b0       _UnrollPlanarBytes         100bc2b0 f    CIL library: CIL module
 0001:000bb360       _Unroll4Bytes              100bc360 f    CIL library: CIL module
 0001:000bb3b0       _Unroll4BytesReverse       100bc3b0 f    CIL library: CIL module
 0001:000bb410       _Unroll4BytesSwapFirst     100bc410 f    CIL library: CIL module
 0001:000bb460       _Unroll4BytesSwap          100bc460 f    CIL library: CIL module
 0001:000bb4b0       _Unroll4BytesSwapSwapFirst 100bc4b0 f    CIL library: CIL module
 0001:000bb500       _Unroll3Bytes              100bc500 f    CIL library: CIL module
 0001:000bb540       _Unroll3BytesSkip1Swap     100bc540 f    CIL library: CIL module
 0001:000bb580       _Unroll3BytesSkip1SwapSwapFirst 100bc580 f    CIL library: CIL module
 0001:000bb5c0       _Unroll3BytesSkip1SwapFirst 100bc5c0 f    CIL library: CIL module
 0001:000bb600       _Unroll3BytesSwap          100bc600 f    CIL library: CIL module
 0001:000bb640       _UnrollLabV2_8             100bc640 f    CIL library: CIL module
 0001:000bb6e0       _UnrollALabV2_8            100bc6e0 f    CIL library: CIL module
 0001:000bb780       _UnrollLabV2_16            100bc780 f    CIL library: CIL module
 0001:000bb800       _Unroll2Bytes              100bc800 f    CIL library: CIL module
 0001:000bb830       _Unroll1Byte               100bc830 f    CIL library: CIL module
 0001:000bb860       _Unroll1ByteSkip1          100bc860 f    CIL library: CIL module
 0001:000bb890       _Unroll1ByteSkip2          100bc890 f    CIL library: CIL module
 0001:000bb8c0       _Unroll1ByteReversed       100bc8c0 f    CIL library: CIL module
 0001:000bb900       _UnrollAnyWords            100bc900 f    CIL library: CIL module
 0001:000bba00       _UnrollPlanarWords         100bca00 f    CIL library: CIL module
 0001:000bbac0       _Unroll4Words              100bcac0 f    CIL library: CIL module
 0001:000bbaf0       _Unroll4WordsReverse       100bcaf0 f    CIL library: CIL module
 0001:000bbb30       _Unroll4WordsSwapFirst     100bcb30 f    CIL library: CIL module
 0001:000bbb60       _Unroll4WordsSwap          100bcb60 f    CIL library: CIL module
 0001:000bbb90       _Unroll4WordsSwapSwapFirst 100bcb90 f    CIL library: CIL module
 0001:000bbbc0       _Unroll3Words              100bcbc0 f    CIL library: CIL module
 0001:000bbbf0       _Unroll3WordsSwap          100bcbf0 f    CIL library: CIL module
 0001:000bbc20       _Unroll3WordsSkip1Swap     100bcc20 f    CIL library: CIL module
 0001:000bbc50       _Unroll3WordsSkip1SwapFirst 100bcc50 f    CIL library: CIL module
 0001:000bbc80       _Unroll1Word               100bcc80 f    CIL library: CIL module
 0001:000bbca0       _Unroll1WordReversed       100bcca0 f    CIL library: CIL module
 0001:000bbcd0       _Unroll1WordSkip3          100bccd0 f    CIL library: CIL module
 0001:000bbcf0       _Unroll2Words              100bccf0 f    CIL library: CIL module
 0001:000bbd10       _UnrollLabDoubleTo16       100bcd10 f    CIL library: CIL module
 0001:000bbd70       _UnrollLabFloatTo16        100bcd70 f    CIL library: CIL module
 0001:000bbde0       _UnrollXYZDoubleTo16       100bcde0 f    CIL library: CIL module
 0001:000bbe40       _UnrollDoubleTo16          100bce40 f    CIL library: CIL module
 0001:000bc300       _UnrollFloatTo16           100bd300 f    CIL library: CIL module
 0001:000bc7a0       _UnrollDouble1Chan         100bd7a0 f    CIL library: CIL module
 0001:000bc820       _UnrollFloatsToFloat       100bd820 f    CIL library: CIL module
 0001:000bcb20       _UnrollDoublesToFloat      100bdb20 f    CIL library: CIL module
 0001:000bce20       _UnrollLabDoubleToFloat    100bde20 f    CIL library: CIL module
 0001:000bcea0       _UnrollLabFloatToFloat     100bdea0 f    CIL library: CIL module
 0001:000bcf20       _UnrollXYZDoubleToFloat    100bdf20 f    CIL library: CIL module
 0001:000bcf80       _UnrollXYZFloatToFloat     100bdf80 f    CIL library: CIL module
 0001:000bcfe0       _PackAnyBytes              100bdfe0 f    CIL library: CIL module
 0001:000bd0c0       _PackAnyWords              100be0c0 f    CIL library: CIL module
 0001:000bd1c0       _PackPlanarBytes           100be1c0 f    CIL library: CIL module
 0001:000bd270       _PackPlanarWords           100be270 f    CIL library: CIL module
 0001:000bd320       _Pack6Bytes                100be320 f    CIL library: CIL module
 0001:000bd3b0       _Pack6BytesSwap            100be3b0 f    CIL library: CIL module
 0001:000bd440       _Pack6Words                100be440 f    CIL library: CIL module
 0001:000bd480       _Pack6WordsSwap            100be480 f    CIL library: CIL module
 0001:000bd4c0       _Pack4Bytes                100be4c0 f    CIL library: CIL module
 0001:000bd530       _Pack4BytesReverse         100be530 f    CIL library: CIL module
 0001:000bd5b0       _Pack4BytesSwapFirst       100be5b0 f    CIL library: CIL module
 0001:000bd620       _Pack4BytesSwap            100be620 f    CIL library: CIL module
 0001:000bd690       _Pack4BytesSwapSwapFirst   100be690 f    CIL library: CIL module
 0001:000bd700       _Pack4Words                100be700 f    CIL library: CIL module
 0001:000bd730       _Pack4WordsReverse         100be730 f    CIL library: CIL module
 0001:000bd770       _Pack4WordsSwap            100be770 f    CIL library: CIL module
 0001:000bd7a0       _Pack4WordsBigEndian       100be7a0 f    CIL library: CIL module
 0001:000bd7e0       _PackLabV2_8               100be7e0 f    CIL library: CIL module
 0001:000bd880       _PackALabV2_8              100be880 f    CIL library: CIL module
 0001:000bd920       _PackLabV2_16              100be920 f    CIL library: CIL module
 0001:000bd990       _Pack3Bytes                100be990 f    CIL library: CIL module
 0001:000bd9e0       _Pack3BytesOptimized       100be9e0 f    CIL library: CIL module
 0001:000bda00       _Pack3BytesSwap            100bea00 f    CIL library: CIL module
 0001:000bda50       _Pack3BytesSwapOptimized   100bea50 f    CIL library: CIL module
 0001:000bda70       _Pack3Words                100bea70 f    CIL library: CIL module
 0001:000bdaa0       _Pack3WordsSwap            100beaa0 f    CIL library: CIL module
 0001:000bdad0       _Pack3WordsBigEndian       100bead0 f    CIL library: CIL module
 0001:000bdb00       _Pack3BytesAndSkip1        100beb00 f    CIL library: CIL module
 0001:000bdb50       _Pack3BytesAndSkip1Optimized 100beb50 f    CIL library: CIL module
 0001:000bdb70       _Pack3BytesAndSkip1SwapFirst 100beb70 f    CIL library: CIL module
 0001:000bdbc0       _Pack3BytesAndSkip1SwapFirstOptimized 100bebc0 f    CIL library: CIL module
 0001:000bdbf0       _Pack3BytesAndSkip1Swap    100bebf0 f    CIL library: CIL module
 0001:000bdc40       _Pack3BytesAndSkip1SwapOptimized 100bec40 f    CIL library: CIL module
 0001:000bdc70       _Pack3BytesAndSkip1SwapSwapFirst 100bec70 f    CIL library: CIL module
 0001:000bdcc0       _Pack3BytesAndSkip1SwapSwapFirstOptimized 100becc0 f    CIL library: CIL module
 0001:000bdce0       _Pack3WordsAndSkip1        100bece0 f    CIL library: CIL module
 0001:000bdd10       _Pack3WordsAndSkip1Swap    100bed10 f    CIL library: CIL module
 0001:000bdd40       _Pack3WordsAndSkip1SwapFirst 100bed40 f    CIL library: CIL module
 0001:000bdd70       _Pack3WordsAndSkip1SwapSwapFirst 100bed70 f    CIL library: CIL module
 0001:000bdda0       _Pack1Byte                 100beda0 f    CIL library: CIL module
 0001:000bddc0       _Pack1ByteReversed         100bedc0 f    CIL library: CIL module
 0001:000bddf0       _Pack1ByteSkip1            100bedf0 f    CIL library: CIL module
 0001:000bde20       _Pack1ByteSkip1SwapFirst   100bee20 f    CIL library: CIL module
 0001:000bde50       _Pack1Word                 100bee50 f    CIL library: CIL module
 0001:000bde70       _Pack1WordReversed         100bee70 f    CIL library: CIL module
 0001:000bde90       _Pack1WordBigEndian        100bee90 f    CIL library: CIL module
 0001:000bdeb0       _Pack1WordSkip1            100beeb0 f    CIL library: CIL module
 0001:000bded0       _Pack1WordSkip1SwapFirst   100beed0 f    CIL library: CIL module
 0001:000bdef0       _PackLabDoubleFrom16       100beef0 f    CIL library: CIL module
 0001:000bdfb0       _PackLabFloatFrom16        100befb0 f    CIL library: CIL module
 0001:000be040       _PackXYZDoubleFrom16       100bf040 f    CIL library: CIL module
 0001:000be0b0       _PackDoubleFrom16          100bf0b0 f    CIL library: CIL module
 0001:000be3f0       _PackFloatFrom16           100bf3f0 f    CIL library: CIL module
 0001:000be740       _PackFloatsFromFloat       100bf740 f    CIL library: CIL module
 0001:000bea60       _PackDoublesFromFloat      100bfa60 f    CIL library: CIL module
 0001:000bed70       _PackLabFloatFromFloat     100bfd70 f    CIL library: CIL module
 0001:000bede0       _PackLabDoubleFromFloat    100bfde0 f    CIL library: CIL module
 0001:000bee70       _PackXYZFloatFromFloat     100bfe70 f    CIL library: CIL module
 0001:000beed0       _PackXYZDoubleFromFloat    100bfed0 f    CIL library: CIL module
 0001:000bef50       _UnrollHalfTo16            100bff50 f    CIL library: CIL module
 0001:000bf4b0       _UnrollHalfToFloat         100c04b0 f    CIL library: CIL module
 0001:000bf870       _PackHalfFrom16            100c0870 f    CIL library: CIL module
 0001:000bfcf0       _PackHalfFromFloat         100c0cf0 f    CIL library: CIL module
 0001:000c02d0       _L2Fix4                    100c12d0 f    CIL library: CIL module
 0001:000c0330       _ab2Fix4                   100c1330 f    CIL library: CIL module
 0001:000c0450       _XYZ2Fix                   100c1450 f    CIL library: CIL module
 0001:000c0d40       _ReadICCMatrixRGB2XYZ      100c1d40 f    CIL library: CIL module
 0001:000c0dd0       _BuildGrayInputMatrixPipeline 100c1dd0 f    CIL library: CIL module
 0001:000c1030       _BuildRGBInputMatrixShaper 100c2030 f    CIL library: CIL module
 0001:000c12b0       __cmsReadFloatInputTag     100c22b0 f    CIL library: CIL module
 0001:000c16d0       _BuildGrayOutputPipeline   100c26d0 f    CIL library: CIL module
 0001:000c18a0       _BuildRGBOutputMatrixShaper 100c28a0 f    CIL library: CIL module
 0001:000c1b30       _ChangeInterpolationToTrilinear 100c2b30 f    CIL library: CIL module
 0001:000c1ba0       __cmsReadFloatOutputTag    100c2ba0 f    CIL library: CIL module
 0001:000c1ed0       __cmsReadFloatDevicelinkTag 100c2ed0 f    CIL library: CIL module
 0001:000c24f0       _ComputeBlackPointCompensation 100c34f0 f    CIL library: CIL module
 0001:000c2590       _CHAD2Temp                 100c3590 f    CIL library: CIL module
 0001:000c2660       _Temp2CHAD                 100c3660 f    CIL library: CIL module
 0001:000c26c0       _ComputeAbsoluteIntent     100c36c0 f    CIL library: CIL module
 0001:000c2900       _IsEmptyLayer              100c3900 f    CIL library: CIL module
 0001:000c29d0       _ComputeConversion         100c39d0 f    CIL library: CIL module
 0001:000c2b20       _AddConversion             100c3b20 f    CIL library: CIL module
 0001:000c2e70       _ColorSpaceIsCompatible    100c3e70 f    CIL library: CIL module
 0001:000c2ed0       _DefaultICCintents         100c3ed0 f    CIL library: CIL module
 0001:000c31f0       _BlackPreservingGrayOnlySampler 100c41f0 f    CIL library: CIL module
 0001:000c3270       _BlackPreservingKOnlyIntents 100c4270 f    CIL library: CIL module
 0001:000c34f0       _BlackPreservingSampler    100c44f0 f    CIL library: CIL module
 0001:000c3ab0       _BlackPreservingKPlaneIntents 100c4ab0 f    CIL library: CIL module
 0001:000c4360       _LinLerp1D                 100c5360 f    CIL library: CIL module
 0001:000c43e0       _LinLerp1Dfloat            100c53e0 f    CIL library: CIL module
 0001:000c4480       _Eval1Input                100c5480 f    CIL library: CIL module
 0001:000c4520       _Eval1InputFloat           100c5520 f    CIL library: CIL module
 0001:000c45e0       _BilinearInterpFloat       100c55e0 f    CIL library: CIL module
 0001:000c4930       _BilinearInterp16          100c5930 f    CIL library: CIL module
 0001:000c4ab0       _TrilinearInterpFloat      100c5ab0 f    CIL library: CIL module
 0001:000c4df0       _TrilinearInterp16         100c5df0 f    CIL library: CIL module
 0001:000c5080       _TetrahedralInterpFloat    100c6080 f    CIL library: CIL module
 0001:000c5530       _TetrahedralInterp16       100c6530 f    CIL library: CIL module
 0001:000c5980       _Eval4Inputs               100c6980 f    CIL library: CIL module
 0001:000c6270       _Eval4InputsFloat          100c7270 f    CIL library: CIL module
 0001:000c63d0       _Eval5Inputs               100c73d0 f    CIL library: CIL module
 0001:000c6520       _Eval5InputsFloat          100c7520 f    CIL library: CIL module
 0001:000c6680       _Eval6Inputs               100c7680 f    CIL library: CIL module
 0001:000c67d0       _Eval6InputsFloat          100c77d0 f    CIL library: CIL module
 0001:000c6930       _Eval7Inputs               100c7930 f    CIL library: CIL module
 0001:000c6a80       _Eval7InputsFloat          100c7a80 f    CIL library: CIL module
 0001:000c6be0       _Eval8Inputs               100c7be0 f    CIL library: CIL module
 0001:000c6d30       _Eval8InputsFloat          100c7d30 f    CIL library: CIL module
 0001:000c6e90       _DefaultInterpolatorsFactory 100c7e90 f    CIL library: CIL module
 0001:000c6fe0       _CreateRoundtripXForm      100c7fe0 f    CIL library: CIL module
 0001:000c7090       _BlackPointAsDarkerColorant 100c8090 f    CIL library: CIL module
 0001:000c7280       _BlackPointUsingPerceptualBlack 100c8280 f    CIL library: CIL module
 0001:000c7460       _RootOfLeastSquaresFitQuadraticCurve 100c8460 f    CIL library: CIL module
 0001:000c8460       ?_tiffFileCloseProc@@YAHPAX@Z 100c9460 f    CIL library: CIL module
 0001:000c8460       __tiffDummyMapProc         100c9460 f    CIL library: CIL module
 0001:000c8460       _jpc_dec_process_com       100c9460 f    CIL library: CIL module
 0001:000c8460       _dummy_consume_data        100c9460 f    CIL library: CIL module
 0001:000c8460       ?_tiffDummyMapProc@@YAHPAXPAPAXPA_K@Z 100c9460 f    CIL library: CIL module
 0001:000c8460       _jpc_dec_process_crg       100c9460 f    CIL library: CIL module
 0001:000c8460       ?iJp2_file_close@@YAHPAX@Z 100c9460 f    CIL library: CIL module
 0001:000c8460       ?_tiffFileReadProcW@@YAHPAX0H@Z 100c9460 f    CIL library: CIL module
 0001:000c9150       _TIFFGrowStrips            100ca150 f    CIL library: CIL module
 0001:000c9210       _TIFFAppendToStrip         100ca210 f    CIL library: CIL module
 0001:000c94f0       _setByteArray              100ca4f0 f    CIL library: CIL module
 0001:000c9690       _setDoubleArrayOneValue    100ca690 f    CIL library: CIL module
 0001:000c96d0       _setExtraSamples           100ca6d0 f    CIL library: CIL module
 0001:000c9790       _checkInkNamesString       100ca790 f    CIL library: CIL module
 0001:000c97f0       __TIFFVSetField            100ca7f0 f    CIL library: CIL module
 0001:000ca620       _OkToChangeTag             100cb620 f    CIL library: CIL module
 0001:000ca6f0       __TIFFVGetField            100cb6f0 f    CIL library: CIL module
 0001:000cb300       _TIFFAdvanceDirectory      100cc300 f    CIL library: CIL module
 0001:000cbb40       _isCCITTCompression        100ccb40 f    CIL library: CIL module
 0001:000cc280       _setorientation            100cd280 f    CIL library: CIL module
 0001:000cc360       _gtTileContig              100cd360 f    CIL library: CIL module
 0001:000cc7e0       _gtTileSeparate            100cd7e0 f    CIL library: CIL module
 0001:000ccdd0       _gtStripContig             100cddd0 f    CIL library: CIL module
 0001:000cd100       _gtStripSeparate           100ce100 f    CIL library: CIL module
 0001:000cd630       _put8bitcmaptile           100ce630 f    CIL library: CIL module
 0001:000cd690       _put4bitcmaptile           100ce690 f    CIL library: CIL module
 0001:000cd730       _put2bitcmaptile           100ce730 f    CIL library: CIL module
 0001:000cd800       _put1bitcmaptile           100ce800 f    CIL library: CIL module
 0001:000cd930       _putgreytile               100ce930 f    CIL library: CIL module
 0001:000cd990       _putagreytile              100ce990 f    CIL library: CIL module
 0001:000cda10       _put16bitbwtile            100cea10 f    CIL library: CIL module
 0001:000cdae0       _put1bitbwtile             100ceae0 f    CIL library: CIL module
 0001:000cdc10       _put2bitbwtile             100cec10 f    CIL library: CIL module
 0001:000cdce0       _put4bitbwtile             100cece0 f    CIL library: CIL module
 0001:000cdd80       _putRGBcontig8bittile      100ced80 f    CIL library: CIL module
 0001:000ce030       _putRGBAAcontig8bittile    100cf030 f    CIL library: CIL module
 0001:000ce310       _putRGBUAcontig8bittile    100cf310 f    CIL library: CIL module
 0001:000ce3b0       _putRGBcontig16bittile     100cf3b0 f    CIL library: CIL module
 0001:000ce450       _putRGBAAcontig16bittile   100cf450 f    CIL library: CIL module
 0001:000ce4f0       _putRGBUAcontig16bittile   100cf4f0 f    CIL library: CIL module
 0001:000ce5b0       _putRGBcontig8bitCMYKtile  100cf5b0 f    CIL library: CIL module
 0001:000cefb0       _putRGBcontig8bitCMYKMaptile 100cffb0 f    CIL library: CIL module
 0001:000cf0f0       _putRGBseparate8bittile    100d00f0 f    CIL library: CIL module
 0001:000cf390       _putRGBAAseparate8bittile  100d0390 f    CIL library: CIL module
 0001:000cf6d0       _putCMYKseparate8bittile   100d06d0 f    CIL library: CIL module
 0001:000cf7c0       _putRGBUAseparate8bittile  100d07c0 f    CIL library: CIL module
 0001:000cf880       _putRGBseparate16bittile   100d0880 f    CIL library: CIL module
 0001:000cf920       _putRGBAAseparate16bittile 100d0920 f    CIL library: CIL module
 0001:000cf9d0       _putRGBUAseparate16bittile 100d09d0 f    CIL library: CIL module
 0001:000cfac0       _putcontig8bitCIELab       100d0ac0 f    CIL library: CIL module
 0001:000cfba0       _putcontig8bitYCbCr44tile  100d0ba0 f    CIL library: CIL module
 0001:000d05a0       _putcontig8bitYCbCr42tile  100d15a0 f    CIL library: CIL module
 0001:000d0ac0       _putcontig8bitYCbCr41tile  100d1ac0 f    CIL library: CIL module
 0001:000d0ce0       _putcontig8bitYCbCr22tile  100d1ce0 f    CIL library: CIL module
 0001:000d0fe0       _putcontig8bitYCbCr21tile  100d1fe0 f    CIL library: CIL module
 0001:000d1110       _putcontig8bitYCbCr12tile  100d2110 f    CIL library: CIL module
 0001:000d1270       _putcontig8bitYCbCr11tile  100d2270 f    CIL library: CIL module
 0001:000d13a0       _putseparate8bitYCbCr11tile 100d23a0 f    CIL library: CIL module
 0001:000d14e0       _initYCbCrConversion       100d24e0 f    CIL library: CIL module
 0001:000d1570       _initCIELabConversion      100d2570 f    CIL library: CIL module
 0001:000d1650       _makebwmap                 100d2650 f    CIL library: CIL module
 0001:000d1900       _setupMap                  100d2900 f    CIL library: CIL module
 0001:000d19e0       _checkcmap                 100d29e0 f    CIL library: CIL module
 0001:000d1a40       _cvtcmap                   100d2a40 f    CIL library: CIL module
 0001:000d1a90       _makecmap                  100d2a90 f    CIL library: CIL module
 0001:000d1f20       _buildMap                  100d2f20 f    CIL library: CIL module
 0001:000d1fb0       _PickContigCase            100d2fb0 f    CIL library: CIL module
 0001:000d2350       _PickSeparateCase          100d3350 f    CIL library: CIL module
 0001:000d24e0       _BuildMapUaToAa            100d34e0 f    CIL library: CIL module
 0001:000d2570       _BuildMapBitdepth16To8     100d3570 f    CIL library: CIL module
 0001:000d26b0       _TIFFDefaultTransferFunction 100d36b0 f    CIL library: CIL module
 0001:000d2850       _TIFFDefaultRefBlackWhite  100d3850 f    CIL library: CIL module
 0001:000d30c0       _TIFFReadRawStrip1         100d40c0 f    CIL library: CIL module
 0001:000d35e0       _TIFFReadRawTile1          100d45e0 f    CIL library: CIL module
 0001:000d3a40       _TIFFStartStrip            100d4a40 f    CIL library: CIL module
 0001:000d3ad0       _TIFFStartTile             100d4ad0 f    CIL library: CIL module
 0001:000d3c60       _TIFFReadUInt64            100d4c60 f    CIL library: CIL module
 0001:000d3cb0       _TIFFReadDirEntryByte      100d4cb0 f    CIL library: CIL module
 0001:000d3e30       _TIFFReadDirEntryShort     100d4e30 f    CIL library: CIL module
 0001:000d3fe0       _TIFFReadDirEntryLong      100d4fe0 f    CIL library: CIL module
 0001:000d4180       _TIFFReadDirEntryLong8     100d5180 f    CIL library: CIL module
 0001:000d4330       _TIFFReadDirEntryFloat     100d5330 f    CIL library: CIL module
 0001:000d4570       _TIFFReadDirEntryDouble    100d5570 f    CIL library: CIL module
 0001:000d4790       _TIFFReadDirEntryIfd8      100d5790 f    CIL library: CIL module
 0001:000d4830       _TIFFReadDirEntryArray     100d5830 f    CIL library: CIL module
 0001:000d49e0       _TIFFReadDirEntryByteArray 100d59e0 f    CIL library: CIL module
 0001:000d4d60       _TIFFReadDirEntrySbyteArray 100d5d60 f    CIL library: CIL module
 0001:000d50c0       _TIFFReadDirEntryShortArray 100d60c0 f    CIL library: CIL module
 0001:000d5430       _TIFFReadDirEntrySshortArray 100d6430 f    CIL library: CIL module
 0001:000d57a0       _TIFFReadDirEntryLongArray 100d67a0 f    CIL library: CIL module
 0001:000d5ae0       _TIFFReadDirEntrySlongArray 100d6ae0 f    CIL library: CIL module
 0001:000d5e00       _TIFFReadDirEntryLong8Array 100d6e00 f    CIL library: CIL module
 0001:000d6130       _TIFFReadDirEntrySlong8Array 100d7130 f    CIL library: CIL module
 0001:000d6420       _TIFFReadDirEntryFloatArray 100d7420 f    CIL library: CIL module
 0001:000d68c0       _TIFFReadDirEntryDoubleArray 100d78c0 f    CIL library: CIL module
 0001:000d6d60       _TIFFReadDirEntryIfd8Array 100d7d60 f    CIL library: CIL module
 0001:000d6ec0       _TIFFReadDirEntryPersampleShort 100d7ec0 f    CIL library: CIL module
 0001:000d6f60       _TIFFReadDirEntryCheckedLong 100d7f60 f    CIL library: CIL module
 0001:000d6f80       _TIFFReadDirEntryCheckedLong8 100d7f80 f    CIL library: CIL module
 0001:000d6f80       _TIFFReadDirEntryCheckedDouble 100d7f80 f    CIL library: CIL module
 0001:000d6f80       _TIFFReadDirEntryCheckedSlong8 100d7f80 f    CIL library: CIL module
 0001:000d7020       _TIFFReadDirEntryCheckedRational 100d8020 f    CIL library: CIL module
 0001:000d7130       _TIFFReadDirEntryCheckedSrational 100d8130 f    CIL library: CIL module
 0001:000d7230       _TIFFReadDirEntryCheckRangeByteLong8 100d8230 f    CIL library: CIL module
 0001:000d7250       _TIFFReadDirEntryCheckRangeByteSlong8 100d8250 f    CIL library: CIL module
 0001:000d7270       _TIFFReadDirEntryCheckRangeShortLong8 100d8270 f    CIL library: CIL module
 0001:000d7290       _TIFFReadDirEntryCheckRangeShortSlong8 100d8290 f    CIL library: CIL module
 0001:000d72b0       _TIFFReadDirEntryCheckRangeLongLong8 100d82b0 f    CIL library: CIL module
 0001:000d72d0       _TIFFReadDirEntryCheckRangeLongSlong8 100d82d0 f    CIL library: CIL module
 0001:000d72f0       _TIFFReadDirEntryCheckRangeLong8Slong8 100d82f0 f    CIL library: CIL module
 0001:000d7310       _TIFFReadDirEntryData      100d8310 f    CIL library: CIL module
 0001:000d73b0       _TIFFReadDirEntryOutputErr 100d83b0 f    CIL library: CIL module
 0001:000d83b0       _TIFFReadDirectoryCheckOrder 100d93b0 f    CIL library: CIL module
 0001:000d8400       _TIFFReadDirectoryFindEntry 100d9400 f    CIL library: CIL module
 0001:000d8430       _TIFFReadDirectoryFindFieldInfo 100d9430 f    CIL library: CIL module
 0001:000d84a0       _EstimateStripByteCounts   100d94a0 f    CIL library: CIL module
 0001:000d8790       _TIFFCheckDirOffset        100d9790 f    CIL library: CIL module
 0001:000d8870       _TIFFFetchDirectory        100d9870 f    CIL library: CIL module
 0001:000d8e90       _TIFFFetchNormalTag        100d9e90 f    CIL library: CIL module
 0001:000d9670       _TIFFFetchStripThing       100da670 f    CIL library: CIL module
 0001:000d9800       _ChopUpSingleUncompressedStrip 100da800 f    CIL library: CIL module
 0001:000d9ea0       _LogLuvFixupTags           100daea0 f    CIL library: CIL module
 0001:000d9ea0       _LZWFixupTags              100daea0 f    CIL library: CIL module
 0001:000d9ea0       __TIFFtrue                 100daea0 f    CIL library: CIL module
 0001:000d9ea0       _DumpFixupTags             100daea0 f    CIL library: CIL module
 0001:000d9ea0       _Fax3FixupTags             100daea0 f    CIL library: CIL module
 0001:000daa10       _tagCompare                100dba10 f    CIL library: CIL module
 0001:000db5d0       __notConfigured            100dc5d0 f    CIL library: CIL module
 0001:000db640       _NotConfigured             100dc640 f    CIL library: CIL module
 0001:000dbb30       _TIFFWriteDirectorySec     100dcb30 f    CIL library: CIL module
 0001:000dcc60       _TIFFWriteDirectoryTagSampleformatArray 100ddc60 f    CIL library: CIL module
 0001:000dcfc0       _TIFFWriteDirectoryTagAscii 100ddfc0 f    CIL library: CIL module
 0001:000dcff0       _TIFFWriteDirectoryTagUndefinedArray 100ddff0 f    CIL library: CIL module
 0001:000dd020       _TIFFWriteDirectoryTagShort 100de020 f    CIL library: CIL module
 0001:000dd070       _TIFFWriteDirectoryTagShortPerSample 100de070 f    CIL library: CIL module
 0001:000dd140       _TIFFWriteDirectoryTagLong 100de140 f    CIL library: CIL module
 0001:000dd1a0       _TIFFWriteDirectoryTagLongArray 100de1a0 f    CIL library: CIL module
 0001:000dd1f0       _TIFFWriteDirectoryTagSlongArray 100de1f0 f    CIL library: CIL module
 0001:000dd240       _TIFFWriteDirectoryTagLong8Array 100de240 f    CIL library: CIL module
 0001:000dd290       _TIFFWriteDirectoryTagSlong8Array 100de290 f    CIL library: CIL module
 0001:000dd2e0       _TIFFWriteDirectoryTagFloatArray 100de2e0 f    CIL library: CIL module
 0001:000dd330       _TIFFWriteDirectoryTagDoubleArray 100de330 f    CIL library: CIL module
 0001:000dd380       _TIFFWriteDirectoryTagIfdArray 100de380 f    CIL library: CIL module
 0001:000dd3d0       _TIFFWriteDirectoryTagShortLong 100de3d0 f    CIL library: CIL module
 0001:000dd460       _TIFFWriteDirectoryTagLongLong8Array 100de460 f    CIL library: CIL module
 0001:000dd590       _TIFFWriteDirectoryTagIfdIfd8Array 100de590 f    CIL library: CIL module
 0001:000dd6c0       _TIFFWriteDirectoryTagColormap 100de6c0 f    CIL library: CIL module
 0001:000dd790       _TIFFWriteDirectoryTagTransferfunction 100de790 f    CIL library: CIL module
 0001:000dd8e0       _TIFFWriteDirectoryTagSubifd 100de8e0 f    CIL library: CIL module
 0001:000dda70       _TIFFWriteDirectoryTagCheckedShortArray 100dea70 f    CIL library: CIL module
 0001:000ddac0       _TIFFWriteDirectoryTagCheckedSshortArray 100deac0 f    CIL library: CIL module
 0001:000ddb10       _TIFFWriteDirectoryTagCheckedRational 100deb10 f    CIL library: CIL module
 0001:000ddc50       _TIFFWriteDirectoryTagCheckedRationalArray 100dec50 f    CIL library: CIL module
 0001:000dde00       _TIFFWriteDirectoryTagCheckedSrationalArray 100dee00 f    CIL library: CIL module
 0001:000ddfd0       _TIFFWriteDirectoryTagData 100defd0 f    CIL library: CIL module
 0001:000de210       _TIFFLinkDirectory         100df210 f    CIL library: CIL module
 0001:000def90       _Fax3PreDecode             100dff90 f    CIL library: CIL module
 0001:000deff0       _Fax3Unexpected            100dfff0 f    CIL library: CIL module
 0001:000df040       _Fax3Extension             100e0040 f    CIL library: CIL module
 0001:000df090       _Fax3BadLength             100e0090 f    CIL library: CIL module
 0001:000df0f0       _Fax3PrematureEOF          100e00f0 f    CIL library: CIL module
 0001:000df140       _Fax3Decode1D              100e0140 f    CIL library: CIL module
 0001:000df760       _Fax3Decode2D              100e0760 f    CIL library: CIL module
 0001:000e0890       _Fax3SetupState            100e1890 f    CIL library: CIL module
 0001:000e0af0       _Fax3PutBits               100e1af0 f    CIL library: CIL module
 0001:000e0c30       _putspan                   100e1c30 f    CIL library: CIL module
 0001:000e0eb0       _Fax3PutEOL                100e1eb0 f    CIL library: CIL module
 0001:000e1050       _Fax3PreEncode             100e2050 f    CIL library: CIL module
 0001:000e10f0       _find0span                 100e20f0 f    CIL library: CIL module
 0001:000e11c0       _find1span                 100e21c0 f    CIL library: CIL module
 0001:000e1290       _Fax3Encode1DRow           100e2290 f    CIL library: CIL module
 0001:000e13c0       _Fax3Encode2DRow           100e23c0 f    CIL library: CIL module
 0001:000e15e0       _Fax3Encode                100e25e0 f    CIL library: CIL module
 0001:000e16e0       _Fax3PostEncode            100e26e0 f    CIL library: CIL module
 0001:000e1740       _Fax3Close                 100e2740 f    CIL library: CIL module
 0001:000e17e0       _Fax3Cleanup               100e27e0 f    CIL library: CIL module
 0001:000e1850       _Fax3VSetField             100e2850 f    CIL library: CIL module
 0001:000e1960       _Fax3VGetField             100e2960 f    CIL library: CIL module
 0001:000e1a60       _Fax3PrintDir              100e2a60 f    CIL library: CIL module
 0001:000e1bc0       _InitCCITTFax3             100e2bc0 f    CIL library: CIL module
 0001:000e1d80       _Fax4Decode                100e2d80 f    CIL library: CIL module
 0001:000e2780       _Fax4Encode                100e3780 f    CIL library: CIL module
 0001:000e2a20       _Fax4PostEncode            100e3a20 f    CIL library: CIL module
 0001:000e2b30       _Fax3DecodeRLE             100e3b30 f    CIL library: CIL module
 0001:000e30f0       _ThunderSetupDecode        100e40f0 f    CIL library: CIL module
 0001:000e3130       _ThunderDecodeRow          100e4130 f    CIL library: CIL module
 0001:000e34b0       _LogL16Decode              100e44b0 f    CIL library: CIL module
 0001:000e3610       _LogLuvDecode24            100e4610 f    CIL library: CIL module
 0001:000e36e0       _LogLuvDecode32            100e46e0 f    CIL library: CIL module
 0001:000e3830       _LogLuvDecodeStrip         100e4830 f    CIL library: CIL module
 0001:000e38b0       _LogLuvDecodeTile          100e48b0 f    CIL library: CIL module
 0001:000e3930       _LogL16Encode              100e4930 f    CIL library: CIL module
 0001:000e3bd0       _LogLuvEncode24            100e4bd0 f    CIL library: CIL module
 0001:000e3d10       _LogLuvEncode32            100e4d10 f    CIL library: CIL module
 0001:000e3fa0       _LogLuvEncodeStrip         100e4fa0 f    CIL library: CIL module
 0001:000e4020       _LogLuvEncodeTile          100e5020 f    CIL library: CIL module
 0001:000e41d0       _L16toY                    100e51d0 f    CIL library: CIL module
 0001:000e4250       _L16toGry                  100e5250 f    CIL library: CIL module
 0001:000e4310       _L16fromY                  100e5310 f    CIL library: CIL module
 0001:000e4680       _oog_encode                100e5680 f    CIL library: CIL module
 0001:000e4d90       _Luv24toXYZ                100e5d90 f    CIL library: CIL module
 0001:000e4ec0       _Luv24toLuv48              100e5ec0 f    CIL library: CIL module
 0001:000e4fe0       _Luv24toRGB                100e5fe0 f    CIL library: CIL module
 0001:000e5040       _Luv24fromXYZ              100e6040 f    CIL library: CIL module
 0001:000e5130       _Luv24fromLuv48            100e6130 f    CIL library: CIL module
 0001:000e5270       _Luv32toXYZ                100e6270 f    CIL library: CIL module
 0001:000e53a0       _Luv32toLuv48              100e63a0 f    CIL library: CIL module
 0001:000e5420       _Luv32toRGB                100e6420 f    CIL library: CIL module
 0001:000e5550       _Luv32fromXYZ              100e6550 f    CIL library: CIL module
 0001:000e5760       _Luv32fromLuv48            100e6760 f    CIL library: CIL module
 0001:000e58b0       _LogL16GuessDataFmt        100e68b0 f    CIL library: CIL module
 0001:000e5910       _LogL16InitState           100e6910 f    CIL library: CIL module
 0001:000e59f0       _LogLuvGuessDataFmt        100e69f0 f    CIL library: CIL module
 0001:000e5b30       _LogLuvInitState           100e6b30 f    CIL library: CIL module
 0001:000e5c70       _LogLuvSetupDecode         100e6c70 f    CIL library: CIL module
 0001:000e5dc0       _LogLuvSetupEncode         100e6dc0 f    CIL library: CIL module
 0001:000e5f00       _LogLuvClose               100e6f00 f    CIL library: CIL module
 0001:000e5f30       _LogLuvCleanup             100e6f30 f    CIL library: CIL module
 0001:000e5f80       _LogLuvVSetField           100e6f80 f    CIL library: CIL module
 0001:000e60c0       _LogLuvVGetField           100e70c0 f    CIL library: CIL module
 0001:000e6230       _LZWSetupDecode            100e7230 f    CIL library: CIL module
 0001:000e6340       _LZWPreDecode              100e7340 f    CIL library: CIL module
 0001:000e6450       _codeLoop                  100e7450 f    CIL library: CIL module
 0001:000e6480       _LZWDecode                 100e7480 f    CIL library: CIL module
 0001:000e6930       _LZWDecodeCompat           100e7930 f    CIL library: CIL module
 0001:000e6d90       _LZWSetupEncode            100e7d90 f    CIL library: CIL module
 0001:000e6de0       _LZWPreEncode              100e7de0 f    CIL library: CIL module
 0001:000e6e70       _LZWEncode                 100e7e70 f    CIL library: CIL module
 0001:000e71c0       _LZWPostEncode             100e81c0 f    CIL library: CIL module
 0001:000e72b0       _cl_hash                   100e82b0 f    CIL library: CIL module
 0001:000e72f0       _LZWCleanup                100e82f0 f    CIL library: CIL module
 0001:000e7470       _PackBitsPreEncode         100e8470 f    CIL library: CIL module
 0001:000e7500       _PackBitsPostEncode        100e8500 f    CIL library: CIL module
 0001:000e7520       _PackBitsEncode            100e8520 f    CIL library: CIL module
 0001:000e7710       _PackBitsEncodeChunk       100e8710 f    CIL library: CIL module
 0001:000e7940       _PackBitsDecode            100e8940 f    CIL library: CIL module
 0001:000e7b00       _NeXTDecode                100e8b00 f    CIL library: CIL module
 0001:000e7d10       _DumpModeEncode            100e8d10 f    CIL library: CIL module
 0001:000e7e10       _DumpModeDecode            100e8e10 f    CIL library: CIL module
 0001:000e7e90       _DumpModeSeek              100e8e90 f    CIL library: CIL module
 0001:000e7f10       _PredictorSetup            100e8f10 f    CIL library: CIL module
 0001:000e8010       _PredictorSetupDecode      100e9010 f    CIL library: CIL module
 0001:000e8170       _PredictorSetupEncode      100e9170 f    CIL library: CIL module
 0001:000e8280       _horAcc8                   100e9280 f    CIL library: CIL module
 0001:000e83d0       _swabHorAcc16              100e93d0 f    CIL library: CIL module
 0001:000e8490       _horAcc16                  100e9490 f    CIL library: CIL module
 0001:000e8520       _swabHorAcc32              100e9520 f    CIL library: CIL module
 0001:000e85b0       _horAcc32                  100e95b0 f    CIL library: CIL module
 0001:000e8640       _fpAcc                     100e9640 f    CIL library: CIL module
 0001:000e8750       _PredictorDecodeRow        100e9750 f    CIL library: CIL module
 0001:000e87a0       _PredictorDecodeTile       100e97a0 f    CIL library: CIL module
 0001:000e8810       _horDiff8                  100e9810 f    CIL library: CIL module
 0001:000e8960       _horDiff16                 100e9960 f    CIL library: CIL module
 0001:000e8a00       _horDiff32                 100e9a00 f    CIL library: CIL module
 0001:000e8a90       _fpDiff                    100e9a90 f    CIL library: CIL module
 0001:000e8ba0       _PredictorEncodeRow        100e9ba0 f    CIL library: CIL module
 0001:000e8be0       _PredictorEncodeTile       100e9be0 f    CIL library: CIL module
 0001:000e8c90       _PredictorVSetField        100e9c90 f    CIL library: CIL module
 0001:000e8cd0       _PredictorVGetField        100e9cd0 f    CIL library: CIL module
 0001:000e8d10       _PredictorPrintDir         100e9d10 f    CIL library: CIL module
 0001:000e9050       _add_huff_table            100ea050 f    CIL library: CIL module
 0001:000e9120       _std_huff_tables           100ea120 f    CIL library: CIL module
 0001:000e99e0       _fill_dc_scans             100ea9e0 f    CIL library: CIL module
 0001:000e9de0       _output_pass_setup         100eade0 f    CIL library: CIL module
 0001:000ea0b0       _default_decompress_parms  100eb0b0 f    CIL library: CIL module
 0001:000ea750       _get_soi                   100eb750 f    CIL library: CIL module
 0001:000ea7e0       _get_sof                   100eb7e0 f    CIL library: CIL module
 0001:000eab60       _get_sos                   100ebb60 f    CIL library: CIL module
 0001:000eaeb0       _get_dac                   100ebeb0 f    CIL library: CIL module
 0001:000eb050       _get_dht                   100ec050 f    CIL library: CIL module
 0001:000eb3f0       _get_dqt                   100ec3f0 f    CIL library: CIL module
 0001:000eb780       _get_dri                   100ec780 f    CIL library: CIL module
 0001:000eb880       _get_lse                   100ec880 f    CIL library: CIL module
 0001:000ebd40       _examine_app0              100ecd40 f    CIL library: CIL module
 0001:000ebfa0       _examine_app14             100ecfa0 f    CIL library: CIL module
 0001:000ec060       _get_interesting_appn      100ed060 f    CIL library: CIL module
 0001:000ec1e0       _skip_variable             100ed1e0 f    CIL library: CIL module
 0001:000ec2a0       _next_marker               100ed2a0 f    CIL library: CIL module
 0001:000ec3c0       _first_marker              100ed3c0 f    CIL library: CIL module
 0001:000ec470       _read_markers              100ed470 f    CIL library: CIL module
 0001:000ec7a0       _read_restart_marker       100ed7a0 f    CIL library: CIL module
 0001:000eca50       _reset_marker_reader       100eda50 f    CIL library: CIL module
 0001:000ecc30       _error_exit                100edc30 f    CIL library: CIL module
 0001:000ecc70       _output_message            100edc70 f    CIL library: CIL module
 0001:000eccd0       _emit_message              100edcd0 f    CIL library: CIL module
 0001:000ecd10       _format_message            100edd10 f    CIL library: CIL module
 0001:000ecdc0       _reset_error_mgr           100eddc0 f    CIL library: CIL module
 0001:000ece30       _init_destination          100ede30 f    CIL library: CIL module
 0001:000ece60       _empty_output_buffer       100ede60 f    CIL library: CIL module
 0001:000eceb0       _term_destination          100edeb0 f    CIL library: CIL module
 0001:000ecf30       _init_source               100edf30 f    CIL library: CIL module
 0001:000ecf40       _fill_input_buffer         100edf40 f    CIL library: CIL module
 0001:000ecfc0       _skip_input_data           100edfc0 f    CIL library: CIL module
 0001:000ed070       _use_merged_upsample       100ee070 f    CIL library: CIL module
 0001:000ed340       _prepare_range_limit_table 100ee340 f    CIL library: CIL module
 0001:000ed3d0       _master_selection          100ee3d0 f    CIL library: CIL module
 0001:000ed5c0       _prepare_for_output_pass   100ee5c0 f    CIL library: CIL module
 0001:000ed720       _finish_output_pass        100ee720 f    CIL library: CIL module
 0001:000edad0       _initial_setup             100eead0 f    CIL library: CIL module
 0001:000ee000       _per_scan_setup            100ef000 f    CIL library: CIL module
 0001:000ee1a0       _latch_quant_tables        100ef1a0 f    CIL library: CIL module
 0001:000ee240       _start_input_pass          100ef240 f    CIL library: CIL module
 0001:000ee290       _finish_input_pass         100ef290 f    CIL library: CIL module
 0001:000ee2c0       _consume_markers           100ef2c0 f    CIL library: CIL module
 0001:000ee3c0       _reset_input_controller    100ef3c0 f    CIL library: CIL module
 0001:000ee410       _alloc_small               100ef410 f    CIL library: CIL module
 0001:000ee560       _alloc_large               100ef560 f    CIL library: CIL module
 0001:000ee620       _alloc_sarray              100ef620 f    CIL library: CIL module
 0001:000ee6d0       _alloc_barray              100ef6d0 f    CIL library: CIL module
 0001:000ee780       _request_virt_sarray       100ef780 f    CIL library: CIL module
 0001:000ee7f0       _request_virt_barray       100ef7f0 f    CIL library: CIL module
 0001:000ee860       _realize_virt_arrays       100ef860 f    CIL library: CIL module
 0001:000ee9e0       _do_sarray_io              100ef9e0 f    CIL library: CIL module
 0001:000eea80       _do_barray_io              100efa80 f    CIL library: CIL module
 0001:000eeb20       _access_virt_sarray        100efb20 f    CIL library: CIL module
 0001:000eec70       _access_virt_barray        100efc70 f    CIL library: CIL module
 0001:000eedc0       _free_pool                 100efdc0 f    CIL library: CIL module
 0001:000eeed0       _self_destruct             100efed0 f    CIL library: CIL module
 0001:000ef120       _emit_marker               100f0120 f    CIL library: CIL module
 0001:000ef190       _emit_2bytes               100f0190 f    CIL library: CIL module
 0001:000ef1f0       _emit_dqt                  100f01f0 f    CIL library: CIL module
 0001:000ef420       _emit_dht                  100f0420 f    CIL library: CIL module
 0001:000ef5f0       _emit_dac                  100f05f0 f    CIL library: CIL module
 0001:000ef850       _emit_lse_ict              100f0850 f    CIL library: CIL module
 0001:000efa50       _emit_sof                  100f0a50 f    CIL library: CIL module
 0001:000efbc0       _emit_sos                  100f0bc0 f    CIL library: CIL module
 0001:000efd90       _emit_pseudo_sos           100f0d90 f    CIL library: CIL module
 0001:000efe70       _emit_jfif_app0            100f0e70 f    CIL library: CIL module
 0001:000f0080       _emit_adobe_app14          100f1080 f    CIL library: CIL module
 0001:000f01f0       _write_marker_header       100f11f0 f    CIL library: CIL module
 0001:000f0230       _write_marker_byte         100f1230 f    CIL library: CIL module
 0001:000f0270       _write_file_header         100f1270 f    CIL library: CIL module
 0001:000f02c0       _write_frame_header        100f12c0 f    CIL library: CIL module
 0001:000f03e0       _write_scan_header         100f13e0 f    CIL library: CIL module
 0001:000f04c0       _write_file_trailer        100f14c0 f    CIL library: CIL module
 0001:000f04e0       _write_tables_only         100f14e0 f    CIL library: CIL module
 0001:000f06e0       _jpeg_make_d_derived_tbl   100f16e0 f    CIL library: CIL module
 0001:000f0a30       _jpeg_fill_bit_buffer      100f1a30 f    CIL library: CIL module
 0001:000f0b40       _jpeg_huff_decode          100f1b40 f    CIL library: CIL module
 0001:000f0c10       _finish_pass_huff          100f1c10 f    CIL library: CIL module
 0001:000f0c40       _process_restart           100f1c40 f    CIL library: CIL module
 0001:000f0cc0       _decode_mcu_DC_first       100f1cc0 f    CIL library: CIL module
 0001:000f0ef0       _decode_mcu_AC_first       100f1ef0 f    CIL library: CIL module
 0001:000f1110       _decode_mcu_DC_refine      100f2110 f    CIL library: CIL module
 0001:000f11f0       _decode_mcu_AC_refine      100f21f0 f    CIL library: CIL module
 0001:000f16d0       _decode_mcu_sub            100f26d0 f    CIL library: CIL module
 0001:000f1b20       _decode_mcu                100f2b20 f    CIL library: CIL module
 0001:000f1f50       _start_pass_huff_decoder   100f2f50 f    CIL library: CIL module
 0001:000f25a0       _select_ncolors            100f35a0 f    CIL library: CIL module
 0001:000f2680       _create_colormap           100f3680 f    CIL library: CIL module
 0001:000f27e0       _create_colorindex         100f37e0 f    CIL library: CIL module
 0001:000f2930       _create_odither_tables     100f3930 f    CIL library: CIL module
 0001:000f2a20       _color_quantize            100f3a20 f    CIL library: CIL module
 0001:000f2ac0       _color_quantize3           100f3ac0 f    CIL library: CIL module
 0001:000f2b60       _quantize_ord_dither       100f3b60 f    CIL library: CIL module
 0001:000f2c40       _quantize3_ord_dither      100f3c40 f    CIL library: CIL module
 0001:000f2d40       _quantize_fs_dither        100f3d40 f    CIL library: CIL module
 0001:000f2ec0       _alloc_fs_workspace        100f3ec0 f    CIL library: CIL module
 0001:000f2f10       _start_pass_1_quant        100f3f10 f    CIL library: CIL module
 0001:000f3000       _new_color_map_1_quant     100f4000 f    CIL library: CIL module
 0001:000f3100       _start_pass                100f4100 f    CIL library: CIL module
 0001:000f36c0       _start_pass_upsample       100f46c0 f    CIL library: CIL module
 0001:000f36e0       _sep_upsample              100f46e0 f    CIL library: CIL module
 0001:000f37b0       _fullsize_upsample         100f47b0 f    CIL library: CIL module
 0001:000f37c0       _noop_upsample             100f47c0 f    CIL library: CIL module
 0001:000f37d0       _int_upsample              100f47d0 f    CIL library: CIL module
 0001:000f38d0       _h2v1_upsample             100f48d0 f    CIL library: CIL module
 0001:000f3930       _h2v2_upsample             100f4930 f    CIL library: CIL module
 0001:000f3b50       _arith_decode              100f4b50 f    CIL library: CIL module
 0001:000f3cf0       _process_restart           100f4cf0 f    CIL library: CIL module
 0001:000f3e10       _decode_mcu_DC_first       100f4e10 f    CIL library: CIL module
 0001:000f4010       _decode_mcu_AC_first       100f5010 f    CIL library: CIL module
 0001:000f4230       _decode_mcu_DC_refine      100f5230 f    CIL library: CIL module
 0001:000f42b0       _decode_mcu_AC_refine      100f52b0 f    CIL library: CIL module
 0001:000f4450       _decode_mcu                100f5450 f    CIL library: CIL module
 0001:000f4830       _start_pass                100f5830 f    CIL library: CIL module
 0001:000f4c30       _build_ycc_rgb_table       100f5c30 f    CIL library: CIL module
 0001:000f4d10       _build_bg_ycc_rgb_table    100f5d10 f    CIL library: CIL module
 0001:000f4e30       _ycc_rgb_convert           100f5e30 f    CIL library: CIL module
 0001:000f4f50       _build_rgb_y_table         100f5f50 f    CIL library: CIL module
 0001:000f4fb0       _rgb_gray_convert          100f5fb0 f    CIL library: CIL module
 0001:000f5060       _rgb1_rgb_convert          100f6060 f    CIL library: CIL module
 0001:000f5100       _rgb1_gray_convert         100f6100 f    CIL library: CIL module
 0001:000f51e0       _rgb_convert               100f61e0 f    CIL library: CIL module
 0001:000f5260       _null_convert              100f6260 f    CIL library: CIL module
 0001:000f52e0       _grayscale_convert         100f62e0 f    CIL library: CIL module
 0001:000f5330       _gray_rgb_convert          100f6330 f    CIL library: CIL module
 0001:000f5390       _ycck_cmyk_convert         100f6390 f    CIL library: CIL module
 0001:000f5770       _start_input_pass          100f6770 f    CIL library: CIL module
 0001:000f57d0       _start_output_pass         100f67d0 f    CIL library: CIL module
 0001:000f5820       _decompress_onepass        100f6820 f    CIL library: CIL module
 0001:000f5a70       _consume_data              100f6a70 f    CIL library: CIL module
 0001:000f5c80       _decompress_data           100f6c80 f    CIL library: CIL module
 0001:000f5e00       _smoothing_ok              100f6e00 f    CIL library: CIL module
 0001:000f5f60       _decompress_smooth_data    100f6f60 f    CIL library: CIL module
 0001:000f67d0       _prescan_quantize          100f77d0 f    CIL library: CIL module
 0001:000f6840       _update_box                100f7840 f    CIL library: CIL module
 0001:000f6bb0       _median_cut                100f7bb0 f    CIL library: CIL module
 0001:000f6d20       _compute_color             100f7d20 f    CIL library: CIL module
 0001:000f6e70       _select_colors             100f7e70 f    CIL library: CIL module
 0001:000f6f00       _find_nearby_colors        100f7f00 f    CIL library: CIL module
 0001:000f7100       _find_best_colors          100f8100 f    CIL library: CIL module
 0001:000f73c0       _fill_inverse_cmap         100f83c0 f    CIL library: CIL module
 0001:000f75b0       _pass2_no_dither           100f85b0 f    CIL library: CIL module
 0001:000f7890       _pass2_fs_dither           100f8890 f    CIL library: CIL module
 0001:000f7b10       _init_error_limit          100f8b10 f    CIL library: CIL module
 0001:000f7bb0       _finish_pass1              100f8bb0 f    CIL library: CIL module
 0001:000f7be0       _start_pass_2_quant        100f8be0 f    CIL library: CIL module
 0001:000f7d00       _new_color_map_2_quant     100f8d00 f    CIL library: CIL module
 0001:000f7e60       _build_ycc_rgb_table       100f8e60 f    CIL library: CIL module
 0001:000f7f30       _start_pass_merged_upsample 100f8f30 f    CIL library: CIL module
 0001:000f7f50       _merged_2v_upsample        100f8f50 f    CIL library: CIL module
 0001:000f8010       _merged_1v_upsample        100f9010 f    CIL library: CIL module
 0001:000f8050       _h2v1_merged_upsample      100f9050 f    CIL library: CIL module
 0001:000f81a0       _h2v2_merged_upsample      100f91a0 f    CIL library: CIL module
 0001:000f8400       _alloc_funny_pointers      100f9400 f    CIL library: CIL module
 0001:000f84b0       _make_funny_pointers       100f94b0 f    CIL library: CIL module
 0001:000f85e0       _set_wraparound_pointers   100f95e0 f    CIL library: CIL module
 0001:000f86c0       _set_bottom_pointers       100f96c0 f    CIL library: CIL module
 0001:000f8770       _start_pass_main           100f9770 f    CIL library: CIL module
 0001:000f87f0       _process_data_simple_main  100f97f0 f    CIL library: CIL module
 0001:000f8870       _process_data_context_main 100f9870 f    CIL library: CIL module
 0001:000f89a0       _process_data_crank_post   100f99a0 f    CIL library: CIL module
 0001:000f8ab0       _start_pass_dpost          100f9ab0 f    CIL library: CIL module
 0001:000f8bc0       _post_process_1pass        100f9bc0 f    CIL library: CIL module
 0001:000f8c40       _post_process_prepass      100f9c40 f    CIL library: CIL module
 0001:000f8cf0       _post_process_2pass        100f9cf0 f    CIL library: CIL module
 0001:000f8e30       _rgb_ycc_start             100f9e30 f    CIL library: CIL module
 0001:000f8f00       _rgb_ycc_convert           100f9f00 f    CIL library: CIL module
 0001:000f9010       _rgb_gray_convert          100fa010 f    CIL library: CIL module
 0001:000f90a0       _cmyk_ycck_convert         100fa0a0 f    CIL library: CIL module
 0001:000f91f0       _rgb_rgb1_convert          100fa1f0 f    CIL library: CIL module
 0001:000f9290       _grayscale_convert         100fa290 f    CIL library: CIL module
 0001:000f92f0       _rgb_convert               100fa2f0 f    CIL library: CIL module
 0001:000f9380       _null_convert              100fa380 f    CIL library: CIL module
 0001:000f9710       _emit_byte                 100fa710 f    CIL library: CIL module
 0001:000f9750       _finish_pass               100fa750 f    CIL library: CIL module
 0001:000f9a50       _arith_encode              100faa50 f    CIL library: CIL module
 0001:000f9d10       _emit_restart              100fad10 f    CIL library: CIL module
 0001:000f9e50       _encode_mcu_DC_first       100fae50 f    CIL library: CIL module
 0001:000fa040       _encode_mcu_AC_first       100fb040 f    CIL library: CIL module
 0001:000fa260       _encode_mcu_DC_refine      100fb260 f    CIL library: CIL module
 0001:000fa2f0       _encode_mcu_AC_refine      100fb2f0 f    CIL library: CIL module
 0001:000fa4c0       _encode_mcu                100fb4c0 f    CIL library: CIL module
 0001:000fa860       _start_pass                100fb860 f    CIL library: CIL module
 0001:000faa90       _start_pass_main           100fba90 f    CIL library: CIL module
 0001:000faae0       _process_data_simple_main  100fbae0 f    CIL library: CIL module
 0001:000fb160       _initial_setup             100fc160 f    CIL library: CIL module
 0001:000fb520       _validate_script           100fc520 f    CIL library: CIL module
 0001:000fb960       _reduce_script             100fc960 f    CIL library: CIL module
 0001:000fb9d0       _select_scan_parameters    100fc9d0 f    CIL library: CIL module
 0001:000fbad0       _per_scan_setup            100fcad0 f    CIL library: CIL module
 0001:000fbc90       _prepare_for_pass          100fcc90 f    CIL library: CIL module
 0001:000fbe30       _pass_startup              100fce30 f    CIL library: CIL module
 0001:000fbe60       _finish_pass_master        100fce60 f    CIL library: CIL module
 0001:000fbfa0       _start_pass_coef           100fcfa0 f    CIL library: CIL module
 0001:000fc090       _compress_data             100fd090 f    CIL library: CIL module
 0001:000fc320       _compress_first_pass       100fd320 f    CIL library: CIL module
 0001:000fc520       _compress_output           100fd520 f    CIL library: CIL module
 0001:000fc820       _start_pass_prep           100fd820 f    CIL library: CIL module
 0001:000fc870       _pre_process_data          100fd870 f    CIL library: CIL module
 0001:000fca50       _pre_process_context       100fda50 f    CIL library: CIL module
 0001:000fcc30       _create_context_buffer     100fdc30 f    CIL library: CIL module
 0001:000fcdf0       _forward_DCT               100fddf0 f    CIL library: CIL module
 0001:000fcfc0       _forward_DCT_float         100fdfc0 f    CIL library: CIL module
 0001:000fd0a0       _start_pass_fdctmgr        100fe0a0 f    CIL library: CIL module
 0001:000fd820       _sep_downsample            100fe820 f    CIL library: CIL module
 0001:000fd8b0       _int_downsample            100fe8b0 f    CIL library: CIL module
 0001:000fda40       _fullsize_downsample       100fea40 f    CIL library: CIL module
 0001:000fdad0       _h2v1_downsample           100fead0 f    CIL library: CIL module
 0001:000fdba0       _h2v2_downsample           100feba0 f    CIL library: CIL module
 0001:000fdc90       _h2v2_smooth_downsample    100fec90 f    CIL library: CIL module
 0001:000fdf40       _fullsize_smooth_downsample 100fef40 f    CIL library: CIL module
 0001:000fe290       _jpeg_make_c_derived_tbl   100ff290 f    CIL library: CIL module
 0001:000fe500       _emit_bits_s               100ff500 f    CIL library: CIL module
 0001:000fe5f0       _emit_bits_e               100ff5f0 f    CIL library: CIL module
 0001:000fe730       _emit_buffered_bits        100ff730 f    CIL library: CIL module
 0001:000fe870       _emit_eobrun               100ff870 f    CIL library: CIL module
 0001:000fe920       _emit_restart_s            100ff920 f    CIL library: CIL module
 0001:000fe9e0       _emit_restart_e            100ff9e0 f    CIL library: CIL module
 0001:000feae0       _encode_mcu_DC_first       100ffae0 f    CIL library: CIL module
 0001:000fec40       _encode_mcu_AC_first       100ffc40 f    CIL library: CIL module
 0001:000fee40       _encode_mcu_DC_refine      100ffe40 f    CIL library: CIL module
 0001:000fef00       _encode_mcu_AC_refine      100fff00 f    CIL library: CIL module
 0001:000ff220       _encode_one_block          10100220 f    CIL library: CIL module
 0001:000ff3d0       _encode_mcu_huff           101003d0 f    CIL library: CIL module
 0001:000ff550       _finish_pass_huff          10100550 f    CIL library: CIL module
 0001:000ff660       _encode_mcu_gather         10100660 f    CIL library: CIL module
 0001:000ff830       _jpeg_gen_optimal_table    10100830 f    CIL library: CIL module
 0001:000ffaa0       _finish_pass_gather        10100aa0 f    CIL library: CIL module
 0001:000ffbd0       _start_pass_huff           10100bd0 f    CIL library: CIL module
 0001:00116719       ?_store_str@@YAXPADPAPADPAI@Z 10117719 f   libcmt:strftime.obj
 0001:00116739       ?_store_num@@YAXHHPAPADPAII@Z 10117739 f   libcmt:strftime.obj
 0001:001167b4       ?_expandtime@@YAHPAUlocaleinfo_struct@@DPBUtm@@PAPADPAIPAU__lc_time_data@@I@Z 101177b4 f   libcmt:strftime.obj
 0001:00116b6c       ?_store_winword@@YAHPAUlocaleinfo_struct@@HPBUtm@@PAPADPAIPAU__lc_time_data@@@Z 10117b6c f   libcmt:strftime.obj
 0001:00117171       __tzset_nolock             10118171 f   libcmt:tzset.obj
 0001:00117484       _cvtdate                   10118484 f   libcmt:tzset.obj
 0001:0011767b       __isindst_nolock           1011867b f   libcmt:tzset.obj
 0001:00117c1a       ?strtoxl@@YAKPAUlocaleinfo_struct@@PBDPAPBDHH@Z 10118c1a f   libcmt:strtol.obj
 0001:00118000       ___DllMainCRTStartup       10119000 f   libcmt:dllcrt0.obj
 0001:0011841f       _doexit                    1011941f f   libcmt:crt0dat.obj
 0001:0011915f       _write_char                1011a15f f   libcmt:output.obj
 0001:00119192       _write_string              1011a192 f   libcmt:output.obj
 0001:0011a280       __unwind_handler4          1011b280 f   libcmt:exsup4.obj
 0001:0011b48b       _flsall                    1011c48b f   libcmt:fflush.obj
 0001:0011bc0b       ?CPtoLCID@@YAHH@Z          1011cc0b f   libcmt:mbctype.obj
 0001:0011bc3a       ?setSBCS@@YAXPAUthreadmbcinfostruct@@@Z 1011cc3a f   libcmt:mbctype.obj
 0001:0011bc9e       ?setSBUpLow@@YAXPAUthreadmbcinfostruct@@@Z 1011cc9e f   libcmt:mbctype.obj
 0001:0011bed2       ?getSystemCP@@YAHH@Z       1011ced2 f   libcmt:mbctype.obj
 0001:0011d8c0       __unwind_handler           1011e8c0 f   libcmt:exsup.obj
 0001:0011e814       _parse_cmdline             1011f814 f   libcmt:stdargv.obj
 0001:0011edc1       _siglookup                 1011fdc1 f   libcmt:winsig.obj
 0001:0011efc6       __onexit_nolock            1011ffc6 f   libcmt:onexit.obj
 0001:0011fab5       __tsopen_nolock            10120ab5 f   libcmt:wopen.obj
 0001:00120ce4       ?__crtLCMapStringA_stat@@YAHPAUlocaleinfo_struct@@KKPBDHPADHHH@Z 10121ce4 f   libcmt:a_map.obj
 0001:00120f11       ?__crtGetStringTypeA_stat@@YAHPAUlocaleinfo_struct@@KPBDHPAGHHH@Z 10121f11 f   libcmt:a_str.obj
 0001:00121791       __shift                    10122791 f   libcmt:cvt.obj
 0001:001217d6       __cftoe2_l                 101227d6 f   libcmt:cvt.obj
 0001:00121d94       __cftof2_l                 10122d94 f   libcmt:cvt.obj
 0001:001224e5       ?x_ismbbtype_l@@YAHPAUlocaleinfo_struct@@IHH@Z 101234e5 f   libcmt:ismbbyte.obj
 0001:00122893       _xtoa_s@20                 10123893 f   libcmt:xtoas.obj
 0001:001231ce       ?__crtCompareStringA_stat@@YAHPAUlocaleinfo_struct@@KKPBDH1HH@Z 101241ce f   libcmt:a_cmp.obj
 0001:00123568       _findenv                   10124568 f   libcmt:setenv.obj
 0001:001235ba       _copy_environ              101245ba f   libcmt:setenv.obj
 0001:001252d2       __hw_cw                    101262d2 f   libcmt:_ieee87_.obj
 0001:00125360       ___hw_cw_sse2              10126360 f   libcmt:_ieee87_.obj
 0001:00125a94       _init_namebuf              10126a94 f   libcmt:tmpfile.obj
 0001:00125b3e       _genfname                  10126b3e f   libcmt:tmpfile.obj
 0001:0012612b       _vscan_fn                  1012712b f   libcmt:sscanf.obj
 0001:00126280       _shortsort                 10127280 f   libcmt:qsort.obj
 0001:00126b76       ___check_float_string      10127b76 f   libcmt:input.obj
 0001:00126bcd       __hextodec                 10127bcd f   libcmt:input.obj
 0001:00126bed       __inc                      10127bed f   libcmt:input.obj
 0001:00126c03       __whiteout                 10127c03 f   libcmt:input.obj
 0001:00127e20       __tsopen_nolock            10128e20 f   libcmt:open.obj
